ccopy_reg
_reconstructor
p0
(cneural_net_impl
HiddenNetwork
p1
c__builtin__
object
p2
Ntp3
Rp4
(dp5
S'network'
p6
(ineural_net
NeuralNetwork
p7
(dp8
S'inputs'
p9
(lp10
(ineural_net
Node
p11
(dp12
g9
(lp13
sS'raw_value'
p14
I0
sS'transformed_value'
p15
I0
sS'forward_neighbors'
p16
(lp17
(ineural_net
Node
p18
(dp19
g9
(lp20
g11
a(ineural_net
Node
p21
(dp22
g9
(lp23
sg14
I1
sg15
I1
sg16
(lp24
g18
a(ineural_net
Node
p25
(dp26
g9
(lp27
g11
ag21
a(ineural_net
Node
p28
(dp29
g9
(lp30
sg14
I1
sg15
I1
sg16
(lp31
g18
ag25
a(ineural_net
Node
p32
(dp33
g9
(lp34
g11
ag21
ag28
a(ineural_net
Node
p35
(dp36
g9
(lp37
sg14
I1
sg15
I1
sg16
(lp38
g18
ag25
ag32
a(ineural_net
Node
p39
(dp40
g9
(lp41
g11
ag21
ag28
ag35
a(ineural_net
Node
p42
(dp43
g9
(lp44
sg14
I0
sg15
I0
sg16
(lp45
g18
ag25
ag32
ag39
a(ineural_net
Node
p46
(dp47
g9
(lp48
g11
ag21
ag28
ag35
ag42
a(ineural_net
Node
p49
(dp50
g9
(lp51
sg14
I0
sg15
I0
sg16
(lp52
g18
ag25
ag32
ag39
ag46
a(ineural_net
Node
p53
(dp54
g9
(lp55
g11
ag21
ag28
ag35
ag42
ag49
a(ineural_net
Node
p56
(dp57
g9
(lp58
sg14
I1
sg15
I1
sg16
(lp59
g18
ag25
ag32
ag39
ag46
ag53
a(ineural_net
Node
p60
(dp61
g9
(lp62
g11
ag21
ag28
ag35
ag42
ag49
ag56
a(ineural_net
Node
p63
(dp64
g9
(lp65
sg14
I1
sg15
I1
sg16
(lp66
g18
ag25
ag32
ag39
ag46
ag53
ag60
a(ineural_net
Node
p67
(dp68
g9
(lp69
g11
ag21
ag28
ag35
ag42
ag49
ag56
ag63
a(ineural_net
Node
p70
(dp71
g9
(lp72
sg14
I0
sg15
I0
sg16
(lp73
g18
ag25
ag32
ag39
ag46
ag53
ag60
ag67
a(ineural_net
Node
p74
(dp75
g9
(lp76
g11
ag21
ag28
ag35
ag42
ag49
ag56
ag63
ag70
a(ineural_net
Node
p77
(dp78
g9
(lp79
sg14
I1
sg15
I1
sg16
(lp80
g18
ag25
ag32
ag39
ag46
ag53
ag60
ag67
ag74
a(ineural_net
Node
p81
(dp82
g9
(lp83
g11
ag21
ag28
ag35
ag42
ag49
ag56
ag63
ag70
ag77
a(ineural_net
Node
p84
(dp85
g9
(lp86
sg14
I1
sg15
I1
sg16
(lp87
g18
ag25
ag32
ag39
ag46
ag53
ag60
ag67
ag74
ag81
a(ineural_net
Node
p88
(dp89
g9
(lp90
g11
ag21
ag28
ag35
ag42
ag49
ag56
ag63
ag70
ag77
ag84
a(ineural_net
Node
p91
(dp92
g9
(lp93
sg14
I1
sg15
I1
sg16
(lp94
g18
ag25
ag32
ag39
ag46
ag53
ag60
ag67
ag74
ag81
ag88
a(ineural_net
Node
p95
(dp96
g9
(lp97
g11
ag21
ag28
ag35
ag42
ag49
ag56
ag63
ag70
ag77
ag84
ag91
a(ineural_net
Node
p98
(dp99
g9
(lp100
sg14
I0
sg15
I0
sg16
(lp101
g18
ag25
ag32
ag39
ag46
ag53
ag60
ag67
ag74
ag81
ag88
ag95
a(ineural_net
Node
p102
(dp103
g9
(lp104
g11
ag21
ag28
ag35
ag42
ag49
ag56
ag63
ag70
ag77
ag84
ag91
ag98
a(ineural_net
Node
p105
(dp106
g9
(lp107
sg14
I1
sg15
I1
sg16
(lp108
g18
ag25
ag32
ag39
ag46
ag53
ag60
ag67
ag74
ag81
ag88
ag95
ag102
a(ineural_net
Node
p109
(dp110
g9
(lp111
g11
ag21
ag28
ag35
ag42
ag49
ag56
ag63
ag70
ag77
ag84
ag91
ag98
ag105
a(ineural_net
Node
p112
(dp113
g9
(lp114
sg14
I1
sg15
I1
sg16
(lp115
g18
ag25
ag32
ag39
ag46
ag53
ag60
ag67
ag74
ag81
ag88
ag95
ag102
ag109
a(ineural_net
Node
p116
(dp117
g9
(lp118
g11
ag21
ag28
ag35
ag42
ag49
ag56
ag63
ag70
ag77
ag84
ag91
ag98
ag105
ag112
a(ineural_net
Node
p119
(dp120
g9
(lp121
sg14
I0
sg15
I0
sg16
(lp122
g18
ag25
ag32
ag39
ag46
ag53
ag60
ag67
ag74
ag81
ag88
ag95
ag102
ag109
ag116
asS'forward_weights'
p123
(lp124
(ineural_net
Weight
p125
(dp126
S'value'
p127
F-0.43589648550532906
sba(ineural_net
Weight
p128
(dp129
g127
F-0.33070843918519777
sba(ineural_net
Weight
p130
(dp131
g127
F-0.44000823950446216
sba(ineural_net
Weight
p132
(dp133
g127
F-0.4132659093367735
sba(ineural_net
Weight
p134
(dp135
g127
F-0.432135924234965
sba(ineural_net
Weight
p136
(dp137
g127
F0.45350046973810554
sba(ineural_net
Weight
p138
(dp139
g127
F-0.428782401362928
sba(ineural_net
Weight
p140
(dp141
g127
F-0.41089526196978865
sba(ineural_net
Weight
p142
(dp143
g127
F-0.43624053694291814
sba(ineural_net
Weight
p144
(dp145
g127
F-0.4124563521735342
sba(ineural_net
Weight
p146
(dp147
g127
F-0.3971401948410968
sba(ineural_net
Weight
p148
(dp149
g127
F-0.23798015104557954
sba(ineural_net
Weight
p150
(dp151
g127
F-1.0668353533152752
sba(ineural_net
Weight
p152
(dp153
g127
F-0.27186946768953096
sba(ineural_net
Weight
p154
(dp155
g127
F-0.34974502613587777
sbasS'weights'
p156
(lp157
sS'fixed_weight'
p158
Nsba(ineural_net
Node
p159
(dp160
g9
(lp161
sg14
I1
sg15
I1
sg16
(lp162
g18
ag25
ag32
ag39
ag46
ag53
ag60
ag67
ag74
ag81
ag88
ag95
ag102
ag109
ag116
asg123
(lp163
(ineural_net
Weight
p164
(dp165
g127
F-0.011035077980394326
sba(ineural_net
Weight
p166
(dp167
g127
F-0.029129119170721175
sba(ineural_net
Weight
p168
(dp169
g127
F0.0227919516715046
sba(ineural_net
Weight
p170
(dp171
g127
F0.0159766705299382
sba(ineural_net
Weight
p172
(dp173
g127
F0.012240475923351143
sba(ineural_net
Weight
p174
(dp175
g127
F-0.09482670050462154
sba(ineural_net
Weight
p176
(dp177
g127
F0.01872357175742089
sba(ineural_net
Weight
p178
(dp179
g127
F0.022134430472812636
sba(ineural_net
Weight
p180
(dp181
g127
F0.023553277574471503
sba(ineural_net
Weight
p182
(dp183
g127
F-0.007400561862715402
sba(ineural_net
Weight
p184
(dp185
g127
F0.025341744363146058
sba(ineural_net
Weight
p186
(dp187
g127
F-0.05944164173891131
sba(ineural_net
Weight
p188
(dp189
g127
F0.3494195105090355
sba(ineural_net
Weight
p190
(dp191
g127
F-0.005597566241272396
sba(ineural_net
Weight
p192
(dp193
g127
F0.00015011730493617198
sbasg156
(lp194
sg158
Nsba(ineural_net
Node
p195
(dp196
g9
(lp197
sg14
I0
sg15
I0
sg16
(lp198
g18
ag25
ag32
ag39
ag46
ag53
ag60
ag67
ag74
ag81
ag88
ag95
ag102
ag109
ag116
asg123
(lp199
(ineural_net
Weight
p200
(dp201
g127
F0.2113105895895811
sba(ineural_net
Weight
p202
(dp203
g127
F0.3050816157625047
sba(ineural_net
Weight
p204
(dp205
g127
F0.1369959797528054
sba(ineural_net
Weight
p206
(dp207
g127
F0.19367101896301733
sba(ineural_net
Weight
p208
(dp209
g127
F0.19822415581273062
sba(ineural_net
Weight
p210
(dp211
g127
F-0.330379234992437
sba(ineural_net
Weight
p212
(dp213
g127
F0.12460867466803036
sba(ineural_net
Weight
p214
(dp215
g127
F0.08585158294549174
sba(ineural_net
Weight
p216
(dp217
g127
F0.18967218649343479
sba(ineural_net
Weight
p218
(dp219
g127
F0.15217982286340181
sba(ineural_net
Weight
p220
(dp221
g127
F0.04858880624819511
sba(ineural_net
Weight
p222
(dp223
g127
F0.4277008968196216
sba(ineural_net
Weight
p224
(dp225
g127
F1.9197141306096788
sba(ineural_net
Weight
p226
(dp227
g127
F0.6653250136197011
sba(ineural_net
Weight
p228
(dp229
g127
F0.2994787345859424
sbasg156
(lp230
sg158
Nsba(ineural_net
Node
p231
(dp232
g9
(lp233
sg14
I1
sg15
I1
sg16
(lp234
g18
ag25
ag32
ag39
ag46
ag53
ag60
ag67
ag74
ag81
ag88
ag95
ag102
ag109
ag116
asg123
(lp235
(ineural_net
Weight
p236
(dp237
g127
F-0.3069128260951347
sba(ineural_net
Weight
p238
(dp239
g127
F-0.2718432050897489
sba(ineural_net
Weight
p240
(dp241
g127
F-0.29846940039156633
sba(ineural_net
Weight
p242
(dp243
g127
F-0.3106619533257827
sba(ineural_net
Weight
p244
(dp245
g127
F-0.3046380086561437
sba(ineural_net
Weight
p246
(dp247
g127
F-0.12254844208069421
sba(ineural_net
Weight
p248
(dp249
g127
F-0.26330625924445655
sba(ineural_net
Weight
p250
(dp251
g127
F-0.25592454714886553
sba(ineural_net
Weight
p252
(dp253
g127
F-0.2884040434447776
sba(ineural_net
Weight
p254
(dp255
g127
F-0.280156503945509
sba(ineural_net
Weight
p256
(dp257
g127
F-0.2416091810703023
sba(ineural_net
Weight
p258
(dp259
g127
F-0.18318326325711923
sba(ineural_net
Weight
p260
(dp261
g127
F-1.1002103192801147
sba(ineural_net
Weight
p262
(dp263
g127
F-0.1508464702987859
sba(ineural_net
Weight
p264
(dp265
g127
F-0.26347916424860973
sbasg156
(lp266
sg158
Nsba(ineural_net
Node
p267
(dp268
g9
(lp269
sg14
I0
sg15
I0
sg16
(lp270
g18
ag25
ag32
ag39
ag46
ag53
ag60
ag67
ag74
ag81
ag88
ag95
ag102
ag109
ag116
asg123
(lp271
(ineural_net
Weight
p272
(dp273
g127
F0.4589137326371155
sba(ineural_net
Weight
p274
(dp275
g127
F0.5109436302608964
sba(ineural_net
Weight
p276
(dp277
g127
F0.42352991746253643
sba(ineural_net
Weight
p278
(dp279
g127
F0.43615719434280936
sba(ineural_net
Weight
p280
(dp281
g127
F0.47276610351779513
sba(ineural_net
Weight
p282
(dp283
g127
F0.27540411487556193
sba(ineural_net
Weight
p284
(dp285
g127
F0.3876104723991454
sba(ineural_net
Weight
p286
(dp287
g127
F0.35012561664855996
sba(ineural_net
Weight
p288
(dp289
g127
F0.4270577163571919
sba(ineural_net
Weight
p290
(dp291
g127
F0.4009722861224624
sba(ineural_net
Weight
p292
(dp293
g127
F0.32010546961603015
sba(ineural_net
Weight
p294
(dp295
g127
F0.6732627121823389
sba(ineural_net
Weight
p296
(dp297
g127
F1.6973512301740692
sba(ineural_net
Weight
p298
(dp299
g127
F0.8079601584995193
sba(ineural_net
Weight
p300
(dp301
g127
F0.5146110331119896
sbasg156
(lp302
sg158
Nsba(ineural_net
Node
p303
(dp304
g9
(lp305
sg14
I0
sg15
I0
sg16
(lp306
g18
ag25
ag32
ag39
ag46
ag53
ag60
ag67
ag74
ag81
ag88
ag95
ag102
ag109
ag116
asg123
(lp307
(ineural_net
Weight
p308
(dp309
g127
F0.3541510309105112
sba(ineural_net
Weight
p310
(dp311
g127
F0.4838716925316969
sba(ineural_net
Weight
p312
(dp313
g127
F0.2418636878298023
sba(ineural_net
Weight
p314
(dp315
g127
F0.2732165426896751
sba(ineural_net
Weight
p316
(dp317
g127
F0.31267763802803183
sba(ineural_net
Weight
p318
(dp319
g127
F-0.3083057313516467
sba(ineural_net
Weight
p320
(dp321
g127
F0.23467627106350772
sba(ineural_net
Weight
p322
(dp323
g127
F0.19153947287465672
sba(ineural_net
Weight
p324
(dp325
g127
F0.3088965532262355
sba(ineural_net
Weight
p326
(dp327
g127
F0.2774387985275902
sba(ineural_net
Weight
p328
(dp329
g127
F0.14943475732668543
sba(ineural_net
Weight
p330
(dp331
g127
F0.655839104975466
sba(ineural_net
Weight
p332
(dp333
g127
F1.7396493090453118
sba(ineural_net
Weight
p334
(dp335
g127
F0.8999994371667521
sba(ineural_net
Weight
p336
(dp337
g127
F0.46832929976424736
sbasg156
(lp338
sg158
Nsba(ineural_net
Node
p339
(dp340
g9
(lp341
sg14
I0
sg15
I0
sg16
(lp342
g18
ag25
ag32
ag39
ag46
ag53
ag60
ag67
ag74
ag81
ag88
ag95
ag102
ag109
ag116
asg123
(lp343
(ineural_net
Weight
p344
(dp345
g127
F-0.2625322402903342
sba(ineural_net
Weight
p346
(dp347
g127
F-0.26607345400235144
sba(ineural_net
Weight
p348
(dp349
g127
F-0.23803955905709157
sba(ineural_net
Weight
p350
(dp351
g127
F-0.24371005584941238
sba(ineural_net
Weight
p352
(dp353
g127
F-0.2478916213535706
sba(ineural_net
Weight
p354
(dp355
g127
F0.08569282746648128
sba(ineural_net
Weight
p356
(dp357
g127
F-0.22675716267960708
sba(ineural_net
Weight
p358
(dp359
g127
F-0.24072285713426336
sba(ineural_net
Weight
p360
(dp361
g127
F-0.25737820623392155
sba(ineural_net
Weight
p362
(dp363
g127
F-0.23775819121563943
sba(ineural_net
Weight
p364
(dp365
g127
F-0.2279006540436202
sba(ineural_net
Weight
p366
(dp367
g127
F-0.3070928084116673
sba(ineural_net
Weight
p368
(dp369
g127
F-0.006616003677210473
sba(ineural_net
Weight
p370
(dp371
g127
F-0.2513472727482531
sba(ineural_net
Weight
p372
(dp373
g127
F-0.23277195725666638
sbasg156
(lp374
sg158
Nsba(ineural_net
Node
p375
(dp376
g9
(lp377
sg14
I0
sg15
I0
sg16
(lp378
g18
ag25
ag32
ag39
ag46
ag53
ag60
ag67
ag74
ag81
ag88
ag95
ag102
ag109
ag116
asg123
(lp379
(ineural_net
Weight
p380
(dp381
g127
F0.43889709923825465
sba(ineural_net
Weight
p382
(dp383
g127
F0.5877096885746492
sba(ineural_net
Weight
p384
(dp385
g127
F0.3609615065053497
sba(ineural_net
Weight
p386
(dp387
g127
F0.426597621326929
sba(ineural_net
Weight
p388
(dp389
g127
F0.47227159589756834
sba(ineural_net
Weight
p390
(dp391
g127
F0.188837360753858
sba(ineural_net
Weight
p392
(dp393
g127
F0.3141336577832052
sba(ineural_net
Weight
p394
(dp395
g127
F0.2819763769443783
sba(ineural_net
Weight
p396
(dp397
g127
F0.3792020755910598
sba(ineural_net
Weight
p398
(dp399
g127
F0.3561230891333242
sba(ineural_net
Weight
p400
(dp401
g127
F0.21533364285662462
sba(ineural_net
Weight
p402
(dp403
g127
F0.7778783634068157
sba(ineural_net
Weight
p404
(dp405
g127
F1.495587596312036
sba(ineural_net
Weight
p406
(dp407
g127
F0.9682982249090963
sba(ineural_net
Weight
p408
(dp409
g127
F0.5861182803254179
sbasg156
(lp410
sg158
Nsba(ineural_net
Node
p411
(dp412
g9
(lp413
sg14
I1
sg15
I1
sg16
(lp414
g18
ag25
ag32
ag39
ag46
ag53
ag60
ag67
ag74
ag81
ag88
ag95
ag102
ag109
ag116
asg123
(lp415
(ineural_net
Weight
p416
(dp417
g127
F0.42436916822349546
sba(ineural_net
Weight
p418
(dp419
g127
F0.6037921593508914
sba(ineural_net
Weight
p420
(dp421
g127
F0.2776053009300022
sba(ineural_net
Weight
p422
(dp423
g127
F0.3796030506809683
sba(ineural_net
Weight
p424
(dp425
g127
F0.4133229142001677
sba(ineural_net
Weight
p426
(dp427
g127
F-0.13553349171003967
sba(ineural_net
Weight
p428
(dp429
g127
F0.2337745939951798
sba(ineural_net
Weight
p430
(dp431
g127
F0.18909111451802713
sba(ineural_net
Weight
p432
(dp433
g127
F0.3332246688257901
sba(ineural_net
Weight
p434
(dp435
g127
F0.3049198338041217
sba(ineural_net
Weight
p436
(dp437
g127
F0.12823552965502474
sba(ineural_net
Weight
p438
(dp439
g127
F0.7736031324089914
sba(ineural_net
Weight
p440
(dp441
g127
F1.0498016718929195
sba(ineural_net
Weight
p442
(dp443
g127
F0.8133603643170029
sba(ineural_net
Weight
p444
(dp445
g127
F0.5903691284341284
sbasg156
(lp446
sg158
Nsba(ineural_net
Node
p447
(dp448
g9
(lp449
sg14
I0
sg15
I0
sg16
(lp450
g18
ag25
ag32
ag39
ag46
ag53
ag60
ag67
ag74
ag81
ag88
ag95
ag102
ag109
ag116
asg123
(lp451
(ineural_net
Weight
p452
(dp453
g127
F-0.061395689035756915
sba(ineural_net
Weight
p454
(dp455
g127
F-0.16397858888288708
sba(ineural_net
Weight
p456
(dp457
g127
F-0.0328758312883892
sba(ineural_net
Weight
p458
(dp459
g127
F-0.05627524611136817
sba(ineural_net
Weight
p460
(dp461
g127
F-0.08474633518085055
sba(ineural_net
Weight
p462
(dp463
g127
F-0.21594322744964936
sba(ineural_net
Weight
p464
(dp465
g127
F-0.030770247420746976
sba(ineural_net
Weight
p466
(dp467
g127
F-0.02886045672722189
sba(ineural_net
Weight
p468
(dp469
g127
F-0.041199825123916574
sba(ineural_net
Weight
p470
(dp471
g127
F-0.014741549867860554
sba(ineural_net
Weight
p472
(dp473
g127
F-0.03728547960122897
sba(ineural_net
Weight
p474
(dp475
g127
F-0.3608361169694434
sba(ineural_net
Weight
p476
(dp477
g127
F0.9467851619125884
sba(ineural_net
Weight
p478
(dp479
g127
F-0.4479544289621221
sba(ineural_net
Weight
p480
(dp481
g127
F-0.16058647299237186
sbasg156
(lp482
sg158
Nsba(ineural_net
Node
p483
(dp484
g9
(lp485
sg14
I1
sg15
I1
sg16
(lp486
g18
ag25
ag32
ag39
ag46
ag53
ag60
ag67
ag74
ag81
ag88
ag95
ag102
ag109
ag116
asg123
(lp487
(ineural_net
Weight
p488
(dp489
g127
F0.023175257035927647
sba(ineural_net
Weight
p490
(dp491
g127
F0.012982553001090857
sba(ineural_net
Weight
p492
(dp493
g127
F0.041621718413512254
sba(ineural_net
Weight
p494
(dp495
g127
F0.06931968921694306
sba(ineural_net
Weight
p496
(dp497
g127
F0.020062581854573373
sba(ineural_net
Weight
p498
(dp499
g127
F-0.5863712620650549
sba(ineural_net
Weight
p500
(dp501
g127
F0.028661280426851503
sba(ineural_net
Weight
p502
(dp503
g127
F0.017304504863532362
sba(ineural_net
Weight
p504
(dp505
g127
F0.037534713370571855
sba(ineural_net
Weight
p506
(dp507
g127
F0.00930348880399176
sba(ineural_net
Weight
p508
(dp509
g127
F0.006613986185925325
sba(ineural_net
Weight
p510
(dp511
g127
F-0.02276061289420081
sba(ineural_net
Weight
p512
(dp513
g127
F0.22012812853903072
sba(ineural_net
Weight
p514
(dp515
g127
F0.016202117917327796
sba(ineural_net
Weight
p516
(dp517
g127
F0.016198324748392185
sbasg156
(lp518
sg158
Nsba(ineural_net
Node
p519
(dp520
g9
(lp521
sg14
I1
sg15
I1
sg16
(lp522
g18
ag25
ag32
ag39
ag46
ag53
ag60
ag67
ag74
ag81
ag88
ag95
ag102
ag109
ag116
asg123
(lp523
(ineural_net
Weight
p524
(dp525
g127
F-0.14321835384262796
sba(ineural_net
Weight
p526
(dp527
g127
F-0.1387114176807461
sba(ineural_net
Weight
p528
(dp529
g127
F-0.13174405858905835
sba(ineural_net
Weight
p530
(dp531
g127
F-0.16920627281415326
sba(ineural_net
Weight
p532
(dp533
g127
F-0.1598908444720668
sba(ineural_net
Weight
p534
(dp535
g127
F0.059521019250021734
sba(ineural_net
Weight
p536
(dp537
g127
F-0.122253591283441
sba(ineural_net
Weight
p538
(dp539
g127
F-0.13032725205877874
sba(ineural_net
Weight
p540
(dp541
g127
F-0.10813294636173323
sba(ineural_net
Weight
p542
(dp543
g127
F-0.13770169624053716
sba(ineural_net
Weight
p544
(dp545
g127
F-0.12631286096479366
sba(ineural_net
Weight
p546
(dp547
g127
F-0.09186008968406936
sba(ineural_net
Weight
p548
(dp549
g127
F0.21971962045354976
sba(ineural_net
Weight
p550
(dp551
g127
F0.08108199919823288
sba(ineural_net
Weight
p552
(dp553
g127
F-0.11085678896927423
sbasg156
(lp554
sg158
Nsba(ineural_net
Node
p555
(dp556
g9
(lp557
sg14
I1
sg15
I1
sg16
(lp558
g18
ag25
ag32
ag39
ag46
ag53
ag60
ag67
ag74
ag81
ag88
ag95
ag102
ag109
ag116
asg123
(lp559
(ineural_net
Weight
p560
(dp561
g127
F-0.0780740020516983
sba(ineural_net
Weight
p562
(dp563
g127
F-0.08957886498360532
sba(ineural_net
Weight
p564
(dp565
g127
F-0.08611149775502694
sba(ineural_net
Weight
p566
(dp567
g127
F-0.07784093309283635
sba(ineural_net
Weight
p568
(dp569
g127
F-0.09264083369808185
sba(ineural_net
Weight
p570
(dp571
g127
F-0.01065896918040795
sba(ineural_net
Weight
p572
(dp573
g127
F-0.0774784716934385
sba(ineural_net
Weight
p574
(dp575
g127
F-0.0903888252227591
sba(ineural_net
Weight
p576
(dp577
g127
F-0.08549405558929221
sba(ineural_net
Weight
p578
(dp579
g127
F-0.06649325929374808
sba(ineural_net
Weight
p580
(dp581
g127
F-0.08881939968593781
sba(ineural_net
Weight
p582
(dp583
g127
F-0.1648972365349568
sba(ineural_net
Weight
p584
(dp585
g127
F0.15602223100072324
sba(ineural_net
Weight
p586
(dp587
g127
F-0.20370226062330646
sba(ineural_net
Weight
p588
(dp589
g127
F-0.06165516763889964
sbasg156
(lp590
sg158
Nsba(ineural_net
Node
p591
(dp592
g9
(lp593
sg14
I1
sg15
I1
sg16
(lp594
g18
ag25
ag32
ag39
ag46
ag53
ag60
ag67
ag74
ag81
ag88
ag95
ag102
ag109
ag116
asg123
(lp595
(ineural_net
Weight
p596
(dp597
g127
F-0.06190241833850732
sba(ineural_net
Weight
p598
(dp599
g127
F-0.1530245005581078
sba(ineural_net
Weight
p600
(dp601
g127
F-0.014084598189360434
sba(ineural_net
Weight
p602
(dp603
g127
F-0.031954170207539156
sba(ineural_net
Weight
p604
(dp605
g127
F-0.024553407784342327
sba(ineural_net
Weight
p606
(dp607
g127
F0.5088051257055978
sba(ineural_net
Weight
p608
(dp609
g127
F0.002528185609611267
sba(ineural_net
Weight
p610
(dp611
g127
F0.01530234368006974
sba(ineural_net
Weight
p612
(dp613
g127
F-0.07402388687065935
sba(ineural_net
Weight
p614
(dp615
g127
F-0.041593048892791244
sba(ineural_net
Weight
p616
(dp617
g127
F0.03820480663026908
sba(ineural_net
Weight
p618
(dp619
g127
F-0.22976660526545362
sba(ineural_net
Weight
p620
(dp621
g127
F0.2976957173901326
sba(ineural_net
Weight
p622
(dp623
g127
F-0.350069427775686
sba(ineural_net
Weight
p624
(dp625
g127
F-0.13784163185606088
sbasg156
(lp626
sg158
Nsba(ineural_net
Node
p627
(dp628
g9
(lp629
sg14
I1
sg15
I1
sg16
(lp630
g18
ag25
ag32
ag39
ag46
ag53
ag60
ag67
ag74
ag81
ag88
ag95
ag102
ag109
ag116
asg123
(lp631
(ineural_net
Weight
p632
(dp633
g127
F-0.001945595300347637
sba(ineural_net
Weight
p634
(dp635
g127
F-0.09424934402224812
sba(ineural_net
Weight
p636
(dp637
g127
F0.0013825003244508946
sba(ineural_net
Weight
p638
(dp639
g127
F-0.04002045607384763
sba(ineural_net
Weight
p640
(dp641
g127
F-0.025261963158168557
sba(ineural_net
Weight
p642
(dp643
g127
F-0.4738777085708436
sba(ineural_net
Weight
p644
(dp645
g127
F0.023320634208122498
sba(ineural_net
Weight
p646
(dp647
g127
F0.005868130799645145
sba(ineural_net
Weight
p648
(dp649
g127
F-0.01559381674197935
sba(ineural_net
Weight
p650
(dp651
g127
F0.028513651926417034
sba(ineural_net
Weight
p652
(dp653
g127
F0.01590236925264713
sba(ineural_net
Weight
p654
(dp655
g127
F-0.288800796501348
sba(ineural_net
Weight
p656
(dp657
g127
F0.41176818028612217
sba(ineural_net
Weight
p658
(dp659
g127
F-0.44349393764416756
sba(ineural_net
Weight
p660
(dp661
g127
F-0.07577667904079179
sbasg156
(lp662
sg158
Nsba(ineural_net
Node
p663
(dp664
g9
(lp665
sg14
I0
sg15
I0
sg16
(lp666
g18
ag25
ag32
ag39
ag46
ag53
ag60
ag67
ag74
ag81
ag88
ag95
ag102
ag109
ag116
asg123
(lp667
(ineural_net
Weight
p668
(dp669
g127
F-0.2717262608082989
sba(ineural_net
Weight
p670
(dp671
g127
F-0.26178760676053425
sba(ineural_net
Weight
p672
(dp673
g127
F-0.2982835328930806
sba(ineural_net
Weight
p674
(dp675
g127
F-0.29863606605509047
sba(ineural_net
Weight
p676
(dp677
g127
F-0.29385298175339725
sba(ineural_net
Weight
p678
(dp679
g127
F0.8675713103763193
sba(ineural_net
Weight
p680
(dp681
g127
F-0.28900147230261986
sba(ineural_net
Weight
p682
(dp683
g127
F-0.26637752203882775
sba(ineural_net
Weight
p684
(dp685
g127
F-0.30094581619295624
sba(ineural_net
Weight
p686
(dp687
g127
F-0.28890501179300737
sba(ineural_net
Weight
p688
(dp689
g127
F-0.26715247257805425
sba(ineural_net
Weight
p690
(dp691
g127
F-0.28054632808512786
sba(ineural_net
Weight
p692
(dp693
g127
F-0.9527553281233505
sba(ineural_net
Weight
p694
(dp695
g127
F-0.3695885900913812
sba(ineural_net
Weight
p696
(dp697
g127
F-0.28501156676436395
sbasg156
(lp698
sg158
Nsba(ineural_net
Node
p699
(dp700
g9
(lp701
sg14
I0
sg15
I0
sg16
(lp702
g18
ag25
ag32
ag39
ag46
ag53
ag60
ag67
ag74
ag81
ag88
ag95
ag102
ag109
ag116
asg123
(lp703
(ineural_net
Weight
p704
(dp705
g127
F-0.07958260332208034
sba(ineural_net
Weight
p706
(dp707
g127
F0.03027989821506872
sba(ineural_net
Weight
p708
(dp709
g127
F-0.09058231377698983
sba(ineural_net
Weight
p710
(dp711
g127
F-0.06187819864038293
sba(ineural_net
Weight
p712
(dp713
g127
F-0.04946858594778656
sba(ineural_net
Weight
p714
(dp715
g127
F0.35541211568971626
sba(ineural_net
Weight
p716
(dp717
g127
F-0.10993876427330385
sba(ineural_net
Weight
p718
(dp719
g127
F-0.09295949103227917
sba(ineural_net
Weight
p720
(dp721
g127
F-0.08040555009858717
sba(ineural_net
Weight
p722
(dp723
g127
F-0.10128123836927999
sba(ineural_net
Weight
p724
(dp725
g127
F-0.10204514052267516
sba(ineural_net
Weight
p726
(dp727
g127
F0.21738356181030255
sba(ineural_net
Weight
p728
(dp729
g127
F0.6618983525647913
sba(ineural_net
Weight
p730
(dp731
g127
F0.39315702500683847
sba(ineural_net
Weight
p732
(dp733
g127
F-0.007401493418715496
sbasg156
(lp734
sg158
Nsba(ineural_net
Node
p735
(dp736
g9
(lp737
sg14
I0
sg15
I0
sg16
(lp738
g18
ag25
ag32
ag39
ag46
ag53
ag60
ag67
ag74
ag81
ag88
ag95
ag102
ag109
ag116
asg123
(lp739
(ineural_net
Weight
p740
(dp741
g127
F0.23032268164730446
sba(ineural_net
Weight
p742
(dp743
g127
F0.34339525342942284
sba(ineural_net
Weight
p744
(dp745
g127
F0.17566181974682177
sba(ineural_net
Weight
p746
(dp747
g127
F0.24660508380904678
sba(ineural_net
Weight
p748
(dp749
g127
F0.2500776608285341
sba(ineural_net
Weight
p750
(dp751
g127
F-0.4616949871104129
sba(ineural_net
Weight
p752
(dp753
g127
F0.1317937324454865
sba(ineural_net
Weight
p754
(dp755
g127
F0.10638870492063994
sba(ineural_net
Weight
p756
(dp757
g127
F0.21215818603390058
sba(ineural_net
Weight
p758
(dp759
g127
F0.1578689498578042
sba(ineural_net
Weight
p760
(dp761
g127
F0.07503806924439325
sba(ineural_net
Weight
p762
(dp763
g127
F0.439732347872305
sba(ineural_net
Weight
p764
(dp765
g127
F0.8069223077781007
sba(ineural_net
Weight
p766
(dp767
g127
F0.5865490432232479
sba(ineural_net
Weight
p768
(dp769
g127
F0.3176630984685335
sbasg156
(lp770
sg158
Nsba(ineural_net
Node
p771
(dp772
g9
(lp773
sg14
I0
sg15
I0
sg16
(lp774
g18
ag25
ag32
ag39
ag46
ag53
ag60
ag67
ag74
ag81
ag88
ag95
ag102
ag109
ag116
asg123
(lp775
(ineural_net
Weight
p776
(dp777
g127
F-0.28194538030729654
sba(ineural_net
Weight
p778
(dp779
g127
F-0.19641784656633612
sba(ineural_net
Weight
p780
(dp781
g127
F-0.33713916482697265
sba(ineural_net
Weight
p782
(dp783
g127
F-0.3066333516371838
sba(ineural_net
Weight
p784
(dp785
g127
F-0.26694039416748044
sba(ineural_net
Weight
p786
(dp787
g127
F0.7975468653836043
sba(ineural_net
Weight
p788
(dp789
g127
F-0.3516788099922426
sba(ineural_net
Weight
p790
(dp791
g127
F-0.3574322126712104
sba(ineural_net
Weight
p792
(dp793
g127
F-0.3111694205893584
sba(ineural_net
Weight
p794
(dp795
g127
F-0.3306854450234765
sba(ineural_net
Weight
p796
(dp797
g127
F-0.34787019176924366
sba(ineural_net
Weight
p798
(dp799
g127
F-0.11933883674422562
sba(ineural_net
Weight
p800
(dp801
g127
F-1.0174541569207514
sba(ineural_net
Weight
p802
(dp803
g127
F-0.17956477654189948
sba(ineural_net
Weight
p804
(dp805
g127
F-0.19894377772753094
sbasg156
(lp806
sg158
Nsba(ineural_net
Node
p807
(dp808
g9
(lp809
sg14
I0
sg15
I0
sg16
(lp810
g18
ag25
ag32
ag39
ag46
ag53
ag60
ag67
ag74
ag81
ag88
ag95
ag102
ag109
ag116
asg123
(lp811
(ineural_net
Weight
p812
(dp813
g127
F0.0380576924414593
sba(ineural_net
Weight
p814
(dp815
g127
F0.01871514885758609
sba(ineural_net
Weight
p816
(dp817
g127
F0.0397657968080725
sba(ineural_net
Weight
p818
(dp819
g127
F0.015680120024619763
sba(ineural_net
Weight
p820
(dp821
g127
F0.0312742368407591
sba(ineural_net
Weight
p822
(dp823
g127
F0.1650002304843772
sba(ineural_net
Weight
p824
(dp825
g127
F0.02071514333002429
sba(ineural_net
Weight
p826
(dp827
g127
F0.004387266158668185
sba(ineural_net
Weight
p828
(dp829
g127
F0.034720917463185265
sba(ineural_net
Weight
p830
(dp831
g127
F0.01704461146133663
sba(ineural_net
Weight
p832
(dp833
g127
F-0.0023215742330836764
sba(ineural_net
Weight
p834
(dp835
g127
F-0.03198343507897842
sba(ineural_net
Weight
p836
(dp837
g127
F0.3364780246839759
sba(ineural_net
Weight
p838
(dp839
g127
F-0.23571662706879537
sba(ineural_net
Weight
p840
(dp841
g127
F0.002876289214663952
sbasg156
(lp842
sg158
Nsba(ineural_net
Node
p843
(dp844
g9
(lp845
sg14
I0
sg15
I0
sg16
(lp846
g18
ag25
ag32
ag39
ag46
ag53
ag60
ag67
ag74
ag81
ag88
ag95
ag102
ag109
ag116
asg123
(lp847
(ineural_net
Weight
p848
(dp849
g127
F0.1977473882464239
sba(ineural_net
Weight
p850
(dp851
g127
F0.2630899783360475
sba(ineural_net
Weight
p852
(dp853
g127
F0.16314214547710568
sba(ineural_net
Weight
p854
(dp855
g127
F0.17276851494206788
sba(ineural_net
Weight
p856
(dp857
g127
F0.19486630323895773
sba(ineural_net
Weight
p858
(dp859
g127
F-0.1870786971632059
sba(ineural_net
Weight
p860
(dp861
g127
F0.1344826517585682
sba(ineural_net
Weight
p862
(dp863
g127
F0.1114347729836481
sba(ineural_net
Weight
p864
(dp865
g127
F0.19157068690309165
sba(ineural_net
Weight
p866
(dp867
g127
F0.15214248534916816
sba(ineural_net
Weight
p868
(dp869
g127
F0.09234861591485431
sba(ineural_net
Weight
p870
(dp871
g127
F0.3349459345722492
sba(ineural_net
Weight
p872
(dp873
g127
F1.283129583871537
sba(ineural_net
Weight
p874
(dp875
g127
F0.39560454115397914
sba(ineural_net
Weight
p876
(dp877
g127
F0.2775865985508142
sbasg156
(lp878
sg158
Nsbasg14
F-1.8216602885894206
sS'delta'
p879
F0.002369515129939139
sg15
F0.13923477073732846
sg16
(lp880
(ineural_net
Node
p881
(dp882
g9
(lp883
g18
ag25
ag32
ag39
ag46
ag53
ag60
ag67
ag74
ag81
ag88
ag95
ag102
ag109
ag116
asg14
F0.4537678676909307
sg879
F0.007643493294236656
sg15
F0.6115347038949643
sg16
(lp884
sg123
(lp885
sg156
(lp886
(ineural_net
Weight
p887
(dp888
g127
F0.7014234071778236
sba(ineural_net
Weight
p889
(dp890
g127
F0.6764030642644309
sba(ineural_net
Weight
p891
(dp892
g127
F0.7268096192987631
sba(ineural_net
Weight
p893
(dp894
g127
F0.7217373646944928
sba(ineural_net
Weight
p895
(dp896
g127
F0.7021467334190018
sba(ineural_net
Weight
p897
(dp898
g127
F-1.0341500836395785
sba(ineural_net
Weight
p899
(dp900
g127
F0.7184584918050626
sba(ineural_net
Weight
p901
(dp902
g127
F0.7197783960290977
sba(ineural_net
Weight
p903
(dp904
g127
F0.705560266634535
sba(ineural_net
Weight
p905
(dp906
g127
F0.7153685783506207
sba(ineural_net
Weight
p907
(dp908
g127
F0.7032766440683613
sba(ineural_net
Weight
p909
(dp910
g127
F0.6316063165728236
sba(ineural_net
Weight
p911
(dp912
g127
F0.7305786726166343
sba(ineural_net
Weight
p913
(dp914
g127
F0.6163828906707481
sba(ineural_net
Weight
p915
(dp916
g127
F0.6756581688481132
sbasg158
(ineural_net
Weight
p917
(dp918
g127
F-0.0004847053113315441
sbsS'error'
p919
F0.09173602103284362
sba(ineural_net
Node
p920
(dp921
g9
(lp922
g18
ag25
ag32
ag39
ag46
ag53
ag60
ag67
ag74
ag81
ag88
ag95
ag102
ag109
ag116
asg14
F-0.4539726791809367
sg879
F-0.007647655090168211
sg15
F0.38841664219705707
sg16
(lp923
sg123
(lp924
sg156
(lp925
(ineural_net
Weight
p926
(dp927
g127
F-0.6994248963166159
sba(ineural_net
Weight
p928
(dp929
g127
F-0.6696094431641354
sba(ineural_net
Weight
p930
(dp931
g127
F-0.7191726079260984
sba(ineural_net
Weight
p932
(dp933
g127
F-0.7084790036111248
sba(ineural_net
Weight
p934
(dp935
g127
F-0.7176527860449093
sba(ineural_net
Weight
p936
(dp937
g127
F1.0359853179303697
sba(ineural_net
Weight
p938
(dp939
g127
F-0.7278410580536527
sba(ineural_net
Weight
p940
(dp941
g127
F-0.7081955481443609
sba(ineural_net
Weight
p942
(dp943
g127
F-0.7179366932370501
sba(ineural_net
Weight
p944
(dp945
g127
F-0.7184041269387978
sba(ineural_net
Weight
p946
(dp947
g127
F-0.7017801942547922
sba(ineural_net
Weight
p948
(dp949
g127
F-0.6425459415685859
sba(ineural_net
Weight
p950
(dp951
g127
F-0.7305946607653707
sba(ineural_net
Weight
p952
(dp953
g127
F-0.6119849224037661
sba(ineural_net
Weight
p954
(dp955
g127
F-0.6701490690986646
sbasg158
(ineural_net
Weight
p956
(dp957
g127
F-0.0013310605529344797
sbsg919
F-0.09176232079696614
sbasg123
(lp958
g915
ag954
asg156
(lp959
(ineural_net
Weight
p960
(dp961
g127
F-0.2862586258324758
sba(ineural_net
Weight
p962
(dp963
g127
F-0.28789301586610394
sba(ineural_net
Weight
p964
(dp965
g127
F-0.05011748687770961
sba(ineural_net
Weight
p966
(dp967
g127
F-0.2730965491278475
sba(ineural_net
Weight
p968
(dp969
g127
F0.5742964779162473
sba(ineural_net
Weight
p970
(dp971
g127
F0.4183383349629426
sba(ineural_net
Weight
p972
(dp973
g127
F-0.43746668310879305
sba(ineural_net
Weight
p974
(dp975
g127
F-0.21821464504800808
sba(ineural_net
Weight
p976
(dp977
g127
F-0.2972422426011619
sba(ineural_net
Weight
p978
(dp979
g127
F0.0671272464091239
sba(ineural_net
Weight
p980
(dp981
g127
F0.061322399260575595
sba(ineural_net
Weight
p982
(dp983
g127
F-0.13005463688569519
sba(ineural_net
Weight
p984
(dp985
g127
F-0.48394798534490974
sba(ineural_net
Weight
p986
(dp987
g127
F-0.30778822751006457
sba(ineural_net
Weight
p988
(dp989
g127
F-0.19331011384297317
sbag154
ag192
ag228
ag264
ag300
ag336
ag372
ag408
ag444
ag480
ag516
ag552
ag588
ag624
ag660
ag696
ag732
ag768
ag804
ag840
ag876
asg158
(ineural_net
Weight
p990
(dp991
g127
F-0.009276714725745346
sbsg919
F0.010285249713690808
sbasg123
(lp992
(ineural_net
Weight
p993
(dp994
g127
F-0.30654423877600373
sba(ineural_net
Weight
p995
(dp996
g127
F-0.1890016417806171
sba(ineural_net
Weight
p997
(dp998
g127
F-0.3403298237382541
sba(ineural_net
Weight
p999
(dp1000
g127
F-0.30458057959947965
sba(ineural_net
Weight
p1001
(dp1002
g127
F-0.32329528990181694
sba(ineural_net
Weight
p1003
(dp1004
g127
F0.030047259660055562
sba(ineural_net
Weight
p1005
(dp1006
g127
F-0.35744280907118725
sba(ineural_net
Weight
p1007
(dp1008
g127
F-0.36137989012004645
sba(ineural_net
Weight
p1009
(dp1010
g127
F-0.3081985526319167
sba(ineural_net
Weight
p1011
(dp1012
g127
F-0.33998577412180786
sba(ineural_net
Weight
p1013
(dp1014
g127
F-0.33993884167174016
sba(ineural_net
Weight
p1015
(dp1016
g127
F-0.10369565864028063
sba(ineural_net
Weight
p1017
(dp1018
g127
F-0.5742452947381081
sba(ineural_net
Weight
p1019
(dp1020
g127
F0.02599491834499234
sbag988
asg156
(lp1021
sg158
Nsbag119
ag159
ag195
ag231
ag267
ag303
ag339
ag375
ag411
ag447
ag483
ag519
ag555
ag591
ag627
ag663
ag699
ag735
ag771
ag807
ag843
asg14
F-1.9717508110760562
sg879
F0.001956352818858276
sg15
F0.12220095676628415
sg16
(lp1022
g881
ag920
asg123
(lp1023
g913
ag952
asg156
(lp1024
(ineural_net
Weight
p1025
(dp1026
g127
F-0.36810656602846925
sba(ineural_net
Weight
p1027
(dp1028
g127
F-0.3821399578914379
sba(ineural_net
Weight
p1029
(dp1030
g127
F0.04584697413411444
sba(ineural_net
Weight
p1031
(dp1032
g127
F-0.27137487315770026
sba(ineural_net
Weight
p1033
(dp1034
g127
F1.2112198604441133
sba(ineural_net
Weight
p1035
(dp1036
g127
F0.9125137050235721
sba(ineural_net
Weight
p1037
(dp1038
g127
F-0.3524153358016093
sba(ineural_net
Weight
p1039
(dp1040
g127
F-0.21605302648622196
sba(ineural_net
Weight
p1041
(dp1042
g127
F-0.19660507637727012
sba(ineural_net
Weight
p1043
(dp1044
g127
F-0.14393626524318767
sba(ineural_net
Weight
p1045
(dp1046
g127
F0.0259494837446461
sba(ineural_net
Weight
p1047
(dp1048
g127
F-0.07432635603409414
sba(ineural_net
Weight
p1049
(dp1050
g127
F-0.29232692554671286
sba(ineural_net
Weight
p1051
(dp1052
g127
F-0.38269238642664494
sbag1019
ag152
ag190
ag226
ag262
ag298
ag334
ag370
ag406
ag442
ag478
ag514
ag550
ag586
ag622
ag658
ag694
ag730
ag766
ag802
ag838
ag874
asg158
(ineural_net
Weight
p1053
(dp1054
g127
F-0.0035388051082579945
sbsg919
F0.009383340762099943
sbag116
asg123
(lp1055
(ineural_net
Weight
p1056
(dp1057
g127
F-0.25290398736306413
sba(ineural_net
Weight
p1058
(dp1059
g127
F-0.3096768890931658
sba(ineural_net
Weight
p1060
(dp1061
g127
F-0.26654276301371854
sba(ineural_net
Weight
p1062
(dp1063
g127
F-0.29440695341447215
sba(ineural_net
Weight
p1064
(dp1065
g127
F-0.27880401835499063
sba(ineural_net
Weight
p1066
(dp1067
g127
F0.25626809358997904
sba(ineural_net
Weight
p1068
(dp1069
g127
F-0.26604653944317064
sba(ineural_net
Weight
p1070
(dp1071
g127
F-0.27037899065707727
sba(ineural_net
Weight
p1072
(dp1073
g127
F-0.25895674896459064
sba(ineural_net
Weight
p1074
(dp1075
g127
F-0.2661369939180799
sba(ineural_net
Weight
p1076
(dp1077
g127
F-0.2687736754656146
sba(ineural_net
Weight
p1078
(dp1079
g127
F-0.3870889453850716
sba(ineural_net
Weight
p1080
(dp1081
g127
F-0.1595790993647873
sbag1051
ag986
asg156
(lp1082
sg158
Nsbag112
ag119
ag159
ag195
ag231
ag267
ag303
ag339
ag375
ag411
ag447
ag483
ag519
ag555
ag591
ag627
ag663
ag699
ag735
ag771
ag807
ag843
asg14
F-0.33963346485494483
sg879
F4.861482690424968e-06
sg15
F0.41589851558018864
sg16
(lp1083
g881
ag920
asg123
(lp1084
g911
ag950
asg156
(lp1085
(ineural_net
Weight
p1086
(dp1087
g127
F0.44746397379291303
sba(ineural_net
Weight
p1088
(dp1089
g127
F-0.21890664003845192
sba(ineural_net
Weight
p1090
(dp1091
g127
F-0.8393857255168478
sba(ineural_net
Weight
p1092
(dp1093
g127
F-0.7005010176418854
sba(ineural_net
Weight
p1094
(dp1095
g127
F1.882519058456962
sba(ineural_net
Weight
p1096
(dp1097
g127
F1.0580605403067518
sba(ineural_net
Weight
p1098
(dp1099
g127
F-0.19458355482246162
sba(ineural_net
Weight
p1100
(dp1101
g127
F-0.09811850105645906
sba(ineural_net
Weight
p1102
(dp1103
g127
F-0.6813375009536098
sba(ineural_net
Weight
p1104
(dp1105
g127
F0.23501414491567876
sba(ineural_net
Weight
p1106
(dp1107
g127
F0.12662330260570986
sba(ineural_net
Weight
p1108
(dp1109
g127
F0.4697644708137545
sba(ineural_net
Weight
p1110
(dp1111
g127
F0.16999936358196927
sbag1080
ag1017
ag150
ag188
ag224
ag260
ag296
ag332
ag368
ag404
ag440
ag476
ag512
ag548
ag584
ag620
ag656
ag692
ag728
ag764
ag800
ag836
ag872
asg158
(ineural_net
Weight
p1112
(dp1113
g127
F0.009939709197514192
sbsg919
F0.011159823294577528
sbag109
ag116
asg123
(lp1114
(ineural_net
Weight
p1115
(dp1116
g127
F-0.411499668111526
sba(ineural_net
Weight
p1117
(dp1118
g127
F-0.4958845919705864
sba(ineural_net
Weight
p1119
(dp1120
g127
F-0.2976891972881691
sba(ineural_net
Weight
p1121
(dp1122
g127
F-0.36137108223900954
sba(ineural_net
Weight
p1123
(dp1124
g127
F-0.37562216211853533
sba(ineural_net
Weight
p1125
(dp1126
g127
F0.567407093942033
sba(ineural_net
Weight
p1127
(dp1128
g127
F-0.2554471576066598
sba(ineural_net
Weight
p1129
(dp1130
g127
F-0.20965748149158736
sba(ineural_net
Weight
p1131
(dp1132
g127
F-0.37010351031347516
sba(ineural_net
Weight
p1133
(dp1134
g127
F-0.3298385692371657
sba(ineural_net
Weight
p1135
(dp1136
g127
F-0.15705031481948017
sba(ineural_net
Weight
p1137
(dp1138
g127
F-0.45663664575750107
sbag1110
ag1049
ag984
asg156
(lp1139
sg158
Nsbag105
ag112
ag119
ag159
ag195
ag231
ag267
ag303
ag339
ag375
ag411
ag447
ag483
ag519
ag555
ag591
ag627
ag663
ag699
ag735
ag771
ag807
ag843
asg14
F-1.8807572579984388
sg879
F0.002433900431773894
sg15
F0.13230191753929718
sg16
(lp1140
g881
ag920
asg123
(lp1141
g909
ag948
asg156
(lp1142
(ineural_net
Weight
p1143
(dp1144
g127
F-0.3015934466809611
sba(ineural_net
Weight
p1145
(dp1146
g127
F-0.34814457155079953
sba(ineural_net
Weight
p1147
(dp1148
g127
F0.10339452721847037
sba(ineural_net
Weight
p1149
(dp1150
g127
F-0.186543339514281
sba(ineural_net
Weight
p1151
(dp1152
g127
F0.8791190480573673
sba(ineural_net
Weight
p1153
(dp1154
g127
F0.6259972661157741
sba(ineural_net
Weight
p1155
(dp1156
g127
F-0.4159866673285301
sba(ineural_net
Weight
p1157
(dp1158
g127
F-0.2435472358479989
sba(ineural_net
Weight
p1159
(dp1160
g127
F-0.26695130897881925
sba(ineural_net
Weight
p1161
(dp1162
g127
F0.011206088214359197
sba(ineural_net
Weight
p1163
(dp1164
g127
F0.0519851069870725
sba(ineural_net
Weight
p1165
(dp1166
g127
F-0.09828243358847961
sbag1137
ag1078
ag1015
ag148
ag186
ag222
ag258
ag294
ag330
ag366
ag402
ag438
ag474
ag510
ag546
ag582
ag618
ag654
ag690
ag726
ag762
ag798
ag834
ag870
asg158
(ineural_net
Weight
p1167
(dp1168
g127
F0.003052984904168587
sbsg919
F0.009735831289827135
sbag102
ag109
ag116
asg123
(lp1169
(ineural_net
Weight
p1170
(dp1171
g127
F-0.10595469765545068
sba(ineural_net
Weight
p1172
(dp1173
g127
F-0.10752432298683079
sba(ineural_net
Weight
p1174
(dp1175
g127
F-0.10844000412137504
sba(ineural_net
Weight
p1176
(dp1177
g127
F-0.10155043770907266
sba(ineural_net
Weight
p1178
(dp1179
g127
F-0.10117605441695925
sba(ineural_net
Weight
p1180
(dp1181
g127
F0.07047018719014161
sba(ineural_net
Weight
p1182
(dp1183
g127
F-0.08827957100929454
sba(ineural_net
Weight
p1184
(dp1185
g127
F-0.08279541027788795
sba(ineural_net
Weight
p1186
(dp1187
g127
F-0.11211849043525791
sba(ineural_net
Weight
p1188
(dp1189
g127
F-0.0970825179325192
sba(ineural_net
Weight
p1190
(dp1191
g127
F-0.10799817042978604
sbag1165
ag1108
ag1047
ag982
asg156
(lp1192
sg158
Nsbag98
ag105
ag112
ag119
ag159
ag195
ag231
ag267
ag303
ag339
ag375
ag411
ag447
ag483
ag519
ag555
ag591
ag627
ag663
ag699
ag735
ag771
ag807
ag843
asg14
F-2.4386355974753973
sg879
F0.0012051761306316347
sg15
F0.08027358798495544
sg16
(lp1193
g881
ag920
asg123
(lp1194
g907
ag946
asg156
(lp1195
(ineural_net
Weight
p1196
(dp1197
g127
F-0.2916079581789449
sba(ineural_net
Weight
p1198
(dp1199
g127
F-0.14550615574084894
sba(ineural_net
Weight
p1200
(dp1201
g127
F-0.26530916157943346
sba(ineural_net
Weight
p1202
(dp1203
g127
F-0.2405419499089928
sba(ineural_net
Weight
p1204
(dp1205
g127
F0.11812159355102302
sba(ineural_net
Weight
p1206
(dp1207
g127
F0.12478959827981394
sba(ineural_net
Weight
p1208
(dp1209
g127
F-0.2791528494959243
sba(ineural_net
Weight
p1210
(dp1211
g127
F-0.32795776766374396
sba(ineural_net
Weight
p1212
(dp1213
g127
F-0.18661323016783893
sba(ineural_net
Weight
p1214
(dp1215
g127
F-0.073351072947885
sba(ineural_net
Weight
p1216
(dp1217
g127
F-0.14985335341253234
sbag1190
ag1135
ag1076
ag1013
ag146
ag184
ag220
ag256
ag292
ag328
ag364
ag400
ag436
ag472
ag508
ag544
ag580
ag616
ag652
ag688
ag724
ag760
ag796
ag832
ag868
asg158
(ineural_net
Weight
p1218
(dp1219
g127
F0.002190406475126281
sbsg919
F0.010740957498442836
sbag95
ag102
ag109
ag116
asg123
(lp1220
(ineural_net
Weight
p1221
(dp1222
g127
F0.03217774098628224
sba(ineural_net
Weight
p1223
(dp1224
g127
F0.06930782082300027
sba(ineural_net
Weight
p1225
(dp1226
g127
F-0.05294106063515329
sba(ineural_net
Weight
p1227
(dp1228
g127
F-0.006370577423262234
sba(ineural_net
Weight
p1229
(dp1230
g127
F-0.0013324655472850932
sba(ineural_net
Weight
p1231
(dp1232
g127
F0.08538138601252675
sba(ineural_net
Weight
p1233
(dp1234
g127
F-0.08343571747499348
sba(ineural_net
Weight
p1235
(dp1236
g127
F-0.10672942395855209
sba(ineural_net
Weight
p1237
(dp1238
g127
F-0.016022952833154233
sba(ineural_net
Weight
p1239
(dp1240
g127
F-0.022987995383708652
sbag1216
ag1163
ag1106
ag1045
ag980
asg156
(lp1241
sg158
Nsbag91
ag98
ag105
ag112
ag119
ag159
ag195
ag231
ag267
ag303
ag339
ag375
ag411
ag447
ag483
ag519
ag555
ag591
ag627
ag663
ag699
ag735
ag771
ag807
ag843
asg14
F-2.243835592736283
sg879
F0.0017551113639544544
sg15
F0.09588252198433227
sg16
(lp1242
g881
ag920
asg123
(lp1243
g905
ag944
asg156
(lp1244
(ineural_net
Weight
p1245
(dp1246
g127
F-0.27279784317422096
sba(ineural_net
Weight
p1247
(dp1248
g127
F-0.2205768620673135
sba(ineural_net
Weight
p1249
(dp1250
g127
F-0.20952254794330497
sba(ineural_net
Weight
p1251
(dp1252
g127
F-0.27812132086248503
sba(ineural_net
Weight
p1253
(dp1254
g127
F0.2971881350529031
sba(ineural_net
Weight
p1255
(dp1256
g127
F0.252065775225872
sba(ineural_net
Weight
p1257
(dp1258
g127
F-0.371699696992603
sba(ineural_net
Weight
p1259
(dp1260
g127
F-0.2771319690667996
sba(ineural_net
Weight
p1261
(dp1262
g127
F-0.23932944090752467
sba(ineural_net
Weight
p1263
(dp1264
g127
F0.025472401432874707
sbag1239
ag1188
ag1133
ag1074
ag1011
ag144
ag182
ag218
ag254
ag290
ag326
ag362
ag398
ag434
ag470
ag506
ag542
ag578
ag614
ag650
ag686
ag722
ag758
ag794
ag830
ag866
asg158
(ineural_net
Weight
p1265
(dp1266
g127
F0.004545779820234691
sbsg919
F0.01095968093847319
sbag88
ag95
ag102
ag109
ag116
asg123
(lp1267
(ineural_net
Weight
p1268
(dp1269
g127
F0.08167422984344691
sba(ineural_net
Weight
p1270
(dp1271
g127
F0.08372178032659562
sba(ineural_net
Weight
p1272
(dp1273
g127
F0.010488317046887422
sba(ineural_net
Weight
p1274
(dp1275
g127
F0.042011977858150695
sba(ineural_net
Weight
p1276
(dp1277
g127
F0.04753327971560135
sba(ineural_net
Weight
p1278
(dp1279
g127
F0.10340581784583998
sba(ineural_net
Weight
p1280
(dp1281
g127
F-0.01673521151014385
sba(ineural_net
Weight
p1282
(dp1283
g127
F-0.04540717374387909
sba(ineural_net
Weight
p1284
(dp1285
g127
F0.046266349053553965
sbag1263
ag1214
ag1161
ag1104
ag1043
ag978
asg156
(lp1286
sg158
Nsbag84
ag91
ag98
ag105
ag112
ag119
ag159
ag195
ag231
ag267
ag303
ag339
ag375
ag411
ag447
ag483
ag519
ag555
ag591
ag627
ag663
ag699
ag735
ag771
ag807
ag843
asg14
F-2.1208803557671274
sg879
F0.0016942400095360994
sg15
F0.10708386446606194
sg16
(lp1287
g881
ag920
asg123
(lp1288
g903
ag942
asg156
(lp1289
(ineural_net
Weight
p1290
(dp1291
g127
F-0.3044293433961958
sba(ineural_net
Weight
p1292
(dp1293
g127
F-0.2556719800007642
sba(ineural_net
Weight
p1294
(dp1295
g127
F-0.1466411954936618
sba(ineural_net
Weight
p1296
(dp1297
g127
F-0.29714864872040897
sba(ineural_net
Weight
p1298
(dp1299
g127
F0.31847751739537156
sba(ineural_net
Weight
p1300
(dp1301
g127
F0.24777875934736435
sba(ineural_net
Weight
p1302
(dp1303
g127
F-0.3521497962657967
sba(ineural_net
Weight
p1304
(dp1305
g127
F-0.24196681622502825
sba(ineural_net
Weight
p1306
(dp1307
g127
F-0.2563685827472181
sbag1284
ag1237
ag1186
ag1131
ag1072
ag1009
ag142
ag180
ag216
ag252
ag288
ag324
ag360
ag396
ag432
ag468
ag504
ag540
ag576
ag612
ag648
ag684
ag720
ag756
ag792
ag828
ag864
asg158
(ineural_net
Weight
p1308
(dp1309
g127
F-0.0009354340124940169
sbsg919
F0.010881221929414757
sbag81
ag88
ag95
ag102
ag109
ag116
asg123
(lp1310
(ineural_net
Weight
p1311
(dp1312
g127
F-0.2660750323873162
sba(ineural_net
Weight
p1313
(dp1314
g127
F-0.29581217622302447
sba(ineural_net
Weight
p1315
(dp1316
g127
F-0.2475381424947285
sba(ineural_net
Weight
p1317
(dp1318
g127
F-0.28974981155559826
sba(ineural_net
Weight
p1319
(dp1320
g127
F-0.26701046063491823
sba(ineural_net
Weight
p1321
(dp1322
g127
F0.1828945619449518
sba(ineural_net
Weight
p1323
(dp1324
g127
F-0.2222590248750991
sba(ineural_net
Weight
p1325
(dp1326
g127
F-0.20568938087156138
sbag1306
ag1261
ag1212
ag1159
ag1102
ag1041
ag976
asg156
(lp1327
sg158
Nsbag77
ag84
ag91
ag98
ag105
ag112
ag119
ag159
ag195
ag231
ag267
ag303
ag339
ag375
ag411
ag447
ag483
ag519
ag555
ag591
ag627
ag663
ag699
ag735
ag771
ag807
ag843
asg14
F-2.4017138591923906
sg879
F0.0013895289403348058
sg15
F0.08304209949111722
sg16
(lp1328
g881
ag920
asg123
(lp1329
g901
ag940
asg156
(lp1330
(ineural_net
Weight
p1331
(dp1332
g127
F-0.28892592550880275
sba(ineural_net
Weight
p1333
(dp1334
g127
F-0.18868296109619925
sba(ineural_net
Weight
p1335
(dp1336
g127
F-0.25083026111626333
sba(ineural_net
Weight
p1337
(dp1338
g127
F-0.27179821991004505
sba(ineural_net
Weight
p1339
(dp1340
g127
F0.18693367168685662
sba(ineural_net
Weight
p1341
(dp1342
g127
F0.1890451907020967
sba(ineural_net
Weight
p1343
(dp1344
g127
F-0.29239565026472775
sba(ineural_net
Weight
p1345
(dp1346
g127
F-0.294759279276533
sbag1325
ag1282
ag1235
ag1184
ag1129
ag1070
ag1007
ag140
ag178
ag214
ag250
ag286
ag322
ag358
ag394
ag430
ag466
ag502
ag538
ag574
ag610
ag646
ag682
ag718
ag754
ag790
ag826
ag862
asg158
(ineural_net
Weight
p1347
(dp1348
g127
F-0.009616498674863786
sbsg919
F0.010915906427443264
sbag74
ag81
ag88
ag95
ag102
ag109
ag116
asg123
(lp1349
(ineural_net
Weight
p1350
(dp1351
g127
F-0.20862682077529496
sba(ineural_net
Weight
p1352
(dp1353
g127
F-0.20555980377333907
sba(ineural_net
Weight
p1354
(dp1355
g127
F-0.2581458767949458
sba(ineural_net
Weight
p1356
(dp1357
g127
F-0.22102690743459713
sba(ineural_net
Weight
p1358
(dp1359
g127
F-0.2367236800347817
sba(ineural_net
Weight
p1360
(dp1361
g127
F0.5398289684633578
sba(ineural_net
Weight
p1362
(dp1363
g127
F-0.29539589310023684
sbag1345
ag1304
ag1259
ag1210
ag1157
ag1100
ag1039
ag974
asg156
(lp1364
sg158
Nsbag70
ag77
ag84
ag91
ag98
ag105
ag112
ag119
ag159
ag195
ag231
ag267
ag303
ag339
ag375
ag411
ag447
ag483
ag519
ag555
ag591
ag627
ag663
ag699
ag735
ag771
ag807
ag843
asg14
F-2.344194862094288
sg879
F0.0015296148607625614
sg15
F0.0875283031579085
sg16
(lp1365
g881
ag920
asg123
(lp1366
g899
ag938
asg156
(lp1367
(ineural_net
Weight
p1368
(dp1369
g127
F-0.29358304690098497
sba(ineural_net
Weight
p1370
(dp1371
g127
F-0.2106241159819073
sba(ineural_net
Weight
p1372
(dp1373
g127
F-0.24806536636442617
sba(ineural_net
Weight
p1374
(dp1375
g127
F-0.2791257127539799
sba(ineural_net
Weight
p1376
(dp1377
g127
F0.2438620391738165
sba(ineural_net
Weight
p1378
(dp1379
g127
F0.20060198196585263
sba(ineural_net
Weight
p1380
(dp1381
g127
F-0.3422144450167994
sbag1362
ag1323
ag1280
ag1233
ag1182
ag1127
ag1068
ag1005
ag138
ag176
ag212
ag248
ag284
ag320
ag356
ag392
ag428
ag464
ag500
ag536
ag572
ag608
ag644
ag680
ag716
ag752
ag788
ag824
ag860
asg158
(ineural_net
Weight
p1382
(dp1383
g127
F-0.000799424143998034
sbsg919
F0.011055870926316057
sbag67
ag74
ag81
ag88
ag95
ag102
ag109
ag116
asg123
(lp1384
(ineural_net
Weight
p1385
(dp1386
g127
F-0.3984161707936793
sba(ineural_net
Weight
p1387
(dp1388
g127
F-0.42245375164068566
sba(ineural_net
Weight
p1389
(dp1390
g127
F-0.34991854341270856
sba(ineural_net
Weight
p1391
(dp1392
g127
F-0.3634342522675263
sba(ineural_net
Weight
p1393
(dp1394
g127
F-0.383408634327481
sba(ineural_net
Weight
p1395
(dp1396
g127
F0.10924001651170936
sbag1380
ag1343
ag1302
ag1257
ag1208
ag1155
ag1098
ag1037
ag972
asg156
(lp1397
sg158
Nsbag63
ag70
ag77
ag84
ag91
ag98
ag105
ag112
ag119
ag159
ag195
ag231
ag267
ag303
ag339
ag375
ag411
ag447
ag483
ag519
ag555
ag591
ag627
ag663
ag699
ag735
ag771
ag807
ag843
asg14
F1.3203281043922257
sg879
F-0.0021436312741879102
sg15
F0.7892362893635126
sg16
(lp1398
g881
ag920
asg123
(lp1399
g897
ag936
asg156
(lp1400
(ineural_net
Weight
p1401
(dp1402
g127
F-0.20881730798722353
sba(ineural_net
Weight
p1403
(dp1404
g127
F-0.148479723472053
sba(ineural_net
Weight
p1405
(dp1406
g127
F0.45557009156047695
sba(ineural_net
Weight
p1407
(dp1408
g127
F0.6808197176646597
sba(ineural_net
Weight
p1409
(dp1410
g127
F-0.19553362615877293
sba(ineural_net
Weight
p1411
(dp1412
g127
F0.14712814116775114
sbag1395
ag1360
ag1321
ag1278
ag1231
ag1180
ag1125
ag1066
ag1003
ag136
ag174
ag210
ag246
ag282
ag318
ag354
ag390
ag426
ag462
ag498
ag534
ag570
ag606
ag642
ag678
ag714
ag750
ag786
ag822
ag858
asg158
(ineural_net
Weight
p1413
(dp1414
g127
F-0.006733281478425319
sbsg919
F-0.015837181585869567
sbag60
ag67
ag74
ag81
ag88
ag95
ag102
ag109
ag116
asg123
(lp1415
(ineural_net
Weight
p1416
(dp1417
g127
F0.31743902157957316
sba(ineural_net
Weight
p1418
(dp1419
g127
F0.43732148372039087
sba(ineural_net
Weight
p1420
(dp1421
g127
F0.22248649051509511
sba(ineural_net
Weight
p1422
(dp1423
g127
F0.29257093011744284
sba(ineural_net
Weight
p1424
(dp1425
g127
F0.3006285170644037
sbag1411
ag1378
ag1341
ag1300
ag1255
ag1206
ag1153
ag1096
ag1035
ag970
asg156
(lp1426
sg158
Nsbag56
ag63
ag70
ag77
ag84
ag91
ag98
ag105
ag112
ag119
ag159
ag195
ag231
ag267
ag303
ag339
ag375
ag411
ag447
ag483
ag519
ag555
ag591
ag627
ag663
ag699
ag735
ag771
ag807
ag843
asg14
F-2.1598186677116384
sg879
F0.0018678166295194208
sg15
F0.1034172637657926
sg16
(lp1427
g881
ag920
asg123
(lp1428
g895
ag934
asg156
(lp1429
(ineural_net
Weight
p1430
(dp1431
g127
F-0.32731000130937543
sba(ineural_net
Weight
p1432
(dp1433
g127
F-0.28694583440210164
sba(ineural_net
Weight
p1434
(dp1435
g127
F-0.12723884029690233
sba(ineural_net
Weight
p1436
(dp1437
g127
F-0.30642880686141855
sba(ineural_net
Weight
p1438
(dp1439
g127
F0.3672155530769957
sbag1424
ag1393
ag1358
ag1319
ag1276
ag1229
ag1178
ag1123
ag1064
ag1001
ag134
ag172
ag208
ag244
ag280
ag316
ag352
ag388
ag424
ag460
ag496
ag532
ag568
ag604
ag640
ag676
ag712
ag748
ag784
ag820
ag856
asg158
(ineural_net
Weight
p1440
(dp1441
g127
F-0.0006392374927919244
sbsg919
F0.010852632212237623
sbag53
ag60
ag67
ag74
ag81
ag88
ag95
ag102
ag109
ag116
asg123
(lp1442
(ineural_net
Weight
p1443
(dp1444
g127
F0.3843863074292721
sba(ineural_net
Weight
p1445
(dp1446
g127
F0.5817986534815183
sba(ineural_net
Weight
p1447
(dp1448
g127
F0.28007946538693157
sba(ineural_net
Weight
p1449
(dp1450
g127
F0.367048057734251
sbag1438
ag1409
ag1376
ag1339
ag1298
ag1253
ag1204
ag1151
ag1094
ag1033
ag968
asg156
(lp1451
sg158
Nsbag49
ag56
ag63
ag70
ag77
ag84
ag91
ag98
ag105
ag112
ag119
ag159
ag195
ag231
ag267
ag303
ag339
ag375
ag411
ag447
ag483
ag519
ag555
ag591
ag627
ag663
ag699
ag735
ag771
ag807
ag843
asg14
F-2.1423022813204162
sg879
F0.0017978972726258166
sg15
F0.10505273981904491
sg16
(lp1452
g881
ag920
asg123
(lp1453
g893
ag932
asg156
(lp1454
(ineural_net
Weight
p1455
(dp1456
g127
F-0.3184166638091727
sba(ineural_net
Weight
p1457
(dp1458
g127
F-0.2675869469724674
sba(ineural_net
Weight
p1459
(dp1460
g127
F-0.12827588818047647
sba(ineural_net
Weight
p1461
(dp1462
g127
F-0.32329408766193096
sbag1449
ag1422
ag1391
ag1356
ag1317
ag1274
ag1227
ag1176
ag1121
ag1062
ag999
ag132
ag170
ag206
ag242
ag278
ag314
ag350
ag386
ag422
ag458
ag494
ag530
ag566
ag602
ag638
ag674
ag710
ag746
ag782
ag818
ag854
asg158
(ineural_net
Weight
p1463
(dp1464
g127
F-0.009003253428972308
sbsg919
F0.010932371640310004
sbag46
ag53
ag60
ag67
ag74
ag81
ag88
ag95
ag102
ag109
ag116
asg123
(lp1465
(ineural_net
Weight
p1466
(dp1467
g127
F-0.3092230876232354
sba(ineural_net
Weight
p1468
(dp1469
g127
F-0.27207155953588047
sba(ineural_net
Weight
p1470
(dp1471
g127
F-0.3023600114019904
sbag1461
ag1436
ag1407
ag1374
ag1337
ag1296
ag1251
ag1202
ag1149
ag1092
ag1031
ag966
asg156
(lp1472
sg158
Nsbag42
ag49
ag56
ag63
ag70
ag77
ag84
ag91
ag98
ag105
ag112
ag119
ag159
ag195
ag231
ag267
ag303
ag339
ag375
ag411
ag447
ag483
ag519
ag555
ag591
ag627
ag663
ag699
ag735
ag771
ag807
ag843
asg14
F-2.2909419808325113
sg879
F0.0015919994590106034
sg15
F0.09187592578426522
sg16
(lp1473
g881
ag920
asg123
(lp1474
g891
ag930
asg156
(lp1475
(ineural_net
Weight
p1476
(dp1477
g127
F-0.3023761077252345
sba(ineural_net
Weight
p1478
(dp1479
g127
F-0.24851184545163446
sba(ineural_net
Weight
p1480
(dp1481
g127
F-0.19604671406447105
sbag1470
ag1447
ag1420
ag1389
ag1354
ag1315
ag1272
ag1225
ag1174
ag1119
ag1060
ag997
ag130
ag168
ag204
ag240
ag276
ag312
ag348
ag384
ag420
ag456
ag492
ag528
ag564
ag600
ag636
ag672
ag708
ag744
ag780
ag816
ag852
asg158
(ineural_net
Weight
p1482
(dp1483
g127
F0.00881442834039427
sbsg919
F0.011053308802823394
sbag39
ag46
ag53
ag60
ag67
ag74
ag81
ag88
ag95
ag102
ag109
ag116
asg123
(lp1484
(ineural_net
Weight
p1485
(dp1486
g127
F-0.12156779083553591
sba(ineural_net
Weight
p1487
(dp1488
g127
F-0.01733598865848128
sbag1480
ag1459
ag1434
ag1405
ag1372
ag1335
ag1294
ag1249
ag1200
ag1147
ag1090
ag1029
ag964
asg156
(lp1489
sg158
Nsbag35
ag42
ag49
ag56
ag63
ag70
ag77
ag84
ag91
ag98
ag105
ag112
ag119
ag159
ag195
ag231
ag267
ag303
ag339
ag375
ag411
ag447
ag483
ag519
ag555
ag591
ag627
ag663
ag699
ag735
ag771
ag807
ag843
asg14
F-1.8215200773971547
sg879
F0.0023768240364415534
sg15
F0.13925157568132612
sg16
(lp1490
g881
ag920
asg123
(lp1491
g889
ag928
asg156
(lp1492
(ineural_net
Weight
p1493
(dp1494
g127
F-0.28847796093917694
sba(ineural_net
Weight
p1495
(dp1496
g127
F-0.2939907798891499
sbag1487
ag1468
ag1445
ag1418
ag1387
ag1352
ag1313
ag1270
ag1223
ag1172
ag1117
ag1058
ag995
ag128
ag166
ag202
ag238
ag274
ag310
ag346
ag382
ag418
ag454
ag490
ag526
ag562
ag598
ag634
ag670
ag706
ag742
ag778
ag814
ag850
asg158
(ineural_net
Weight
p1497
(dp1498
g127
F0.002826797964594433
sbsg919
F0.010286787982935482
sbag32
ag39
ag46
ag53
ag60
ag67
ag74
ag81
ag88
ag95
ag102
ag109
ag116
asg123
(lp1499
(ineural_net
Weight
p1500
(dp1501
g127
F-0.2859834600578489
sbag1495
ag1478
ag1457
ag1432
ag1403
ag1370
ag1333
ag1292
ag1247
ag1198
ag1145
ag1088
ag1027
ag962
asg156
(lp1502
sg158
Nsbag28
ag35
ag42
ag49
ag56
ag63
ag70
ag77
ag84
ag91
ag98
ag105
ag112
ag119
ag159
ag195
ag231
ag267
ag303
ag339
ag375
ag411
ag447
ag483
ag519
ag555
ag591
ag627
ag663
ag699
ag735
ag771
ag807
ag843
asg14
F-2.0362894141714176
sg879
F0.0019464329634887908
sg15
F0.11544510757546665
sg16
(lp1503
g881
ag920
asg123
(lp1504
g887
ag926
asg156
(lp1505
(ineural_net
Weight
p1506
(dp1507
g127
F-0.29185672340332164
sbag1500
ag1485
ag1466
ag1443
ag1416
ag1385
ag1350
ag1311
ag1268
ag1221
ag1170
ag1115
ag1056
ag993
ag125
ag164
ag200
ag236
ag272
ag308
ag344
ag380
ag416
ag452
ag488
ag524
ag560
ag596
ag632
ag668
ag704
ag740
ag776
ag812
ag848
asg158
(ineural_net
Weight
p1508
(dp1509
g127
F-0.005377282771746557
sbsg919
F0.010707493502439044
sbag25
ag32
ag39
ag46
ag53
ag60
ag67
ag74
ag81
ag88
ag95
ag102
ag109
ag116
asg123
(lp1510
g1506
ag1493
ag1476
ag1455
ag1430
ag1401
ag1368
ag1331
ag1290
ag1245
ag1196
ag1143
ag1086
ag1025
ag960
asg156
(lp1511
sg158
Nsbag21
ag28
ag35
ag42
ag49
ag56
ag63
ag70
ag77
ag84
ag91
ag98
ag105
ag112
ag119
ag159
ag195
ag231
ag267
ag303
ag339
ag375
ag411
ag447
ag483
ag519
ag555
ag591
ag627
ag663
ag699
ag735
ag771
ag807
ag843
asS'complete'
p1512
I01
sS'outputs'
p1513
(lp1514
g881
ag920
asS'node_set'
p1515
(dp1516
g109
I01
sg267
I01
sg627
I01
sg77
I01
sg735
I01
sg303
I01
sg63
I01
sg11
I01
sg84
I01
sg881
I01
sg39
I01
sg339
I01
sg699
I01
sg21
I01
sg807
I01
sg81
I01
sg88
I01
sg375
I01
sg28
I01
sg98
I01
sg25
I01
sg74
I01
sg53
I01
sg32
I01
sg67
I01
sg411
I01
sg771
I01
sg18
I01
sg105
I01
sg46
I01
sg447
I01
sg42
I01
sg112
I01
sg116
I01
sg920
I01
sg483
I01
sg91
I01
sg49
I01
sg60
I01
sg102
I01
sg519
I01
sg56
I01
sg159
I01
sg35
I01
sg555
I01
sg195
I01
sg95
I01
sg843
I01
sg591
I01
sg663
I01
sg70
I01
sg231
I01
sg119
I01
ssg156
(lp1517
g1506
ag1508
ag1500
ag1485
ag1466
ag1443
ag1416
ag1385
ag1350
ag1311
ag1268
ag1221
ag1170
ag1115
ag1056
ag993
ag125
ag164
ag200
ag236
ag272
ag308
ag344
ag380
ag416
ag452
ag488
ag524
ag560
ag596
ag632
ag668
ag704
ag740
ag776
ag812
ag848
ag1493
ag1497
ag1495
ag1487
ag1468
ag1445
ag1418
ag1387
ag1352
ag1313
ag1270
ag1223
ag1172
ag1117
ag1058
ag995
ag128
ag166
ag202
ag238
ag274
ag310
ag346
ag382
ag418
ag454
ag490
ag526
ag562
ag598
ag634
ag670
ag706
ag742
ag778
ag814
ag850
ag1476
ag1482
ag1478
ag1480
ag1470
ag1447
ag1420
ag1389
ag1354
ag1315
ag1272
ag1225
ag1174
ag1119
ag1060
ag997
ag130
ag168
ag204
ag240
ag276
ag312
ag348
ag384
ag420
ag456
ag492
ag528
ag564
ag600
ag636
ag672
ag708
ag744
ag780
ag816
ag852
ag1455
ag1463
ag1457
ag1459
ag1461
ag1449
ag1422
ag1391
ag1356
ag1317
ag1274
ag1227
ag1176
ag1121
ag1062
ag999
ag132
ag170
ag206
ag242
ag278
ag314
ag350
ag386
ag422
ag458
ag494
ag530
ag566
ag602
ag638
ag674
ag710
ag746
ag782
ag818
ag854
ag1430
ag1440
ag1432
ag1434
ag1436
ag1438
ag1424
ag1393
ag1358
ag1319
ag1276
ag1229
ag1178
ag1123
ag1064
ag1001
ag134
ag172
ag208
ag244
ag280
ag316
ag352
ag388
ag424
ag460
ag496
ag532
ag568
ag604
ag640
ag676
ag712
ag748
ag784
ag820
ag856
ag1401
ag1413
ag1403
ag1405
ag1407
ag1409
ag1411
ag1395
ag1360
ag1321
ag1278
ag1231
ag1180
ag1125
ag1066
ag1003
ag136
ag174
ag210
ag246
ag282
ag318
ag354
ag390
ag426
ag462
ag498
ag534
ag570
ag606
ag642
ag678
ag714
ag750
ag786
ag822
ag858
ag1368
ag1382
ag1370
ag1372
ag1374
ag1376
ag1378
ag1380
ag1362
ag1323
ag1280
ag1233
ag1182
ag1127
ag1068
ag1005
ag138
ag176
ag212
ag248
ag284
ag320
ag356
ag392
ag428
ag464
ag500
ag536
ag572
ag608
ag644
ag680
ag716
ag752
ag788
ag824
ag860
ag1331
ag1347
ag1333
ag1335
ag1337
ag1339
ag1341
ag1343
ag1345
ag1325
ag1282
ag1235
ag1184
ag1129
ag1070
ag1007
ag140
ag178
ag214
ag250
ag286
ag322
ag358
ag394
ag430
ag466
ag502
ag538
ag574
ag610
ag646
ag682
ag718
ag754
ag790
ag826
ag862
ag1290
ag1308
ag1292
ag1294
ag1296
ag1298
ag1300
ag1302
ag1304
ag1306
ag1284
ag1237
ag1186
ag1131
ag1072
ag1009
ag142
ag180
ag216
ag252
ag288
ag324
ag360
ag396
ag432
ag468
ag504
ag540
ag576
ag612
ag648
ag684
ag720
ag756
ag792
ag828
ag864
ag1245
ag1265
ag1247
ag1249
ag1251
ag1253
ag1255
ag1257
ag1259
ag1261
ag1263
ag1239
ag1188
ag1133
ag1074
ag1011
ag144
ag182
ag218
ag254
ag290
ag326
ag362
ag398
ag434
ag470
ag506
ag542
ag578
ag614
ag650
ag686
ag722
ag758
ag794
ag830
ag866
ag1196
ag1218
ag1198
ag1200
ag1202
ag1204
ag1206
ag1208
ag1210
ag1212
ag1214
ag1216
ag1190
ag1135
ag1076
ag1013
ag146
ag184
ag220
ag256
ag292
ag328
ag364
ag400
ag436
ag472
ag508
ag544
ag580
ag616
ag652
ag688
ag724
ag760
ag796
ag832
ag868
ag1143
ag1167
ag1145
ag1147
ag1149
ag1151
ag1153
ag1155
ag1157
ag1159
ag1161
ag1163
ag1165
ag1137
ag1078
ag1015
ag148
ag186
ag222
ag258
ag294
ag330
ag366
ag402
ag438
ag474
ag510
ag546
ag582
ag618
ag654
ag690
ag726
ag762
ag798
ag834
ag870
ag1086
ag1112
ag1088
ag1090
ag1092
ag1094
ag1096
ag1098
ag1100
ag1102
ag1104
ag1106
ag1108
ag1110
ag1080
ag1017
ag150
ag188
ag224
ag260
ag296
ag332
ag368
ag404
ag440
ag476
ag512
ag548
ag584
ag620
ag656
ag692
ag728
ag764
ag800
ag836
ag872
ag1025
ag1053
ag1027
ag1029
ag1031
ag1033
ag1035
ag1037
ag1039
ag1041
ag1043
ag1045
ag1047
ag1049
ag1051
ag1019
ag152
ag190
ag226
ag262
ag298
ag334
ag370
ag406
ag442
ag478
ag514
ag550
ag586
ag622
ag658
ag694
ag730
ag766
ag802
ag838
ag874
ag960
ag990
ag962
ag964
ag966
ag968
ag970
ag972
ag974
ag976
ag978
ag980
ag982
ag984
ag986
ag988
ag154
ag192
ag228
ag264
ag300
ag336
ag372
ag408
ag444
ag480
ag516
ag552
ag588
ag624
ag660
ag696
ag732
ag768
ag804
ag840
ag876
ag887
ag917
ag889
ag891
ag893
ag895
ag897
ag899
ag901
ag903
ag905
ag907
ag909
ag911
ag913
ag915
ag926
ag956
ag928
ag930
ag932
ag934
ag936
ag938
ag940
ag942
ag944
ag946
ag948
ag950
ag952
ag954
asS'hidden_nodes'
p1518
(lp1519
g18
ag25
ag32
ag39
ag46
ag53
ag60
ag67
ag74
ag81
ag88
ag95
ag102
ag109
ag116
asbsS'FeedForwardFn'
p1520
cneural_net_impl
FeedForward
p1521
sS'TrainFn'
p1522
cneural_net_impl
Train
p1523
sb.