ccopy_reg
_reconstructor
p0
(cneural_net_impl
HiddenNetwork
p1
c__builtin__
object
p2
Ntp3
Rp4
(dp5
S'network'
p6
(ineural_net
NeuralNetwork
p7
(dp8
S'inputs'
p9
(lp10
(ineural_net
Node
p11
(dp12
g9
(lp13
sS'raw_value'
p14
I0
sS'transformed_value'
p15
I0
sS'forward_neighbors'
p16
(lp17
(ineural_net
Node
p18
(dp19
g9
(lp20
g11
a(ineural_net
Node
p21
(dp22
g9
(lp23
sg14
I1
sg15
I1
sg16
(lp24
g18
a(ineural_net
Node
p25
(dp26
g9
(lp27
g11
ag21
a(ineural_net
Node
p28
(dp29
g9
(lp30
sg14
I1
sg15
I1
sg16
(lp31
g18
ag25
a(ineural_net
Node
p32
(dp33
g9
(lp34
g11
ag21
ag28
a(ineural_net
Node
p35
(dp36
g9
(lp37
sg14
I1
sg15
I1
sg16
(lp38
g18
ag25
ag32
a(ineural_net
Node
p39
(dp40
g9
(lp41
g11
ag21
ag28
ag35
a(ineural_net
Node
p42
(dp43
g9
(lp44
sg14
I0
sg15
I0
sg16
(lp45
g18
ag25
ag32
ag39
a(ineural_net
Node
p46
(dp47
g9
(lp48
g11
ag21
ag28
ag35
ag42
a(ineural_net
Node
p49
(dp50
g9
(lp51
sg14
I0
sg15
I0
sg16
(lp52
g18
ag25
ag32
ag39
ag46
a(ineural_net
Node
p53
(dp54
g9
(lp55
g11
ag21
ag28
ag35
ag42
ag49
a(ineural_net
Node
p56
(dp57
g9
(lp58
sg14
I1
sg15
I1
sg16
(lp59
g18
ag25
ag32
ag39
ag46
ag53
a(ineural_net
Node
p60
(dp61
g9
(lp62
g11
ag21
ag28
ag35
ag42
ag49
ag56
a(ineural_net
Node
p63
(dp64
g9
(lp65
sg14
I1
sg15
I1
sg16
(lp66
g18
ag25
ag32
ag39
ag46
ag53
ag60
a(ineural_net
Node
p67
(dp68
g9
(lp69
g11
ag21
ag28
ag35
ag42
ag49
ag56
ag63
a(ineural_net
Node
p70
(dp71
g9
(lp72
sg14
I0
sg15
I0
sg16
(lp73
g18
ag25
ag32
ag39
ag46
ag53
ag60
ag67
a(ineural_net
Node
p74
(dp75
g9
(lp76
g11
ag21
ag28
ag35
ag42
ag49
ag56
ag63
ag70
a(ineural_net
Node
p77
(dp78
g9
(lp79
sg14
I1
sg15
I1
sg16
(lp80
g18
ag25
ag32
ag39
ag46
ag53
ag60
ag67
ag74
a(ineural_net
Node
p81
(dp82
g9
(lp83
g11
ag21
ag28
ag35
ag42
ag49
ag56
ag63
ag70
ag77
a(ineural_net
Node
p84
(dp85
g9
(lp86
sg14
I1
sg15
I1
sg16
(lp87
g18
ag25
ag32
ag39
ag46
ag53
ag60
ag67
ag74
ag81
a(ineural_net
Node
p88
(dp89
g9
(lp90
g11
ag21
ag28
ag35
ag42
ag49
ag56
ag63
ag70
ag77
ag84
a(ineural_net
Node
p91
(dp92
g9
(lp93
sg14
I1
sg15
I1
sg16
(lp94
g18
ag25
ag32
ag39
ag46
ag53
ag60
ag67
ag74
ag81
ag88
a(ineural_net
Node
p95
(dp96
g9
(lp97
g11
ag21
ag28
ag35
ag42
ag49
ag56
ag63
ag70
ag77
ag84
ag91
a(ineural_net
Node
p98
(dp99
g9
(lp100
sg14
I0
sg15
I0
sg16
(lp101
g18
ag25
ag32
ag39
ag46
ag53
ag60
ag67
ag74
ag81
ag88
ag95
a(ineural_net
Node
p102
(dp103
g9
(lp104
g11
ag21
ag28
ag35
ag42
ag49
ag56
ag63
ag70
ag77
ag84
ag91
ag98
a(ineural_net
Node
p105
(dp106
g9
(lp107
sg14
I1
sg15
I1
sg16
(lp108
g18
ag25
ag32
ag39
ag46
ag53
ag60
ag67
ag74
ag81
ag88
ag95
ag102
a(ineural_net
Node
p109
(dp110
g9
(lp111
g11
ag21
ag28
ag35
ag42
ag49
ag56
ag63
ag70
ag77
ag84
ag91
ag98
ag105
a(ineural_net
Node
p112
(dp113
g9
(lp114
sg14
I1
sg15
I1
sg16
(lp115
g18
ag25
ag32
ag39
ag46
ag53
ag60
ag67
ag74
ag81
ag88
ag95
ag102
ag109
a(ineural_net
Node
p116
(dp117
g9
(lp118
g11
ag21
ag28
ag35
ag42
ag49
ag56
ag63
ag70
ag77
ag84
ag91
ag98
ag105
ag112
a(ineural_net
Node
p119
(dp120
g9
(lp121
sg14
I0
sg15
I0
sg16
(lp122
g18
ag25
ag32
ag39
ag46
ag53
ag60
ag67
ag74
ag81
ag88
ag95
ag102
ag109
ag116
asS'forward_weights'
p123
(lp124
(ineural_net
Weight
p125
(dp126
S'value'
p127
F-0.41609156033676237
sba(ineural_net
Weight
p128
(dp129
g127
F-0.3867881886079056
sba(ineural_net
Weight
p130
(dp131
g127
F-0.3764264126773343
sba(ineural_net
Weight
p132
(dp133
g127
F-0.2586739547835243
sba(ineural_net
Weight
p134
(dp135
g127
F-0.4644610620681422
sba(ineural_net
Weight
p136
(dp137
g127
F-0.21728512449256088
sba(ineural_net
Weight
p138
(dp139
g127
F-0.3244701655270198
sba(ineural_net
Weight
p140
(dp141
g127
F-0.3856695842156888
sba(ineural_net
Weight
p142
(dp143
g127
F-0.41469542980379803
sba(ineural_net
Weight
p144
(dp145
g127
F-0.42716631060074217
sba(ineural_net
Weight
p146
(dp147
g127
F-0.3976912216799574
sba(ineural_net
Weight
p148
(dp149
g127
F-1.0112228649652175
sba(ineural_net
Weight
p150
(dp151
g127
F-0.421985316721944
sba(ineural_net
Weight
p152
(dp153
g127
F-0.3392610483038946
sba(ineural_net
Weight
p154
(dp155
g127
F0.6324352365544994
sbasS'weights'
p156
(lp157
sS'fixed_weight'
p158
Nsba(ineural_net
Node
p159
(dp160
g9
(lp161
sg14
I1
sg15
I1
sg16
(lp162
g18
ag25
ag32
ag39
ag46
ag53
ag60
ag67
ag74
ag81
ag88
ag95
ag102
ag109
ag116
asg123
(lp163
(ineural_net
Weight
p164
(dp165
g127
F0.02655807626031583
sba(ineural_net
Weight
p166
(dp167
g127
F0.035063615680399264
sba(ineural_net
Weight
p168
(dp169
g127
F-0.011968819273278999
sba(ineural_net
Weight
p170
(dp171
g127
F-0.08157565899346797
sba(ineural_net
Weight
p172
(dp173
g127
F0.029934455813213662
sba(ineural_net
Weight
p174
(dp175
g127
F-0.08594436538109954
sba(ineural_net
Weight
p176
(dp177
g127
F0.019515570607266237
sba(ineural_net
Weight
p178
(dp179
g127
F-0.014913688011022979
sba(ineural_net
Weight
p180
(dp181
g127
F0.021143507844768657
sba(ineural_net
Weight
p182
(dp183
g127
F0.03643767848103253
sba(ineural_net
Weight
p184
(dp185
g127
F-0.0018537718857353557
sba(ineural_net
Weight
p186
(dp187
g127
F0.3156025891427572
sba(ineural_net
Weight
p188
(dp189
g127
F0.01867877460632182
sba(ineural_net
Weight
p190
(dp191
g127
F0.03227147191128754
sba(ineural_net
Weight
p192
(dp193
g127
F-0.15499779753387222
sbasg156
(lp194
sg158
Nsba(ineural_net
Node
p195
(dp196
g9
(lp197
sg14
I0
sg15
I0
sg16
(lp198
g18
ag25
ag32
ag39
ag46
ag53
ag60
ag67
ag74
ag81
ag88
ag95
ag102
ag109
ag116
asg123
(lp199
(ineural_net
Weight
p200
(dp201
g127
F0.09966114984821621
sba(ineural_net
Weight
p202
(dp203
g127
F0.10430693629452774
sba(ineural_net
Weight
p204
(dp205
g127
F0.2464188922125749
sba(ineural_net
Weight
p206
(dp207
g127
F0.37534297756042173
sba(ineural_net
Weight
p208
(dp209
g127
F1.0048151281071949
sba(ineural_net
Weight
p210
(dp211
g127
F0.3636107162759139
sba(ineural_net
Weight
p212
(dp213
g127
F0.016942888206504636
sba(ineural_net
Weight
p214
(dp215
g127
F0.18708311920559495
sba(ineural_net
Weight
p216
(dp217
g127
F0.13152414247085314
sba(ineural_net
Weight
p218
(dp219
g127
F0.07274998292711156
sba(ineural_net
Weight
p220
(dp221
g127
F0.13201961793191846
sba(ineural_net
Weight
p222
(dp223
g127
F1.8761653157582376
sba(ineural_net
Weight
p224
(dp225
g127
F0.12843729006313767
sba(ineural_net
Weight
p226
(dp227
g127
F0.026286211803041887
sba(ineural_net
Weight
p228
(dp229
g127
F-0.33077385296589135
sbasg156
(lp230
sg158
Nsba(ineural_net
Node
p231
(dp232
g9
(lp233
sg14
I1
sg15
I1
sg16
(lp234
g18
ag25
ag32
ag39
ag46
ag53
ag60
ag67
ag74
ag81
ag88
ag95
ag102
ag109
ag116
asg123
(lp235
(ineural_net
Weight
p236
(dp237
g127
F-0.29059589521195583
sba(ineural_net
Weight
p238
(dp239
g127
F-0.2759305336247201
sba(ineural_net
Weight
p240
(dp241
g127
F-0.2639409667211736
sba(ineural_net
Weight
p242
(dp243
g127
F-0.14962835177565006
sba(ineural_net
Weight
p244
(dp245
g127
F-0.3852722050103259
sba(ineural_net
Weight
p246
(dp247
g127
F-0.18882263687438883
sba(ineural_net
Weight
p248
(dp249
g127
F-0.22383544529921542
sba(ineural_net
Weight
p250
(dp251
g127
F-0.30178228874883095
sba(ineural_net
Weight
p252
(dp253
g127
F-0.30712242355615404
sba(ineural_net
Weight
p254
(dp255
g127
F-0.2801248466574939
sba(ineural_net
Weight
p256
(dp257
g127
F-0.2996992500257441
sba(ineural_net
Weight
p258
(dp259
g127
F-1.0592633496700758
sba(ineural_net
Weight
p260
(dp261
g127
F-0.3232877357978416
sba(ineural_net
Weight
p262
(dp263
g127
F-0.2627840735242587
sba(ineural_net
Weight
p264
(dp265
g127
F-0.11081230565567865
sbasg156
(lp266
sg158
Nsba(ineural_net
Node
p267
(dp268
g9
(lp269
sg14
I0
sg15
I0
sg16
(lp270
g18
ag25
ag32
ag39
ag46
ag53
ag60
ag67
ag74
ag81
ag88
ag95
ag102
ag109
ag116
asg123
(lp271
(ineural_net
Weight
p272
(dp273
g127
F0.38732174511609685
sba(ineural_net
Weight
p274
(dp275
g127
F0.38531869925551915
sba(ineural_net
Weight
p276
(dp277
g127
F0.5171222902126916
sba(ineural_net
Weight
p278
(dp279
g127
F0.6755559761649987
sba(ineural_net
Weight
p280
(dp281
g127
F0.8675393767782139
sba(ineural_net
Weight
p282
(dp283
g127
F0.6339526705306489
sba(ineural_net
Weight
p284
(dp285
g127
F0.2712500179071348
sba(ineural_net
Weight
p286
(dp287
g127
F0.5110247420380357
sba(ineural_net
Weight
p288
(dp289
g127
F0.3791858454382696
sba(ineural_net
Weight
p290
(dp291
g127
F0.3795947672188459
sba(ineural_net
Weight
p292
(dp293
g127
F0.428010588844257
sba(ineural_net
Weight
p294
(dp295
g127
F1.6512456369634567
sba(ineural_net
Weight
p296
(dp297
g127
F0.39670054914186786
sba(ineural_net
Weight
p298
(dp299
g127
F0.330811634689668
sba(ineural_net
Weight
p300
(dp301
g127
F0.24925912132098313
sbasg156
(lp302
sg158
Nsba(ineural_net
Node
p303
(dp304
g9
(lp305
sg14
I0
sg15
I0
sg16
(lp306
g18
ag25
ag32
ag39
ag46
ag53
ag60
ag67
ag74
ag81
ag88
ag95
ag102
ag109
ag116
asg123
(lp307
(ineural_net
Weight
p308
(dp309
g127
F0.20101064403202434
sba(ineural_net
Weight
p310
(dp311
g127
F0.1963967112375373
sba(ineural_net
Weight
p312
(dp313
g127
F0.409112987884954
sba(ineural_net
Weight
p314
(dp315
g127
F0.6754230763905846
sba(ineural_net
Weight
p316
(dp317
g127
F1.210206289739621
sba(ineural_net
Weight
p318
(dp319
g127
F0.6085004042330535
sba(ineural_net
Weight
p320
(dp321
g127
F0.11397134993183691
sba(ineural_net
Weight
p322
(dp323
g127
F0.3133568220364832
sba(ineural_net
Weight
p324
(dp325
g127
F0.2004585035229818
sba(ineural_net
Weight
p326
(dp327
g127
F0.17592682898986828
sba(ineural_net
Weight
p328
(dp329
g127
F0.22828989165788227
sba(ineural_net
Weight
p330
(dp331
g127
F1.7059581507198407
sba(ineural_net
Weight
p332
(dp333
g127
F0.21393439200325762
sba(ineural_net
Weight
p334
(dp335
g127
F0.13004295059464888
sba(ineural_net
Weight
p336
(dp337
g127
F-0.28158734271572383
sbasg156
(lp338
sg158
Nsba(ineural_net
Node
p339
(dp340
g9
(lp341
sg14
I0
sg15
I0
sg16
(lp342
g18
ag25
ag32
ag39
ag46
ag53
ag60
ag67
ag74
ag81
ag88
ag95
ag102
ag109
ag116
asg123
(lp343
(ineural_net
Weight
p344
(dp345
g127
F-0.22844768930635165
sba(ineural_net
Weight
p346
(dp347
g127
F-0.22387065380574267
sba(ineural_net
Weight
p348
(dp349
g127
F-0.2779440237531057
sba(ineural_net
Weight
p350
(dp351
g127
F-0.3036235544249232
sba(ineural_net
Weight
p352
(dp353
g127
F-0.09059328233811281
sba(ineural_net
Weight
p354
(dp355
g127
F-0.2968702843906947
sba(ineural_net
Weight
p356
(dp357
g127
F-0.2205332799969976
sba(ineural_net
Weight
p358
(dp359
g127
F-0.257528767722348
sba(ineural_net
Weight
p360
(dp361
g127
F-0.23431499188131844
sba(ineural_net
Weight
p362
(dp363
g127
F-0.2329629581683998
sba(ineural_net
Weight
p364
(dp365
g127
F-0.21972699242043553
sba(ineural_net
Weight
p366
(dp367
g127
F0.015979168228953806
sba(ineural_net
Weight
p368
(dp369
g127
F-0.24251838521890332
sba(ineural_net
Weight
p370
(dp371
g127
F-0.23965106856706098
sba(ineural_net
Weight
p372
(dp373
g127
F0.2512805873980275
sbasg156
(lp374
sg158
Nsba(ineural_net
Node
p375
(dp376
g9
(lp377
sg14
I0
sg15
I0
sg16
(lp378
g18
ag25
ag32
ag39
ag46
ag53
ag60
ag67
ag74
ag81
ag88
ag95
ag102
ag109
ag116
asg123
(lp379
(ineural_net
Weight
p380
(dp381
g127
F0.32341685939119413
sba(ineural_net
Weight
p382
(dp383
g127
F0.29628940583599733
sba(ineural_net
Weight
p384
(dp385
g127
F0.5440385641361247
sba(ineural_net
Weight
p386
(dp387
g127
F0.736918545352428
sba(ineural_net
Weight
p388
(dp389
g127
F1.089568532980418
sba(ineural_net
Weight
p390
(dp391
g127
F0.72301008905265
sba(ineural_net
Weight
p392
(dp393
g127
F0.16482250905420429
sba(ineural_net
Weight
p394
(dp395
g127
F0.4695247140722058
sba(ineural_net
Weight
p396
(dp397
g127
F0.34630555837688726
sba(ineural_net
Weight
p398
(dp399
g127
F0.28371371099528797
sba(ineural_net
Weight
p400
(dp401
g127
F0.341836033436444
sba(ineural_net
Weight
p402
(dp403
g127
F1.4738715821098243
sba(ineural_net
Weight
p404
(dp405
g127
F0.3680500480745427
sba(ineural_net
Weight
p406
(dp407
g127
F0.21316698089542804
sba(ineural_net
Weight
p408
(dp409
g127
F0.12021676906198228
sbasg156
(lp410
sg158
Nsba(ineural_net
Node
p411
(dp412
g9
(lp413
sg14
I1
sg15
I1
sg16
(lp414
g18
ag25
ag32
ag39
ag46
ag53
ag60
ag67
ag74
ag81
ag88
ag95
ag102
ag109
ag116
asg123
(lp415
(ineural_net
Weight
p416
(dp417
g127
F0.21901112940582082
sba(ineural_net
Weight
p418
(dp419
g127
F0.2350882362518005
sba(ineural_net
Weight
p420
(dp421
g127
F0.5402614610767411
sba(ineural_net
Weight
p422
(dp423
g127
F0.8272257724828337
sba(ineural_net
Weight
p424
(dp425
g127
F0.8139509933667058
sba(ineural_net
Weight
p426
(dp427
g127
F0.8102922771737812
sba(ineural_net
Weight
p428
(dp429
g127
F0.0710633762319577
sba(ineural_net
Weight
p430
(dp431
g127
F0.46967294057838105
sba(ineural_net
Weight
p432
(dp433
g127
F0.27711932298575004
sba(ineural_net
Weight
p434
(dp435
g127
F0.20889435683527882
sba(ineural_net
Weight
p436
(dp437
g127
F0.3058607227006814
sba(ineural_net
Weight
p438
(dp439
g127
F1.0696943474136973
sba(ineural_net
Weight
p440
(dp441
g127
F0.2731682012322499
sba(ineural_net
Weight
p442
(dp443
g127
F0.10640030803976516
sba(ineural_net
Weight
p444
(dp445
g127
F-0.19560448179532314
sbasg156
(lp446
sg158
Nsba(ineural_net
Node
p447
(dp448
g9
(lp449
sg14
I0
sg15
I0
sg16
(lp450
g18
ag25
ag32
ag39
ag46
ag53
ag60
ag67
ag74
ag81
ag88
ag95
ag102
ag109
ag116
asg123
(lp451
(ineural_net
Weight
p452
(dp453
g127
F-0.05462541687686919
sba(ineural_net
Weight
p454
(dp455
g127
F-0.05944420987528227
sba(ineural_net
Weight
p456
(dp457
g127
F-0.18174020052637457
sba(ineural_net
Weight
p458
(dp459
g127
F-0.3838043849000425
sba(ineural_net
Weight
p460
(dp461
g127
F-0.13661601125147563
sba(ineural_net
Weight
p462
(dp463
g127
F-0.3175175714413461
sba(ineural_net
Weight
p464
(dp465
g127
F-0.04467634991339998
sba(ineural_net
Weight
p466
(dp467
g127
F-0.10125559397810611
sba(ineural_net
Weight
p468
(dp469
g127
F-0.040910302425659906
sba(ineural_net
Weight
p470
(dp471
g127
F-0.046739837001365914
sba(ineural_net
Weight
p472
(dp473
g127
F-0.06038367015767247
sba(ineural_net
Weight
p474
(dp475
g127
F0.9213198266613737
sba(ineural_net
Weight
p476
(dp477
g127
F-0.015131894303185971
sba(ineural_net
Weight
p478
(dp479
g127
F-0.04426138560661214
sba(ineural_net
Weight
p480
(dp481
g127
F-0.23315150336801685
sbasg156
(lp482
sg158
Nsba(ineural_net
Node
p483
(dp484
g9
(lp485
sg14
I1
sg15
I1
sg16
(lp486
g18
ag25
ag32
ag39
ag46
ag53
ag60
ag67
ag74
ag81
ag88
ag95
ag102
ag109
ag116
asg123
(lp487
(ineural_net
Weight
p488
(dp489
g127
F0.04597540132508782
sba(ineural_net
Weight
p490
(dp491
g127
F0.04290837719781903
sba(ineural_net
Weight
p492
(dp493
g127
F0.03989397832444593
sba(ineural_net
Weight
p494
(dp495
g127
F-0.02186599133774827
sba(ineural_net
Weight
p496
(dp497
g127
F0.030449395599809914
sba(ineural_net
Weight
p498
(dp499
g127
F-0.07608316297791823
sba(ineural_net
Weight
p500
(dp501
g127
F-0.01302869089367225
sba(ineural_net
Weight
p502
(dp503
g127
F-0.018206314528395193
sba(ineural_net
Weight
p504
(dp505
g127
F0.044513763809466075
sba(ineural_net
Weight
p506
(dp507
g127
F0.021860518586505954
sba(ineural_net
Weight
p508
(dp509
g127
F0.005951482915037444
sba(ineural_net
Weight
p510
(dp511
g127
F0.24424809184282348
sba(ineural_net
Weight
p512
(dp513
g127
F0.010078033405109828
sba(ineural_net
Weight
p514
(dp515
g127
F0.005760391093996514
sba(ineural_net
Weight
p516
(dp517
g127
F-0.6487464261572139
sbasg156
(lp518
sg158
Nsba(ineural_net
Node
p519
(dp520
g9
(lp521
sg14
I1
sg15
I1
sg16
(lp522
g18
ag25
ag32
ag39
ag46
ag53
ag60
ag67
ag74
ag81
ag88
ag95
ag102
ag109
ag116
asg123
(lp523
(ineural_net
Weight
p524
(dp525
g127
F-0.12993439745435187
sba(ineural_net
Weight
p526
(dp527
g127
F-0.12745758478195748
sba(ineural_net
Weight
p528
(dp529
g127
F-0.15008602016815323
sba(ineural_net
Weight
p530
(dp531
g127
F-0.13069686275501435
sba(ineural_net
Weight
p532
(dp533
g127
F0.20790821936826054
sba(ineural_net
Weight
p534
(dp535
g127
F-0.16202775831172564
sba(ineural_net
Weight
p536
(dp537
g127
F-0.11380185089283334
sba(ineural_net
Weight
p538
(dp539
g127
F-0.19295774011905023
sba(ineural_net
Weight
p540
(dp541
g127
F-0.15661820670864812
sba(ineural_net
Weight
p542
(dp543
g127
F-0.14412380442496903
sba(ineural_net
Weight
p544
(dp545
g127
F-0.1656727470269616
sba(ineural_net
Weight
p546
(dp547
g127
F0.2009388961062503
sba(ineural_net
Weight
p548
(dp549
g127
F-0.15190898199535138
sba(ineural_net
Weight
p550
(dp551
g127
F-0.11112676901133799
sba(ineural_net
Weight
p552
(dp553
g127
F0.05813199107684506
sbasg156
(lp554
sg158
Nsba(ineural_net
Node
p555
(dp556
g9
(lp557
sg14
I1
sg15
I1
sg16
(lp558
g18
ag25
ag32
ag39
ag46
ag53
ag60
ag67
ag74
ag81
ag88
ag95
ag102
ag109
ag116
asg123
(lp559
(ineural_net
Weight
p560
(dp561
g127
F-0.07856768221836495
sba(ineural_net
Weight
p562
(dp563
g127
F-0.05246271329825364
sba(ineural_net
Weight
p564
(dp565
g127
F-0.12112282732126346
sba(ineural_net
Weight
p566
(dp567
g127
F-0.17675591727625367
sba(ineural_net
Weight
p568
(dp569
g127
F-0.0825872518622197
sba(ineural_net
Weight
p570
(dp571
g127
F-0.09982696742636774
sba(ineural_net
Weight
p572
(dp573
g127
F-0.07266019928374318
sba(ineural_net
Weight
p574
(dp575
g127
F-0.03645228491512
sba(ineural_net
Weight
p576
(dp577
g127
F-0.04482518764648599
sba(ineural_net
Weight
p578
(dp579
g127
F-0.06659738874624195
sba(ineural_net
Weight
p580
(dp581
g127
F-0.037446303786384735
sba(ineural_net
Weight
p582
(dp583
g127
F0.1477357993355589
sba(ineural_net
Weight
p584
(dp585
g127
F-0.0509360239875847
sba(ineural_net
Weight
p586
(dp587
g127
F-0.07170425163072744
sba(ineural_net
Weight
p588
(dp589
g127
F0.1679847619235795
sbasg156
(lp590
sg158
Nsba(ineural_net
Node
p591
(dp592
g9
(lp593
sg14
I1
sg15
I1
sg16
(lp594
g18
ag25
ag32
ag39
ag46
ag53
ag60
ag67
ag74
ag81
ag88
ag95
ag102
ag109
ag116
asg123
(lp595
(ineural_net
Weight
p596
(dp597
g127
F0.019708698695561473
sba(ineural_net
Weight
p598
(dp599
g127
F0.009560392317870007
sba(ineural_net
Weight
p600
(dp601
g127
F-0.12291263822928154
sba(ineural_net
Weight
p602
(dp603
g127
F-0.24170175353229925
sba(ineural_net
Weight
p604
(dp605
g127
F-0.35108269522662
sba(ineural_net
Weight
p606
(dp607
g127
F-0.1953915793021066
sba(ineural_net
Weight
p608
(dp609
g127
F0.02812952945093501
sba(ineural_net
Weight
p610
(dp611
g127
F-0.009711054815933052
sba(ineural_net
Weight
p612
(dp613
g127
F0.02337524730464835
sba(ineural_net
Weight
p614
(dp615
g127
F0.03811182464516123
sba(ineural_net
Weight
p616
(dp617
g127
F0.016434319779004603
sba(ineural_net
Weight
p618
(dp619
g127
F0.2768584501298669
sba(ineural_net
Weight
p620
(dp621
g127
F0.011334571733330504
sba(ineural_net
Weight
p622
(dp623
g127
F0.03859194697802812
sba(ineural_net
Weight
p624
(dp625
g127
F0.6034375787325579
sbasg156
(lp626
sg158
Nsba(ineural_net
Node
p627
(dp628
g9
(lp629
sg14
I1
sg15
I1
sg16
(lp630
g18
ag25
ag32
ag39
ag46
ag53
ag60
ag67
ag74
ag81
ag88
ag95
ag102
ag109
ag116
asg123
(lp631
(ineural_net
Weight
p632
(dp633
g127
F0.014149559683076048
sba(ineural_net
Weight
p634
(dp635
g127
F0.008729568211609667
sba(ineural_net
Weight
p636
(dp637
g127
F-0.10910640812204997
sba(ineural_net
Weight
p638
(dp639
g127
F-0.2467148424390256
sba(ineural_net
Weight
p640
(dp641
g127
F-0.281717276755772
sba(ineural_net
Weight
p642
(dp643
g127
F-0.1668452434244442
sba(ineural_net
Weight
p644
(dp645
g127
F0.007495491831712251
sba(ineural_net
Weight
p646
(dp647
g127
F-0.002305149709630753
sba(ineural_net
Weight
p648
(dp649
g127
F0.027988877789996057
sba(ineural_net
Weight
p650
(dp651
g127
F0.01929611805233604
sba(ineural_net
Weight
p652
(dp653
g127
F0.04095837718532169
sba(ineural_net
Weight
p654
(dp655
g127
F0.4538560312400317
sba(ineural_net
Weight
p656
(dp657
g127
F0.035025556425952294
sba(ineural_net
Weight
p658
(dp659
g127
F-0.0003051267446905186
sba(ineural_net
Weight
p660
(dp661
g127
F-0.2817430289245716
sbasg156
(lp662
sg158
Nsba(ineural_net
Node
p663
(dp664
g9
(lp665
sg14
I0
sg15
I0
sg16
(lp666
g18
ag25
ag32
ag39
ag46
ag53
ag60
ag67
ag74
ag81
ag88
ag95
ag102
ag109
ag116
asg123
(lp667
(ineural_net
Weight
p668
(dp669
g127
F-0.29037040266501607
sba(ineural_net
Weight
p670
(dp671
g127
F-0.29758185120026703
sba(ineural_net
Weight
p672
(dp673
g127
F-0.292413750203528
sba(ineural_net
Weight
p674
(dp675
g127
F-0.30233940693633743
sba(ineural_net
Weight
p676
(dp677
g127
F-0.5209358209261082
sba(ineural_net
Weight
p678
(dp679
g127
F-0.2449703256311672
sba(ineural_net
Weight
p680
(dp681
g127
F-0.22637403649936857
sba(ineural_net
Weight
p682
(dp683
g127
F-0.2773247829091231
sba(ineural_net
Weight
p684
(dp685
g127
F-0.278013428526222
sba(ineural_net
Weight
p686
(dp687
g127
F-0.2943889350358265
sba(ineural_net
Weight
p688
(dp689
g127
F-0.28998992375318533
sba(ineural_net
Weight
p690
(dp691
g127
F-0.9498997553443624
sba(ineural_net
Weight
p692
(dp693
g127
F-0.2535854692157397
sba(ineural_net
Weight
p694
(dp695
g127
F-0.24630024249090962
sba(ineural_net
Weight
p696
(dp697
g127
F0.8598194702189341
sbasg156
(lp698
sg158
Nsba(ineural_net
Node
p699
(dp700
g9
(lp701
sg14
I0
sg15
I0
sg16
(lp702
g18
ag25
ag32
ag39
ag46
ag53
ag60
ag67
ag74
ag81
ag88
ag95
ag102
ag109
ag116
asg123
(lp703
(ineural_net
Weight
p704
(dp705
g127
F-0.09383263223435699
sba(ineural_net
Weight
p706
(dp707
g127
F-0.10975694351118975
sba(ineural_net
Weight
p708
(dp709
g127
F0.0171514665774244
sba(ineural_net
Weight
p710
(dp711
g127
F0.1516822875608232
sba(ineural_net
Weight
p712
(dp713
g127
F0.42939196807088764
sba(ineural_net
Weight
p714
(dp715
g127
F0.09964790913429017
sba(ineural_net
Weight
p716
(dp717
g127
F-0.09741527239987316
sba(ineural_net
Weight
p718
(dp719
g127
F-0.07089696612557435
sba(ineural_net
Weight
p720
(dp721
g127
F-0.11087100921862869
sba(ineural_net
Weight
p722
(dp723
g127
F-0.11835372264720806
sba(ineural_net
Weight
p724
(dp725
g127
F-0.10816826898128257
sba(ineural_net
Weight
p726
(dp727
g127
F0.6306171424550027
sba(ineural_net
Weight
p728
(dp729
g127
F-0.10222168124812744
sba(ineural_net
Weight
p730
(dp731
g127
F-0.10230650942504455
sba(ineural_net
Weight
p732
(dp733
g127
F0.3072461845730702
sbasg156
(lp734
sg158
Nsba(ineural_net
Node
p735
(dp736
g9
(lp737
sg14
I0
sg15
I0
sg16
(lp738
g18
ag25
ag32
ag39
ag46
ag53
ag60
ag67
ag74
ag81
ag88
ag95
ag102
ag109
ag116
asg123
(lp739
(ineural_net
Weight
p740
(dp741
g127
F0.13952709691065052
sba(ineural_net
Weight
p742
(dp743
g127
F0.12328868873153975
sba(ineural_net
Weight
p744
(dp745
g127
F0.32127004398149733
sba(ineural_net
Weight
p746
(dp747
g127
F0.4555542778269238
sba(ineural_net
Weight
p748
(dp749
g127
F0.630693146848402
sba(ineural_net
Weight
p750
(dp751
g127
F0.4003093759442397
sba(ineural_net
Weight
p752
(dp753
g127
F0.046720642702734703
sba(ineural_net
Weight
p754
(dp755
g127
F0.243343128812819
sba(ineural_net
Weight
p756
(dp757
g127
F0.1556623824109449
sba(ineural_net
Weight
p758
(dp759
g127
F0.12406772214735806
sba(ineural_net
Weight
p760
(dp761
g127
F0.1488698308383058
sba(ineural_net
Weight
p762
(dp763
g127
F0.7699193960516812
sba(ineural_net
Weight
p764
(dp765
g127
F0.16130188174059093
sba(ineural_net
Weight
p766
(dp767
g127
F0.06658452071587746
sba(ineural_net
Weight
p768
(dp769
g127
F-0.5667603457727803
sbasg156
(lp770
sg158
Nsba(ineural_net
Node
p771
(dp772
g9
(lp773
sg14
I0
sg15
I0
sg16
(lp774
g18
ag25
ag32
ag39
ag46
ag53
ag60
ag67
ag74
ag81
ag88
ag95
ag102
ag109
ag116
asg123
(lp775
(ineural_net
Weight
p776
(dp777
g127
F-0.346198299200553
sba(ineural_net
Weight
p778
(dp779
g127
F-0.3452235945623464
sba(ineural_net
Weight
p780
(dp781
g127
F-0.22170652944875013
sba(ineural_net
Weight
p782
(dp783
g127
F-0.1171701721620642
sba(ineural_net
Weight
p784
(dp785
g127
F-0.3692301862021397
sba(ineural_net
Weight
p786
(dp787
g127
F-0.09999230613784796
sba(ineural_net
Weight
p788
(dp789
g127
F-0.3281658806227677
sba(ineural_net
Weight
p790
(dp791
g127
F-0.24670024723306494
sba(ineural_net
Weight
p792
(dp793
g127
F-0.328421872179386
sba(ineural_net
Weight
p794
(dp795
g127
F-0.33370745598925566
sba(ineural_net
Weight
p796
(dp797
g127
F-0.3246269155875669
sba(ineural_net
Weight
p798
(dp799
g127
F-0.9905898293533459
sba(ineural_net
Weight
p800
(dp801
g127
F-0.3142477814043555
sba(ineural_net
Weight
p802
(dp803
g127
F-0.32643964978936346
sba(ineural_net
Weight
p804
(dp805
g127
F0.807398440083431
sbasg156
(lp806
sg158
Nsba(ineural_net
Node
p807
(dp808
g9
(lp809
sg14
I0
sg15
I0
sg16
(lp810
g18
ag25
ag32
ag39
ag46
ag53
ag60
ag67
ag74
ag81
ag88
ag95
ag102
ag109
ag116
asg123
(lp811
(ineural_net
Weight
p812
(dp813
g127
F0.03856549617246233
sba(ineural_net
Weight
p814
(dp815
g127
F0.03413115751388985
sba(ineural_net
Weight
p816
(dp817
g127
F0.07409604911047349
sba(ineural_net
Weight
p818
(dp819
g127
F0.024358218304765488
sba(ineural_net
Weight
p820
(dp821
g127
F-0.4564046146306468
sba(ineural_net
Weight
p822
(dp823
g127
F0.006490511971573735
sba(ineural_net
Weight
p824
(dp825
g127
F0.01684187505946324
sba(ineural_net
Weight
p826
(dp827
g127
F0.0732072704174658
sba(ineural_net
Weight
p828
(dp829
g127
F0.03490198948810194
sba(ineural_net
Weight
p830
(dp831
g127
F0.016258720000698845
sba(ineural_net
Weight
p832
(dp833
g127
F0.02506341991062189
sba(ineural_net
Weight
p834
(dp835
g127
F0.31912278804630173
sba(ineural_net
Weight
p836
(dp837
g127
F0.05029843588285632
sba(ineural_net
Weight
p838
(dp839
g127
F0.01500761374406189
sba(ineural_net
Weight
p840
(dp841
g127
F0.09680709706763801
sbasg156
(lp842
sg158
Nsba(ineural_net
Node
p843
(dp844
g9
(lp845
sg14
I0
sg15
I0
sg16
(lp846
g18
ag25
ag32
ag39
ag46
ag53
ag60
ag67
ag74
ag81
ag88
ag95
ag102
ag109
ag116
asg123
(lp847
(ineural_net
Weight
p848
(dp849
g127
F0.12616967735768536
sba(ineural_net
Weight
p850
(dp851
g127
F0.12174222531778006
sba(ineural_net
Weight
p852
(dp853
g127
F0.21737883019183468
sba(ineural_net
Weight
p854
(dp855
g127
F0.2991397713572142
sba(ineural_net
Weight
p856
(dp857
g127
F0.5450388014907894
sba(ineural_net
Weight
p858
(dp859
g127
F0.29273865809639643
sba(ineural_net
Weight
p860
(dp861
g127
F0.07497199223449738
sba(ineural_net
Weight
p862
(dp863
g127
F0.18649233840303683
sba(ineural_net
Weight
p864
(dp865
g127
F0.12984034987005907
sba(ineural_net
Weight
p866
(dp867
g127
F0.11828305057079523
sba(ineural_net
Weight
p868
(dp869
g127
F0.12440773333287408
sba(ineural_net
Weight
p870
(dp871
g127
F1.250359523784134
sba(ineural_net
Weight
p872
(dp873
g127
F0.1510533747679131
sba(ineural_net
Weight
p874
(dp875
g127
F0.09775362771948777
sba(ineural_net
Weight
p876
(dp877
g127
F-0.3064714717471921
sbasg156
(lp878
sg158
Nsbasg14
F1.0360248196087487
sS'delta'
p879
F-0.0015419960054872527
sg15
F0.7380822644079995
sg16
(lp880
(ineural_net
Node
p881
(dp882
g9
(lp883
g18
ag25
ag32
ag39
ag46
ag53
ag60
ag67
ag74
ag81
ag88
ag95
ag102
ag109
ag116
asg14
F0.4712056796987167
sg879
F0.008537274257157937
sg15
F0.6156690848779299
sg16
(lp884
sg123
(lp885
sg156
(lp886
(ineural_net
Weight
p887
(dp888
g127
F0.7555701877743115
sba(ineural_net
Weight
p889
(dp890
g127
F0.7433687300384788
sba(ineural_net
Weight
p891
(dp892
g127
F0.7281359399970909
sba(ineural_net
Weight
p893
(dp894
g127
F0.6989260198394842
sba(ineural_net
Weight
p895
(dp896
g127
F0.5580342610387916
sba(ineural_net
Weight
p897
(dp898
g127
F0.7012501059890973
sba(ineural_net
Weight
p899
(dp900
g127
F0.6912059436089814
sba(ineural_net
Weight
p901
(dp902
g127
F0.7472341146349523
sba(ineural_net
Weight
p903
(dp904
g127
F0.7515067193839791
sba(ineural_net
Weight
p905
(dp906
g127
F0.7499763422873434
sba(ineural_net
Weight
p907
(dp908
g127
F0.7559880489132802
sba(ineural_net
Weight
p909
(dp910
g127
F0.7181918105004339
sba(ineural_net
Weight
p911
(dp912
g127
F0.7408062114567603
sba(ineural_net
Weight
p913
(dp914
g127
F0.7233278576333209
sba(ineural_net
Weight
p915
(dp916
g127
F-1.0433063446340634
sbasg158
(ineural_net
Weight
p917
(dp918
g127
F0.008760662576148439
sbsS'error'
p919
F0.09724674769187269
sba(ineural_net
Node
p920
(dp921
g9
(lp922
g18
ag25
ag32
ag39
ag46
ag53
ag60
ag67
ag74
ag81
ag88
ag95
ag102
ag109
ag116
asg14
F-0.47067758079332533
sg879
F-0.008529461982607242
sg15
F0.38445588186574353
sg16
(lp923
sg123
(lp924
sg156
(lp925
(ineural_net
Weight
p926
(dp927
g127
F-0.7482415889375127
sba(ineural_net
Weight
p928
(dp929
g127
F-0.743778167271106
sba(ineural_net
Weight
p930
(dp931
g127
F-0.7210188250289004
sba(ineural_net
Weight
p932
(dp933
g127
F-0.7050714313541312
sba(ineural_net
Weight
p934
(dp935
g127
F-0.5538004204074929
sba(ineural_net
Weight
p936
(dp937
g127
F-0.7123450663087934
sba(ineural_net
Weight
p938
(dp939
g127
F-0.7044136383439212
sba(ineural_net
Weight
p940
(dp941
g127
F-0.7343325298363186
sba(ineural_net
Weight
p942
(dp943
g127
F-0.749838454719528
sba(ineural_net
Weight
p944
(dp945
g127
F-0.7435136277401696
sba(ineural_net
Weight
p946
(dp947
g127
F-0.7481347455738686
sba(ineural_net
Weight
p948
(dp949
g127
F-0.7189953980776344
sba(ineural_net
Weight
p950
(dp951
g127
F-0.7600716947903203
sba(ineural_net
Weight
p952
(dp953
g127
F-0.7187158129371605
sba(ineural_net
Weight
p954
(dp955
g127
F1.0421124914454185
sbasg158
(ineural_net
Weight
p956
(dp957
g127
F-0.007091590294569277
sbsg919
F-0.09719971112568523
sbasg123
(lp958
g915
ag954
asg156
(lp959
(ineural_net
Weight
p960
(dp961
g127
F-0.1792923768185961
sba(ineural_net
Weight
p962
(dp963
g127
F-0.016869978920377927
sba(ineural_net
Weight
p964
(dp965
g127
F0.288826658282548
sba(ineural_net
Weight
p966
(dp967
g127
F0.8250445560784653
sba(ineural_net
Weight
p968
(dp969
g127
F-0.17289326258387824
sba(ineural_net
Weight
p970
(dp971
g127
F0.17840741617280303
sba(ineural_net
Weight
p972
(dp973
g127
F-0.0521311766435424
sba(ineural_net
Weight
p974
(dp975
g127
F0.266926618791738
sba(ineural_net
Weight
p976
(dp977
g127
F0.2861900968621144
sba(ineural_net
Weight
p978
(dp979
g127
F0.06300395761694674
sba(ineural_net
Weight
p980
(dp981
g127
F-0.008861415615342682
sba(ineural_net
Weight
p982
(dp983
g127
F0.015924790209418317
sba(ineural_net
Weight
p984
(dp985
g127
F0.6900335627981575
sba(ineural_net
Weight
p986
(dp987
g127
F0.08044758419502408
sba(ineural_net
Weight
p988
(dp989
g127
F0.14338198488712553
sbag154
ag192
ag228
ag264
ag300
ag336
ag372
ag408
ag444
ag480
ag516
ag552
ag588
ag624
ag660
ag696
ag732
ag768
ag804
ag840
ag876
asg158
(ineural_net
Weight
p990
(dp991
g127
F-0.007319050939577805
sbsg919
F-0.017808820406319467
sbasg123
(lp992
(ineural_net
Weight
p993
(dp994
g127
F-0.3523166161633923
sba(ineural_net
Weight
p995
(dp996
g127
F-0.3356344662135274
sba(ineural_net
Weight
p997
(dp998
g127
F-0.2726176939000911
sba(ineural_net
Weight
p999
(dp1000
g127
F-0.10829022033278926
sba(ineural_net
Weight
p1001
(dp1002
g127
F0.14601404212168212
sba(ineural_net
Weight
p1003
(dp1004
g127
F-0.13379817037203834
sba(ineural_net
Weight
p1005
(dp1006
g127
F-0.3196838404445147
sba(ineural_net
Weight
p1007
(dp1008
g127
F-0.35942167466726693
sba(ineural_net
Weight
p1009
(dp1010
g127
F-0.3706032678208451
sba(ineural_net
Weight
p1011
(dp1012
g127
F-0.3503221514425113
sba(ineural_net
Weight
p1013
(dp1014
g127
F-0.3475182430834535
sba(ineural_net
Weight
p1015
(dp1016
g127
F-0.5417334687270821
sba(ineural_net
Weight
p1017
(dp1018
g127
F-0.3837235837077575
sba(ineural_net
Weight
p1019
(dp1020
g127
F-0.3128341810629307
sbag988
asg156
(lp1021
sg158
Nsbag119
ag159
ag195
ag231
ag267
ag303
ag339
ag375
ag411
ag447
ag483
ag519
ag555
ag591
ag627
ag663
ag699
ag735
ag771
ag807
ag843
asg14
F-2.574996887155907
sg879
F0.0014163627360424455
sg15
F0.07076501654818038
sg16
(lp1022
g881
ag920
asg123
(lp1023
g913
ag952
asg156
(lp1024
(ineural_net
Weight
p1025
(dp1026
g127
F-0.2752000069994983
sba(ineural_net
Weight
p1027
(dp1028
g127
F-0.12046250811815955
sba(ineural_net
Weight
p1029
(dp1030
g127
F-0.26865103343845764
sba(ineural_net
Weight
p1031
(dp1032
g127
F-0.2235187251577855
sba(ineural_net
Weight
p1033
(dp1034
g127
F0.12753905951630923
sba(ineural_net
Weight
p1035
(dp1036
g127
F0.1391353152694029
sba(ineural_net
Weight
p1037
(dp1038
g127
F-0.2706395399198365
sba(ineural_net
Weight
p1039
(dp1040
g127
F-0.3701149789924178
sba(ineural_net
Weight
p1041
(dp1042
g127
F-0.17320856699319007
sba(ineural_net
Weight
p1043
(dp1044
g127
F-0.11000065022493015
sba(ineural_net
Weight
p1045
(dp1046
g127
F-0.18742492334440114
sba(ineural_net
Weight
p1047
(dp1048
g127
F-0.14151298802383055
sba(ineural_net
Weight
p1049
(dp1050
g127
F-0.13242210240151253
sba(ineural_net
Weight
p1051
(dp1052
g127
F-0.30462880154893973
sbag1019
ag152
ag190
ag226
ag262
ag298
ag334
ag370
ag406
ag442
ag478
ag514
ag550
ag586
ag622
ag658
ag694
ag730
ag766
ag802
ag838
ag874
asg158
(ineural_net
Weight
p1053
(dp1054
g127
F-0.0023124544362807756
sbsg919
F0.012303574360381393
sbag116
asg123
(lp1055
(ineural_net
Weight
p1056
(dp1057
g127
F-0.2883050271258314
sba(ineural_net
Weight
p1058
(dp1059
g127
F-0.3070885394905668
sba(ineural_net
Weight
p1060
(dp1061
g127
F-0.30544782280485927
sba(ineural_net
Weight
p1062
(dp1063
g127
F-0.36402480255406106
sba(ineural_net
Weight
p1064
(dp1065
g127
F-0.31688927309480597
sba(ineural_net
Weight
p1066
(dp1067
g127
F-0.41559240775532985
sba(ineural_net
Weight
p1068
(dp1069
g127
F-0.2914380574391183
sba(ineural_net
Weight
p1070
(dp1071
g127
F-0.3428959112524137
sba(ineural_net
Weight
p1072
(dp1073
g127
F-0.3114360593173921
sba(ineural_net
Weight
p1074
(dp1075
g127
F-0.2693249222813575
sba(ineural_net
Weight
p1076
(dp1077
g127
F-0.30618931435180985
sba(ineural_net
Weight
p1078
(dp1079
g127
F-0.17415937516151922
sba(ineural_net
Weight
p1080
(dp1081
g127
F-0.3007627643857641
sbag1051
ag986
asg156
(lp1082
sg158
Nsbag112
ag119
ag159
ag195
ag231
ag267
ag303
ag339
ag375
ag411
ag447
ag483
ag519
ag555
ag591
ag627
ag663
ag699
ag735
ag771
ag807
ag843
asg14
F-2.3597732432768557
sg879
F0.0019013433187495942
sg15
F0.08629207162267133
sg16
(lp1083
g881
ag920
asg123
(lp1084
g911
ag950
asg156
(lp1085
(ineural_net
Weight
p1086
(dp1087
g127
F-0.3261034949651259
sba(ineural_net
Weight
p1088
(dp1089
g127
F-0.21567565631125285
sba(ineural_net
Weight
p1090
(dp1091
g127
F-0.2133023606231158
sba(ineural_net
Weight
p1092
(dp1093
g127
F-0.27275943226768584
sba(ineural_net
Weight
p1094
(dp1095
g127
F0.24691278433717956
sba(ineural_net
Weight
p1096
(dp1097
g127
F0.2345836982263312
sba(ineural_net
Weight
p1098
(dp1099
g127
F-0.39037258174629225
sba(ineural_net
Weight
p1100
(dp1101
g127
F-0.27509332991696284
sba(ineural_net
Weight
p1102
(dp1103
g127
F-0.27174589649039355
sba(ineural_net
Weight
p1104
(dp1105
g127
F0.019754999052004885
sba(ineural_net
Weight
p1106
(dp1107
g127
F-0.046140084527613395
sba(ineural_net
Weight
p1108
(dp1109
g127
F-0.1117351550846969
sba(ineural_net
Weight
p1110
(dp1111
g127
F-0.27933089567824004
sbag1080
ag1017
ag150
ag188
ag224
ag260
ag296
ag332
ag368
ag404
ag440
ag476
ag512
ag548
ag584
ag620
ag656
ag692
ag728
ag764
ag800
ag836
ag872
asg158
(ineural_net
Weight
p1112
(dp1113
g127
F0.007884310620094046
sbsg919
F0.012804826745690188
sbag109
ag116
asg123
(lp1114
(ineural_net
Weight
p1115
(dp1116
g127
F-0.22963759210728205
sba(ineural_net
Weight
p1117
(dp1118
g127
F-0.24500693952772287
sba(ineural_net
Weight
p1119
(dp1120
g127
F-0.47033584299585063
sba(ineural_net
Weight
p1121
(dp1122
g127
F-0.545529187599385
sba(ineural_net
Weight
p1123
(dp1124
g127
F-0.37320095899253536
sba(ineural_net
Weight
p1125
(dp1126
g127
F-0.5400192803073435
sba(ineural_net
Weight
p1127
(dp1128
g127
F-0.11482492363401925
sba(ineural_net
Weight
p1129
(dp1130
g127
F-0.4067560806931068
sba(ineural_net
Weight
p1131
(dp1132
g127
F-0.26705706985417044
sba(ineural_net
Weight
p1133
(dp1134
g127
F-0.19558000104168352
sba(ineural_net
Weight
p1135
(dp1136
g127
F-0.2729597358835574
sba(ineural_net
Weight
p1137
(dp1138
g127
F0.12485265910175745
sbag1110
ag1049
ag984
asg156
(lp1139
sg158
Nsbag105
ag112
ag119
ag159
ag195
ag231
ag267
ag303
ag339
ag375
ag411
ag447
ag483
ag519
ag555
ag591
ag627
ag663
ag699
ag735
ag771
ag807
ag843
asg14
F-0.27834837099044846
sg879
F5.8764664769235085e-06
sg15
F0.43085874134078056
sg16
(lp1140
g881
ag920
asg123
(lp1141
g909
ag948
asg156
(lp1142
(ineural_net
Weight
p1143
(dp1144
g127
F0.46881627855319147
sba(ineural_net
Weight
p1145
(dp1146
g127
F-0.21204244324665786
sba(ineural_net
Weight
p1147
(dp1148
g127
F-0.8398372265062737
sba(ineural_net
Weight
p1149
(dp1150
g127
F-0.665571283963546
sba(ineural_net
Weight
p1151
(dp1152
g127
F1.8344034036303967
sba(ineural_net
Weight
p1153
(dp1154
g127
F1.0220320180747744
sba(ineural_net
Weight
p1155
(dp1156
g127
F-0.22346564454931617
sba(ineural_net
Weight
p1157
(dp1158
g127
F-0.1327285160687698
sba(ineural_net
Weight
p1159
(dp1160
g127
F-0.6581064035755719
sba(ineural_net
Weight
p1161
(dp1162
g127
F0.2876221587875634
sba(ineural_net
Weight
p1163
(dp1164
g127
F0.11154709452427618
sba(ineural_net
Weight
p1165
(dp1166
g127
F0.4664441662334544
sbag1137
ag1078
ag1015
ag148
ag186
ag222
ag258
ag294
ag330
ag366
ag402
ag438
ag474
ag510
ag546
ag582
ag618
ag654
ag690
ag726
ag762
ag798
ag834
ag870
asg158
(ineural_net
Weight
p1167
(dp1168
g127
F-0.004094687853487733
sbsg919
F0.012249487681725636
sbag102
ag109
ag116
asg123
(lp1169
(ineural_net
Weight
p1170
(dp1171
g127
F-0.11394713294888587
sba(ineural_net
Weight
p1172
(dp1173
g127
F-0.13694052617851826
sba(ineural_net
Weight
p1174
(dp1175
g127
F-0.1257089847023087
sba(ineural_net
Weight
p1176
(dp1177
g127
F-0.12069693377694539
sba(ineural_net
Weight
p1178
(dp1179
g127
F-0.0015399032685266053
sba(ineural_net
Weight
p1180
(dp1181
g127
F-0.12351029034422427
sba(ineural_net
Weight
p1182
(dp1183
g127
F-0.13091213406139426
sba(ineural_net
Weight
p1184
(dp1185
g127
F-0.13309776861105585
sba(ineural_net
Weight
p1186
(dp1187
g127
F-0.10257767417246673
sba(ineural_net
Weight
p1188
(dp1189
g127
F-0.10913881691742357
sba(ineural_net
Weight
p1190
(dp1191
g127
F-0.11343471102306263
sbag1165
ag1108
ag1047
ag982
asg156
(lp1192
sg158
Nsbag98
ag105
ag112
ag119
ag159
ag195
ag231
ag267
ag303
ag339
ag375
ag411
ag447
ag483
ag519
ag555
ag591
ag627
ag663
ag699
ag735
ag771
ag807
ag843
asg14
F-2.35715608912669
sg879
F0.0019801031467036145
sg15
F0.08649864665310546
sg16
(lp1193
g881
ag920
asg123
(lp1194
g907
ag946
asg156
(lp1195
(ineural_net
Weight
p1196
(dp1197
g127
F-0.302026391049649
sba(ineural_net
Weight
p1198
(dp1199
g127
F-0.1892071990458659
sba(ineural_net
Weight
p1200
(dp1201
g127
F-0.21440815755637282
sba(ineural_net
Weight
p1202
(dp1203
g127
F-0.23095758370239497
sba(ineural_net
Weight
p1204
(dp1205
g127
F0.2928446377777835
sba(ineural_net
Weight
p1206
(dp1207
g127
F0.26181330025933297
sba(ineural_net
Weight
p1208
(dp1209
g127
F-0.42635962893506946
sba(ineural_net
Weight
p1210
(dp1211
g127
F-0.32056252440267663
sba(ineural_net
Weight
p1212
(dp1213
g127
F-0.24551413127839108
sba(ineural_net
Weight
p1214
(dp1215
g127
F0.0023812652769275478
sba(ineural_net
Weight
p1216
(dp1217
g127
F-0.07368912152071348
sbag1190
ag1135
ag1076
ag1013
ag146
ag184
ag220
ag256
ag292
ag328
ag364
ag400
ag436
ag472
ag508
ag544
ag580
ag616
ag652
ag688
ag724
ag760
ag796
ag832
ag868
asg158
(ineural_net
Weight
p1218
(dp1219
g127
F-0.0017437006374177947
sbsg919
F0.012832487582241647
sbag95
ag102
ag109
ag116
asg123
(lp1220
(ineural_net
Weight
p1221
(dp1222
g127
F-0.12613132592509976
sba(ineural_net
Weight
p1223
(dp1224
g127
F-0.1081706735229547
sba(ineural_net
Weight
p1225
(dp1226
g127
F0.04080516132103235
sba(ineural_net
Weight
p1227
(dp1228
g127
F0.06564044400263441
sba(ineural_net
Weight
p1229
(dp1230
g127
F0.19247997166679578
sba(ineural_net
Weight
p1231
(dp1232
g127
F0.10039890490021859
sba(ineural_net
Weight
p1233
(dp1234
g127
F-0.17909156066570045
sba(ineural_net
Weight
p1235
(dp1236
g127
F0.05308645160948867
sba(ineural_net
Weight
p1237
(dp1238
g127
F-0.07011649116551975
sba(ineural_net
Weight
p1239
(dp1240
g127
F-0.11463605756324312
sbag1216
ag1163
ag1106
ag1045
ag980
asg156
(lp1241
sg158
Nsbag91
ag98
ag105
ag112
ag119
ag159
ag195
ag231
ag267
ag303
ag339
ag375
ag411
ag447
ag483
ag519
ag555
ag591
ag627
ag663
ag699
ag735
ag771
ag807
ag843
asg14
F-2.3863884479663944
sg879
F0.001592445996423815
sg15
F0.08421655175139259
sg16
(lp1242
g881
ag920
asg123
(lp1243
g905
ag944
asg156
(lp1244
(ineural_net
Weight
p1245
(dp1246
g127
F-0.32140688305784887
sba(ineural_net
Weight
p1247
(dp1248
g127
F-0.17537090234206407
sba(ineural_net
Weight
p1249
(dp1250
g127
F-0.23974724155228758
sba(ineural_net
Weight
p1251
(dp1252
g127
F-0.2620866225218547
sba(ineural_net
Weight
p1253
(dp1254
g127
F0.20391859505900944
sba(ineural_net
Weight
p1255
(dp1256
g127
F0.17465787071366823
sba(ineural_net
Weight
p1257
(dp1258
g127
F-0.3410681608163662
sba(ineural_net
Weight
p1259
(dp1260
g127
F-0.31197774875804535
sba(ineural_net
Weight
p1261
(dp1262
g127
F-0.22944851859103255
sba(ineural_net
Weight
p1263
(dp1264
g127
F-0.04026812090402455
sbag1239
ag1188
ag1133
ag1074
ag1011
ag144
ag182
ag218
ag254
ag290
ag326
ag362
ag398
ag434
ag470
ag506
ag542
ag578
ag614
ag650
ag686
ag722
ag758
ag794
ag830
ag866
asg158
(ineural_net
Weight
p1265
(dp1266
g127
F-0.0062021596388267125
sbsg919
F0.012742392711368615
sbag88
ag95
ag102
ag109
ag116
asg123
(lp1267
(ineural_net
Weight
p1268
(dp1269
g127
F-0.049081857936180626
sba(ineural_net
Weight
p1270
(dp1271
g127
F-0.03925298337347255
sba(ineural_net
Weight
p1272
(dp1273
g127
F0.09113630300374552
sba(ineural_net
Weight
p1274
(dp1275
g127
F0.048621919950393756
sba(ineural_net
Weight
p1276
(dp1277
g127
F-0.08215392087797468
sba(ineural_net
Weight
p1278
(dp1279
g127
F0.07102686103973878
sba(ineural_net
Weight
p1280
(dp1281
g127
F-0.10794295672750535
sba(ineural_net
Weight
p1282
(dp1283
g127
F0.08740986703087873
sba(ineural_net
Weight
p1284
(dp1285
g127
F0.000617239857811132
sbag1263
ag1214
ag1161
ag1104
ag1043
ag978
asg156
(lp1286
sg158
Nsbag84
ag91
ag98
ag105
ag112
ag119
ag159
ag195
ag231
ag267
ag303
ag339
ag375
ag411
ag447
ag483
ag519
ag555
ag591
ag627
ag663
ag699
ag735
ag771
ag807
ag843
asg14
F-2.3222484725552426
sg879
F0.0018484281834366158
sg15
F0.08929703769235602
sg16
(lp1287
g881
ag920
asg123
(lp1288
g903
ag942
asg156
(lp1289
(ineural_net
Weight
p1290
(dp1291
g127
F-0.3201168275051433
sba(ineural_net
Weight
p1292
(dp1293
g127
F-0.2060759636802716
sba(ineural_net
Weight
p1294
(dp1295
g127
F-0.21989634169359681
sba(ineural_net
Weight
p1296
(dp1297
g127
F-0.26590401992767987
sba(ineural_net
Weight
p1298
(dp1299
g127
F0.26265699616067584
sba(ineural_net
Weight
p1300
(dp1301
g127
F0.2210561279364538
sba(ineural_net
Weight
p1302
(dp1303
g127
F-0.37748425587325374
sba(ineural_net
Weight
p1304
(dp1305
g127
F-0.2893913202349046
sba(ineural_net
Weight
p1306
(dp1307
g127
F-0.2621188870627346
sbag1284
ag1237
ag1186
ag1131
ag1072
ag1009
ag142
ag180
ag216
ag252
ag288
ag324
ag360
ag396
ag432
ag468
ag504
ag540
ag576
ag612
ag648
ag684
ag720
ag756
ag792
ag828
ag864
asg158
(ineural_net
Weight
p1308
(dp1309
g127
F0.005044779649534911
sbsg919
F0.012808990439810899
sbag81
ag88
ag95
ag102
ag109
ag116
asg123
(lp1310
(ineural_net
Weight
p1311
(dp1312
g127
F-0.22131884439793
sba(ineural_net
Weight
p1313
(dp1314
g127
F-0.21653388803481075
sba(ineural_net
Weight
p1315
(dp1316
g127
F-0.3090922455674601
sba(ineural_net
Weight
p1317
(dp1318
g127
F-0.28999391936088564
sba(ineural_net
Weight
p1319
(dp1320
g127
F-0.14547854578949493
sba(ineural_net
Weight
p1321
(dp1322
g127
F-0.31628541277874683
sba(ineural_net
Weight
p1323
(dp1324
g127
F-0.16944466528994542
sba(ineural_net
Weight
p1325
(dp1326
g127
F-0.3131632539819056
sbag1306
ag1261
ag1212
ag1159
ag1102
ag1041
ag976
asg156
(lp1327
sg158
Nsbag77
ag84
ag91
ag98
ag105
ag112
ag119
ag159
ag195
ag231
ag267
ag303
ag339
ag375
ag411
ag447
ag483
ag519
ag555
ag591
ag627
ag663
ag699
ag735
ag771
ag807
ag843
asg14
F-2.1887011470653945
sg879
F0.0022605740726042737
sg15
F0.10076972835477277
sg16
(lp1328
g881
ag920
asg123
(lp1329
g901
ag940
asg156
(lp1330
(ineural_net
Weight
p1331
(dp1332
g127
F-0.31989900867554444
sba(ineural_net
Weight
p1333
(dp1334
g127
F-0.2958680466391657
sba(ineural_net
Weight
p1335
(dp1336
g127
F-0.09796675579715482
sba(ineural_net
Weight
p1337
(dp1338
g127
F-0.2256526114391165
sba(ineural_net
Weight
p1339
(dp1340
g127
F0.40261413867282597
sba(ineural_net
Weight
p1341
(dp1342
g127
F0.32478296681063284
sba(ineural_net
Weight
p1343
(dp1344
g127
F-0.4930217126010669
sba(ineural_net
Weight
p1345
(dp1346
g127
F-0.2773274512330618
sbag1325
ag1282
ag1235
ag1184
ag1129
ag1070
ag1007
ag140
ag178
ag214
ag250
ag286
ag322
ag358
ag394
ag430
ag466
ag502
ag538
ag574
ag610
ag646
ag682
ag718
ag754
ag790
ag826
ag862
asg158
(ineural_net
Weight
p1347
(dp1348
g127
F0.002710046804142066
sbsg919
F0.01263940680226631
sbag74
ag81
ag88
ag95
ag102
ag109
ag116
asg123
(lp1349
(ineural_net
Weight
p1350
(dp1351
g127
F-0.3244344837941823
sba(ineural_net
Weight
p1352
(dp1353
g127
F-0.3308193402620074
sba(ineural_net
Weight
p1354
(dp1355
g127
F-0.23260062922024416
sba(ineural_net
Weight
p1356
(dp1357
g127
F-0.2615505092962736
sba(ineural_net
Weight
p1358
(dp1359
g127
F-0.13743110573969441
sba(ineural_net
Weight
p1360
(dp1361
g127
F-0.2580704214488557
sba(ineural_net
Weight
p1362
(dp1363
g127
F-0.3790187180026167
sbag1345
ag1304
ag1259
ag1210
ag1157
ag1100
ag1039
ag974
asg156
(lp1364
sg158
Nsbag70
ag77
ag84
ag91
ag98
ag105
ag112
ag119
ag159
ag195
ag231
ag267
ag303
ag339
ag375
ag411
ag447
ag483
ag519
ag555
ag591
ag627
ag663
ag699
ag735
ag771
ag807
ag843
asg14
F-2.5707927554485925
sg879
F0.0012829139969654404
sg15
F0.07104196838834224
sg16
(lp1365
g881
ag920
asg123
(lp1366
g899
ag938
asg156
(lp1367
(ineural_net
Weight
p1368
(dp1369
g127
F-0.2697325952653052
sba(ineural_net
Weight
p1370
(dp1371
g127
F-0.11410881466645843
sba(ineural_net
Weight
p1372
(dp1373
g127
F-0.2913880015688032
sba(ineural_net
Weight
p1374
(dp1375
g127
F-0.2138483563977332
sba(ineural_net
Weight
p1376
(dp1377
g127
F0.08430737860079157
sba(ineural_net
Weight
p1378
(dp1379
g127
F0.1033800441316338
sba(ineural_net
Weight
p1380
(dp1381
g127
F-0.25132678031067174
sbag1362
ag1323
ag1280
ag1233
ag1182
ag1127
ag1068
ag1005
ag138
ag176
ag212
ag248
ag284
ag320
ag356
ag392
ag428
ag464
ag500
ag536
ag572
ag608
ag644
ag680
ag716
ag752
ag788
ag824
ag860
asg158
(ineural_net
Weight
p1382
(dp1383
g127
F0.005088683083517589
sbsg919
F0.01190749525370673
sbag67
ag74
ag81
ag88
ag95
ag102
ag109
ag116
asg123
(lp1384
(ineural_net
Weight
p1385
(dp1386
g127
F-0.32870513348310776
sba(ineural_net
Weight
p1387
(dp1388
g127
F-0.3431044646022688
sba(ineural_net
Weight
p1389
(dp1390
g127
F-0.396823348999845
sba(ineural_net
Weight
p1391
(dp1392
g127
F-0.4611481483436566
sba(ineural_net
Weight
p1393
(dp1394
g127
F-0.3024561316981678
sba(ineural_net
Weight
p1395
(dp1396
g127
F-0.530266149893019
sbag1380
ag1343
ag1302
ag1257
ag1208
ag1155
ag1098
ag1037
ag972
asg156
(lp1397
sg158
Nsbag63
ag70
ag77
ag84
ag91
ag98
ag105
ag112
ag119
ag159
ag195
ag231
ag267
ag303
ag339
ag375
ag411
ag447
ag483
ag519
ag555
ag591
ag627
ag663
ag699
ag735
ag771
ag807
ag843
asg14
F-1.861284609705035
sg879
F0.00301382066882746
sg15
F0.13455339048582868
sg16
(lp1398
g881
ag920
asg123
(lp1399
g897
ag936
asg156
(lp1400
(ineural_net
Weight
p1401
(dp1402
g127
F-0.2617086335057064
sba(ineural_net
Weight
p1403
(dp1404
g127
F-0.2960081677729717
sba(ineural_net
Weight
p1405
(dp1406
g127
F0.05898822322763133
sba(ineural_net
Weight
p1407
(dp1408
g127
F-0.17754737635990495
sba(ineural_net
Weight
p1409
(dp1410
g127
F0.8280562351895673
sba(ineural_net
Weight
p1411
(dp1412
g127
F0.629002596019363
sbag1395
ag1360
ag1321
ag1278
ag1231
ag1180
ag1125
ag1066
ag1003
ag136
ag174
ag210
ag246
ag282
ag318
ag354
ag390
ag426
ag462
ag498
ag534
ag570
ag606
ag642
ag678
ag714
ag750
ag786
ag822
ag858
asg158
(ineural_net
Weight
p1413
(dp1414
g127
F0.007743821597989408
sbsg919
F0.01205542809097456
sbag60
ag67
ag74
ag81
ag88
ag95
ag102
ag109
ag116
asg123
(lp1415
(ineural_net
Weight
p1416
(dp1417
g127
F0.18675207375592795
sba(ineural_net
Weight
p1418
(dp1419
g127
F0.18812846451381549
sba(ineural_net
Weight
p1420
(dp1421
g127
F0.37336919944659347
sba(ineural_net
Weight
p1422
(dp1423
g127
F0.610209247647107
sba(ineural_net
Weight
p1424
(dp1425
g127
F0.9785159273065045
sbag1411
ag1378
ag1341
ag1300
ag1255
ag1206
ag1153
ag1096
ag1035
ag970
asg156
(lp1426
sg158
Nsbag56
ag63
ag70
ag77
ag84
ag91
ag98
ag105
ag112
ag119
ag159
ag195
ag231
ag267
ag303
ag339
ag375
ag411
ag447
ag483
ag519
ag555
ag591
ag627
ag663
ag699
ag735
ag771
ag807
ag843
asg14
F-1.7344605779409141
sg879
F0.0008146447203184548
sg15
F0.15001791175515672
sg16
(lp1427
g881
ag920
asg123
(lp1428
g895
ag934
asg156
(lp1429
(ineural_net
Weight
p1430
(dp1431
g127
F-0.31015383283200393
sba(ineural_net
Weight
p1432
(dp1433
g127
F-0.497039493593303
sba(ineural_net
Weight
p1434
(dp1435
g127
F-0.16249739408983088
sba(ineural_net
Weight
p1436
(dp1437
g127
F-0.5483546472065266
sba(ineural_net
Weight
p1438
(dp1439
g127
F1.3817392573717968
sbag1424
ag1393
ag1358
ag1319
ag1276
ag1229
ag1178
ag1123
ag1064
ag1001
ag134
ag172
ag208
ag244
ag280
ag316
ag352
ag388
ag424
ag460
ag496
ag532
ag568
ag604
ag640
ag676
ag712
ag748
ag784
ag820
ag856
asg158
(ineural_net
Weight
p1440
(dp1441
g127
F-0.006176357453614339
sbsg919
F0.009474531171650421
sbag53
ag60
ag67
ag74
ag81
ag88
ag95
ag102
ag109
ag116
asg123
(lp1442
(ineural_net
Weight
p1443
(dp1444
g127
F0.21700550206381902
sba(ineural_net
Weight
p1445
(dp1446
g127
F0.242233977658685
sba(ineural_net
Weight
p1447
(dp1448
g127
F0.5187015085507656
sba(ineural_net
Weight
p1449
(dp1450
g127
F0.8526852001175048
sbag1438
ag1409
ag1376
ag1339
ag1298
ag1253
ag1204
ag1151
ag1094
ag1033
ag968
asg156
(lp1451
sg158
Nsbag49
ag56
ag63
ag70
ag77
ag84
ag91
ag98
ag105
ag112
ag119
ag159
ag195
ag231
ag267
ag303
ag339
ag375
ag411
ag447
ag483
ag519
ag555
ag591
ag627
ag663
ag699
ag735
ag771
ag807
ag843
asg14
F-1.8086989490961347
sg879
F0.00294563731015525
sg15
F0.14079544303290276
sg16
(lp1452
g881
ag920
asg123
(lp1453
g893
ag932
asg156
(lp1454
(ineural_net
Weight
p1455
(dp1456
g127
F-0.31571119355574995
sba(ineural_net
Weight
p1457
(dp1458
g127
F-0.3428091138395757
sba(ineural_net
Weight
p1459
(dp1460
g127
F0.1312243890124069
sba(ineural_net
Weight
p1461
(dp1462
g127
F-0.1777673513741198
sbag1449
ag1422
ag1391
ag1356
ag1317
ag1274
ag1227
ag1176
ag1121
ag1062
ag999
ag132
ag170
ag206
ag242
ag278
ag314
ag350
ag386
ag422
ag458
ag494
ag530
ag566
ag602
ag638
ag674
ag710
ag746
ag782
ag818
ag854
asg158
(ineural_net
Weight
p1463
(dp1464
g127
F0.0038149830824769863
sbsg919
F0.011974443062165609
sbag46
ag53
ag60
ag67
ag74
ag81
ag88
ag95
ag102
ag109
ag116
asg123
(lp1465
(ineural_net
Weight
p1466
(dp1467
g127
F-0.2521952101986135
sba(ineural_net
Weight
p1468
(dp1469
g127
F-0.23187163152606005
sba(ineural_net
Weight
p1470
(dp1471
g127
F-0.2561064799567029
sbag1461
ag1436
ag1407
ag1374
ag1337
ag1296
ag1251
ag1202
ag1149
ag1092
ag1031
ag966
asg156
(lp1472
sg158
Nsbag42
ag49
ag56
ag63
ag70
ag77
ag84
ag91
ag98
ag105
ag112
ag119
ag159
ag195
ag231
ag267
ag303
ag339
ag375
ag411
ag447
ag483
ag519
ag555
ag591
ag627
ag663
ag699
ag735
ag771
ag807
ag843
asg14
F-1.9994230406841118
sg879
F0.00230635733175123
sg15
F0.11926351235960887
sg16
(lp1473
g881
ag920
asg123
(lp1474
g891
ag930
asg156
(lp1475
(ineural_net
Weight
p1476
(dp1477
g127
F-0.3432608158150202
sba(ineural_net
Weight
p1478
(dp1479
g127
F-0.33029072408148025
sba(ineural_net
Weight
p1480
(dp1481
g127
F-0.022059850545887435
sbag1470
ag1447
ag1420
ag1389
ag1354
ag1315
ag1272
ag1225
ag1174
ag1119
ag1060
ag997
ag130
ag168
ag204
ag240
ag276
ag312
ag348
ag384
ag420
ag456
ag492
ag528
ag564
ag600
ag636
ag672
ag708
ag744
ag780
ag816
ag852
asg158
(ineural_net
Weight
p1482
(dp1483
g127
F0.00927326963654313
sbsg919
F0.012362585246641817
sbag39
ag46
ag53
ag60
ag67
ag74
ag81
ag88
ag95
ag102
ag109
ag116
asg123
(lp1484
(ineural_net
Weight
p1485
(dp1486
g127
F-0.2313469818780151
sba(ineural_net
Weight
p1487
(dp1488
g127
F-0.2315885730393882
sbag1480
ag1459
ag1434
ag1405
ag1372
ag1335
ag1294
ag1249
ag1200
ag1147
ag1090
ag1029
ag964
asg156
(lp1489
sg158
Nsbag35
ag42
ag49
ag56
ag63
ag70
ag77
ag84
ag91
ag98
ag105
ag112
ag119
ag159
ag195
ag231
ag267
ag303
ag339
ag375
ag411
ag447
ag483
ag519
ag555
ag591
ag627
ag663
ag699
ag735
ag771
ag807
ag843
asg14
F-2.379374753791055
sg879
F0.0016852586952343207
sg15
F0.08475905658855062
sg16
(lp1490
g881
ag920
asg123
(lp1491
g889
ag928
asg156
(lp1492
(ineural_net
Weight
p1493
(dp1494
g127
F-0.28898399058104074
sba(ineural_net
Weight
p1495
(dp1496
g127
F-0.18109114100363902
sbag1487
ag1468
ag1445
ag1418
ag1387
ag1352
ag1313
ag1270
ag1223
ag1172
ag1117
ag1058
ag995
ag128
ag166
ag202
ag238
ag274
ag310
ag346
ag382
ag418
ag454
ag490
ag526
ag562
ag598
ag634
ag670
ag706
ag742
ag778
ag814
ag850
asg158
(ineural_net
Weight
p1497
(dp1498
g127
F-0.009311772533218379
sbsg919
F0.012688073811509553
sbag32
ag39
ag46
ag53
ag60
ag67
ag74
ag81
ag88
ag95
ag102
ag109
ag116
asg123
(lp1499
(ineural_net
Weight
p1500
(dp1501
g127
F-0.18393294716464462
sbag1495
ag1478
ag1457
ag1432
ag1403
ag1370
ag1333
ag1292
ag1247
ag1198
ag1145
ag1088
ag1027
ag962
asg156
(lp1502
sg158
Nsbag28
ag35
ag42
ag49
ag56
ag63
ag70
ag77
ag84
ag91
ag98
ag105
ag112
ag119
ag159
ag195
ag231
ag267
ag303
ag339
ag375
ag411
ag447
ag483
ag519
ag555
ag591
ag627
ag663
ag699
ag735
ag771
ag807
ag843
asg14
F-2.422594524392838
sg879
F0.001660318103349205
sg15
F0.08146589831923252
sg16
(lp1503
g881
ag920
asg123
(lp1504
g887
ag926
asg156
(lp1505
(ineural_net
Weight
p1506
(dp1507
g127
F-0.3175365234865987
sbag1500
ag1485
ag1466
ag1443
ag1416
ag1385
ag1350
ag1311
ag1268
ag1221
ag1170
ag1115
ag1056
ag993
ag125
ag164
ag200
ag236
ag272
ag308
ag344
ag380
ag416
ag452
ag488
ag524
ag560
ag596
ag632
ag668
ag704
ag740
ag776
ag812
ag848
asg158
(ineural_net
Weight
p1508
(dp1509
g127
F0.0014973017399260331
sbsg919
F0.012830383755554871
sbag25
ag32
ag39
ag46
ag53
ag60
ag67
ag74
ag81
ag88
ag95
ag102
ag109
ag116
asg123
(lp1510
g1506
ag1493
ag1476
ag1455
ag1430
ag1401
ag1368
ag1331
ag1290
ag1245
ag1196
ag1143
ag1086
ag1025
ag960
asg156
(lp1511
sg158
Nsbag21
ag28
ag35
ag42
ag49
ag56
ag63
ag70
ag77
ag84
ag91
ag98
ag105
ag112
ag119
ag159
ag195
ag231
ag267
ag303
ag339
ag375
ag411
ag447
ag483
ag519
ag555
ag591
ag627
ag663
ag699
ag735
ag771
ag807
ag843
asS'complete'
p1512
I01
sS'outputs'
p1513
(lp1514
g881
ag920
asS'node_set'
p1515
(dp1516
g267
I01
sg77
I01
sg98
I01
sg303
I01
sg663
I01
sg109
I01
sg84
I01
sg881
I01
sg39
I01
sg81
I01
sg102
I01
sg339
I01
sg627
I01
sg21
I01
sg91
I01
sg42
I01
sg375
I01
sg735
I01
sg28
I01
sg74
I01
sg116
I01
sg46
I01
sg32
I01
sg699
I01
sg411
I01
sg35
I01
sg105
I01
sg56
I01
sg67
I01
sg88
I01
sg447
I01
sg807
I01
sg112
I01
sg771
I01
sg920
I01
sg483
I01
sg70
I01
sg49
I01
sg119
I01
sg60
I01
sg519
I01
sg18
I01
sg159
I01
sg25
I01
sg843
I01
sg555
I01
sg63
I01
sg195
I01
sg95
I01
sg53
I01
sg591
I01
sg231
I01
sg11
I01
ssg156
(lp1517
g1506
ag1508
ag1500
ag1485
ag1466
ag1443
ag1416
ag1385
ag1350
ag1311
ag1268
ag1221
ag1170
ag1115
ag1056
ag993
ag125
ag164
ag200
ag236
ag272
ag308
ag344
ag380
ag416
ag452
ag488
ag524
ag560
ag596
ag632
ag668
ag704
ag740
ag776
ag812
ag848
ag1493
ag1497
ag1495
ag1487
ag1468
ag1445
ag1418
ag1387
ag1352
ag1313
ag1270
ag1223
ag1172
ag1117
ag1058
ag995
ag128
ag166
ag202
ag238
ag274
ag310
ag346
ag382
ag418
ag454
ag490
ag526
ag562
ag598
ag634
ag670
ag706
ag742
ag778
ag814
ag850
ag1476
ag1482
ag1478
ag1480
ag1470
ag1447
ag1420
ag1389
ag1354
ag1315
ag1272
ag1225
ag1174
ag1119
ag1060
ag997
ag130
ag168
ag204
ag240
ag276
ag312
ag348
ag384
ag420
ag456
ag492
ag528
ag564
ag600
ag636
ag672
ag708
ag744
ag780
ag816
ag852
ag1455
ag1463
ag1457
ag1459
ag1461
ag1449
ag1422
ag1391
ag1356
ag1317
ag1274
ag1227
ag1176
ag1121
ag1062
ag999
ag132
ag170
ag206
ag242
ag278
ag314
ag350
ag386
ag422
ag458
ag494
ag530
ag566
ag602
ag638
ag674
ag710
ag746
ag782
ag818
ag854
ag1430
ag1440
ag1432
ag1434
ag1436
ag1438
ag1424
ag1393
ag1358
ag1319
ag1276
ag1229
ag1178
ag1123
ag1064
ag1001
ag134
ag172
ag208
ag244
ag280
ag316
ag352
ag388
ag424
ag460
ag496
ag532
ag568
ag604
ag640
ag676
ag712
ag748
ag784
ag820
ag856
ag1401
ag1413
ag1403
ag1405
ag1407
ag1409
ag1411
ag1395
ag1360
ag1321
ag1278
ag1231
ag1180
ag1125
ag1066
ag1003
ag136
ag174
ag210
ag246
ag282
ag318
ag354
ag390
ag426
ag462
ag498
ag534
ag570
ag606
ag642
ag678
ag714
ag750
ag786
ag822
ag858
ag1368
ag1382
ag1370
ag1372
ag1374
ag1376
ag1378
ag1380
ag1362
ag1323
ag1280
ag1233
ag1182
ag1127
ag1068
ag1005
ag138
ag176
ag212
ag248
ag284
ag320
ag356
ag392
ag428
ag464
ag500
ag536
ag572
ag608
ag644
ag680
ag716
ag752
ag788
ag824
ag860
ag1331
ag1347
ag1333
ag1335
ag1337
ag1339
ag1341
ag1343
ag1345
ag1325
ag1282
ag1235
ag1184
ag1129
ag1070
ag1007
ag140
ag178
ag214
ag250
ag286
ag322
ag358
ag394
ag430
ag466
ag502
ag538
ag574
ag610
ag646
ag682
ag718
ag754
ag790
ag826
ag862
ag1290
ag1308
ag1292
ag1294
ag1296
ag1298
ag1300
ag1302
ag1304
ag1306
ag1284
ag1237
ag1186
ag1131
ag1072
ag1009
ag142
ag180
ag216
ag252
ag288
ag324
ag360
ag396
ag432
ag468
ag504
ag540
ag576
ag612
ag648
ag684
ag720
ag756
ag792
ag828
ag864
ag1245
ag1265
ag1247
ag1249
ag1251
ag1253
ag1255
ag1257
ag1259
ag1261
ag1263
ag1239
ag1188
ag1133
ag1074
ag1011
ag144
ag182
ag218
ag254
ag290
ag326
ag362
ag398
ag434
ag470
ag506
ag542
ag578
ag614
ag650
ag686
ag722
ag758
ag794
ag830
ag866
ag1196
ag1218
ag1198
ag1200
ag1202
ag1204
ag1206
ag1208
ag1210
ag1212
ag1214
ag1216
ag1190
ag1135
ag1076
ag1013
ag146
ag184
ag220
ag256
ag292
ag328
ag364
ag400
ag436
ag472
ag508
ag544
ag580
ag616
ag652
ag688
ag724
ag760
ag796
ag832
ag868
ag1143
ag1167
ag1145
ag1147
ag1149
ag1151
ag1153
ag1155
ag1157
ag1159
ag1161
ag1163
ag1165
ag1137
ag1078
ag1015
ag148
ag186
ag222
ag258
ag294
ag330
ag366
ag402
ag438
ag474
ag510
ag546
ag582
ag618
ag654
ag690
ag726
ag762
ag798
ag834
ag870
ag1086
ag1112
ag1088
ag1090
ag1092
ag1094
ag1096
ag1098
ag1100
ag1102
ag1104
ag1106
ag1108
ag1110
ag1080
ag1017
ag150
ag188
ag224
ag260
ag296
ag332
ag368
ag404
ag440
ag476
ag512
ag548
ag584
ag620
ag656
ag692
ag728
ag764
ag800
ag836
ag872
ag1025
ag1053
ag1027
ag1029
ag1031
ag1033
ag1035
ag1037
ag1039
ag1041
ag1043
ag1045
ag1047
ag1049
ag1051
ag1019
ag152
ag190
ag226
ag262
ag298
ag334
ag370
ag406
ag442
ag478
ag514
ag550
ag586
ag622
ag658
ag694
ag730
ag766
ag802
ag838
ag874
ag960
ag990
ag962
ag964
ag966
ag968
ag970
ag972
ag974
ag976
ag978
ag980
ag982
ag984
ag986
ag988
ag154
ag192
ag228
ag264
ag300
ag336
ag372
ag408
ag444
ag480
ag516
ag552
ag588
ag624
ag660
ag696
ag732
ag768
ag804
ag840
ag876
ag887
ag917
ag889
ag891
ag893
ag895
ag897
ag899
ag901
ag903
ag905
ag907
ag909
ag911
ag913
ag915
ag926
ag956
ag928
ag930
ag932
ag934
ag936
ag938
ag940
ag942
ag944
ag946
ag948
ag950
ag952
ag954
asS'hidden_nodes'
p1518
(lp1519
g18
ag25
ag32
ag39
ag46
ag53
ag60
ag67
ag74
ag81
ag88
ag95
ag102
ag109
ag116
asbsS'FeedForwardFn'
p1520
cneural_net_impl
FeedForward
p1521
sS'TrainFn'
p1522
cneural_net_impl
Train
p1523
sb.