ccopy_reg
_reconstructor
p0
(cneural_net_impl
HiddenNetwork
p1
c__builtin__
object
p2
Ntp3
Rp4
(dp5
S'network'
p6
(ineural_net
NeuralNetwork
p7
(dp8
S'inputs'
p9
(lp10
(ineural_net
Node
p11
(dp12
g9
(lp13
sS'raw_value'
p14
I0
sS'transformed_value'
p15
I0
sS'forward_neighbors'
p16
(lp17
(ineural_net
Node
p18
(dp19
g9
(lp20
g11
a(ineural_net
Node
p21
(dp22
g9
(lp23
sg14
I1
sg15
I1
sg16
(lp24
g18
a(ineural_net
Node
p25
(dp26
g9
(lp27
g11
ag21
a(ineural_net
Node
p28
(dp29
g9
(lp30
sg14
I1
sg15
I1
sg16
(lp31
g18
ag25
a(ineural_net
Node
p32
(dp33
g9
(lp34
g11
ag21
ag28
a(ineural_net
Node
p35
(dp36
g9
(lp37
sg14
I1
sg15
I1
sg16
(lp38
g18
ag25
ag32
a(ineural_net
Node
p39
(dp40
g9
(lp41
g11
ag21
ag28
ag35
a(ineural_net
Node
p42
(dp43
g9
(lp44
sg14
I0
sg15
I0
sg16
(lp45
g18
ag25
ag32
ag39
a(ineural_net
Node
p46
(dp47
g9
(lp48
g11
ag21
ag28
ag35
ag42
a(ineural_net
Node
p49
(dp50
g9
(lp51
sg14
I0
sg15
I0
sg16
(lp52
g18
ag25
ag32
ag39
ag46
a(ineural_net
Node
p53
(dp54
g9
(lp55
g11
ag21
ag28
ag35
ag42
ag49
a(ineural_net
Node
p56
(dp57
g9
(lp58
sg14
I1
sg15
I1
sg16
(lp59
g18
ag25
ag32
ag39
ag46
ag53
a(ineural_net
Node
p60
(dp61
g9
(lp62
g11
ag21
ag28
ag35
ag42
ag49
ag56
a(ineural_net
Node
p63
(dp64
g9
(lp65
sg14
I1
sg15
I1
sg16
(lp66
g18
ag25
ag32
ag39
ag46
ag53
ag60
a(ineural_net
Node
p67
(dp68
g9
(lp69
g11
ag21
ag28
ag35
ag42
ag49
ag56
ag63
a(ineural_net
Node
p70
(dp71
g9
(lp72
sg14
I0
sg15
I0
sg16
(lp73
g18
ag25
ag32
ag39
ag46
ag53
ag60
ag67
a(ineural_net
Node
p74
(dp75
g9
(lp76
g11
ag21
ag28
ag35
ag42
ag49
ag56
ag63
ag70
a(ineural_net
Node
p77
(dp78
g9
(lp79
sg14
I1
sg15
I1
sg16
(lp80
g18
ag25
ag32
ag39
ag46
ag53
ag60
ag67
ag74
a(ineural_net
Node
p81
(dp82
g9
(lp83
g11
ag21
ag28
ag35
ag42
ag49
ag56
ag63
ag70
ag77
a(ineural_net
Node
p84
(dp85
g9
(lp86
sg14
I1
sg15
I1
sg16
(lp87
g18
ag25
ag32
ag39
ag46
ag53
ag60
ag67
ag74
ag81
a(ineural_net
Node
p88
(dp89
g9
(lp90
g11
ag21
ag28
ag35
ag42
ag49
ag56
ag63
ag70
ag77
ag84
a(ineural_net
Node
p91
(dp92
g9
(lp93
sg14
I1
sg15
I1
sg16
(lp94
g18
ag25
ag32
ag39
ag46
ag53
ag60
ag67
ag74
ag81
ag88
a(ineural_net
Node
p95
(dp96
g9
(lp97
g11
ag21
ag28
ag35
ag42
ag49
ag56
ag63
ag70
ag77
ag84
ag91
a(ineural_net
Node
p98
(dp99
g9
(lp100
sg14
I0
sg15
I0
sg16
(lp101
g18
ag25
ag32
ag39
ag46
ag53
ag60
ag67
ag74
ag81
ag88
ag95
a(ineural_net
Node
p102
(dp103
g9
(lp104
g11
ag21
ag28
ag35
ag42
ag49
ag56
ag63
ag70
ag77
ag84
ag91
ag98
a(ineural_net
Node
p105
(dp106
g9
(lp107
sg14
I1
sg15
I1
sg16
(lp108
g18
ag25
ag32
ag39
ag46
ag53
ag60
ag67
ag74
ag81
ag88
ag95
ag102
a(ineural_net
Node
p109
(dp110
g9
(lp111
g11
ag21
ag28
ag35
ag42
ag49
ag56
ag63
ag70
ag77
ag84
ag91
ag98
ag105
a(ineural_net
Node
p112
(dp113
g9
(lp114
sg14
I1
sg15
I1
sg16
(lp115
g18
ag25
ag32
ag39
ag46
ag53
ag60
ag67
ag74
ag81
ag88
ag95
ag102
ag109
a(ineural_net
Node
p116
(dp117
g9
(lp118
g11
ag21
ag28
ag35
ag42
ag49
ag56
ag63
ag70
ag77
ag84
ag91
ag98
ag105
ag112
a(ineural_net
Node
p119
(dp120
g9
(lp121
sg14
I0
sg15
I0
sg16
(lp122
g18
ag25
ag32
ag39
ag46
ag53
ag60
ag67
ag74
ag81
ag88
ag95
ag102
ag109
ag116
a(ineural_net
Node
p123
(dp124
g9
(lp125
g11
ag21
ag28
ag35
ag42
ag49
ag56
ag63
ag70
ag77
ag84
ag91
ag98
ag105
ag112
ag119
a(ineural_net
Node
p126
(dp127
g9
(lp128
sg14
I1
sg15
I1
sg16
(lp129
g18
ag25
ag32
ag39
ag46
ag53
ag60
ag67
ag74
ag81
ag88
ag95
ag102
ag109
ag116
ag123
a(ineural_net
Node
p130
(dp131
g9
(lp132
g11
ag21
ag28
ag35
ag42
ag49
ag56
ag63
ag70
ag77
ag84
ag91
ag98
ag105
ag112
ag119
ag126
a(ineural_net
Node
p133
(dp134
g9
(lp135
sg14
I0
sg15
I0
sg16
(lp136
g18
ag25
ag32
ag39
ag46
ag53
ag60
ag67
ag74
ag81
ag88
ag95
ag102
ag109
ag116
ag123
ag130
a(ineural_net
Node
p137
(dp138
g9
(lp139
g11
ag21
ag28
ag35
ag42
ag49
ag56
ag63
ag70
ag77
ag84
ag91
ag98
ag105
ag112
ag119
ag126
ag133
a(ineural_net
Node
p140
(dp141
g9
(lp142
sg14
I1
sg15
I1
sg16
(lp143
g18
ag25
ag32
ag39
ag46
ag53
ag60
ag67
ag74
ag81
ag88
ag95
ag102
ag109
ag116
ag123
ag130
ag137
a(ineural_net
Node
p144
(dp145
g9
(lp146
g11
ag21
ag28
ag35
ag42
ag49
ag56
ag63
ag70
ag77
ag84
ag91
ag98
ag105
ag112
ag119
ag126
ag133
ag140
a(ineural_net
Node
p147
(dp148
g9
(lp149
sg14
I0
sg15
I0
sg16
(lp150
g18
ag25
ag32
ag39
ag46
ag53
ag60
ag67
ag74
ag81
ag88
ag95
ag102
ag109
ag116
ag123
ag130
ag137
ag144
a(ineural_net
Node
p151
(dp152
g9
(lp153
g11
ag21
ag28
ag35
ag42
ag49
ag56
ag63
ag70
ag77
ag84
ag91
ag98
ag105
ag112
ag119
ag126
ag133
ag140
ag147
a(ineural_net
Node
p154
(dp155
g9
(lp156
sg14
I0
sg15
I0
sg16
(lp157
g18
ag25
ag32
ag39
ag46
ag53
ag60
ag67
ag74
ag81
ag88
ag95
ag102
ag109
ag116
ag123
ag130
ag137
ag144
ag151
a(ineural_net
Node
p158
(dp159
g9
(lp160
g11
ag21
ag28
ag35
ag42
ag49
ag56
ag63
ag70
ag77
ag84
ag91
ag98
ag105
ag112
ag119
ag126
ag133
ag140
ag147
ag154
a(ineural_net
Node
p161
(dp162
g9
(lp163
sg14
I0
sg15
I0
sg16
(lp164
g18
ag25
ag32
ag39
ag46
ag53
ag60
ag67
ag74
ag81
ag88
ag95
ag102
ag109
ag116
ag123
ag130
ag137
ag144
ag151
ag158
a(ineural_net
Node
p165
(dp166
g9
(lp167
g11
ag21
ag28
ag35
ag42
ag49
ag56
ag63
ag70
ag77
ag84
ag91
ag98
ag105
ag112
ag119
ag126
ag133
ag140
ag147
ag154
ag161
a(ineural_net
Node
p168
(dp169
g9
(lp170
sg14
I0
sg15
I0
sg16
(lp171
g18
ag25
ag32
ag39
ag46
ag53
ag60
ag67
ag74
ag81
ag88
ag95
ag102
ag109
ag116
ag123
ag130
ag137
ag144
ag151
ag158
ag165
a(ineural_net
Node
p172
(dp173
g9
(lp174
g11
ag21
ag28
ag35
ag42
ag49
ag56
ag63
ag70
ag77
ag84
ag91
ag98
ag105
ag112
ag119
ag126
ag133
ag140
ag147
ag154
ag161
ag168
a(ineural_net
Node
p175
(dp176
g9
(lp177
sg14
I1
sg15
I1
sg16
(lp178
g18
ag25
ag32
ag39
ag46
ag53
ag60
ag67
ag74
ag81
ag88
ag95
ag102
ag109
ag116
ag123
ag130
ag137
ag144
ag151
ag158
ag165
ag172
a(ineural_net
Node
p179
(dp180
g9
(lp181
g11
ag21
ag28
ag35
ag42
ag49
ag56
ag63
ag70
ag77
ag84
ag91
ag98
ag105
ag112
ag119
ag126
ag133
ag140
ag147
ag154
ag161
ag168
ag175
a(ineural_net
Node
p182
(dp183
g9
(lp184
sg14
I0
sg15
I0
sg16
(lp185
g18
ag25
ag32
ag39
ag46
ag53
ag60
ag67
ag74
ag81
ag88
ag95
ag102
ag109
ag116
ag123
ag130
ag137
ag144
ag151
ag158
ag165
ag172
ag179
a(ineural_net
Node
p186
(dp187
g9
(lp188
g11
ag21
ag28
ag35
ag42
ag49
ag56
ag63
ag70
ag77
ag84
ag91
ag98
ag105
ag112
ag119
ag126
ag133
ag140
ag147
ag154
ag161
ag168
ag175
ag182
a(ineural_net
Node
p189
(dp190
g9
(lp191
sg14
I1
sg15
I1
sg16
(lp192
g18
ag25
ag32
ag39
ag46
ag53
ag60
ag67
ag74
ag81
ag88
ag95
ag102
ag109
ag116
ag123
ag130
ag137
ag144
ag151
ag158
ag165
ag172
ag179
ag186
a(ineural_net
Node
p193
(dp194
g9
(lp195
g11
ag21
ag28
ag35
ag42
ag49
ag56
ag63
ag70
ag77
ag84
ag91
ag98
ag105
ag112
ag119
ag126
ag133
ag140
ag147
ag154
ag161
ag168
ag175
ag182
ag189
a(ineural_net
Node
p196
(dp197
g9
(lp198
sg14
I1
sg15
I1
sg16
(lp199
g18
ag25
ag32
ag39
ag46
ag53
ag60
ag67
ag74
ag81
ag88
ag95
ag102
ag109
ag116
ag123
ag130
ag137
ag144
ag151
ag158
ag165
ag172
ag179
ag186
ag193
a(ineural_net
Node
p200
(dp201
g9
(lp202
g11
ag21
ag28
ag35
ag42
ag49
ag56
ag63
ag70
ag77
ag84
ag91
ag98
ag105
ag112
ag119
ag126
ag133
ag140
ag147
ag154
ag161
ag168
ag175
ag182
ag189
ag196
a(ineural_net
Node
p203
(dp204
g9
(lp205
sg14
I1
sg15
I1
sg16
(lp206
g18
ag25
ag32
ag39
ag46
ag53
ag60
ag67
ag74
ag81
ag88
ag95
ag102
ag109
ag116
ag123
ag130
ag137
ag144
ag151
ag158
ag165
ag172
ag179
ag186
ag193
ag200
a(ineural_net
Node
p207
(dp208
g9
(lp209
g11
ag21
ag28
ag35
ag42
ag49
ag56
ag63
ag70
ag77
ag84
ag91
ag98
ag105
ag112
ag119
ag126
ag133
ag140
ag147
ag154
ag161
ag168
ag175
ag182
ag189
ag196
ag203
a(ineural_net
Node
p210
(dp211
g9
(lp212
sg14
I1
sg15
I1
sg16
(lp213
g18
ag25
ag32
ag39
ag46
ag53
ag60
ag67
ag74
ag81
ag88
ag95
ag102
ag109
ag116
ag123
ag130
ag137
ag144
ag151
ag158
ag165
ag172
ag179
ag186
ag193
ag200
ag207
a(ineural_net
Node
p214
(dp215
g9
(lp216
g11
ag21
ag28
ag35
ag42
ag49
ag56
ag63
ag70
ag77
ag84
ag91
ag98
ag105
ag112
ag119
ag126
ag133
ag140
ag147
ag154
ag161
ag168
ag175
ag182
ag189
ag196
ag203
ag210
a(ineural_net
Node
p217
(dp218
g9
(lp219
sg14
I1
sg15
I1
sg16
(lp220
g18
ag25
ag32
ag39
ag46
ag53
ag60
ag67
ag74
ag81
ag88
ag95
ag102
ag109
ag116
ag123
ag130
ag137
ag144
ag151
ag158
ag165
ag172
ag179
ag186
ag193
ag200
ag207
ag214
a(ineural_net
Node
p221
(dp222
g9
(lp223
g11
ag21
ag28
ag35
ag42
ag49
ag56
ag63
ag70
ag77
ag84
ag91
ag98
ag105
ag112
ag119
ag126
ag133
ag140
ag147
ag154
ag161
ag168
ag175
ag182
ag189
ag196
ag203
ag210
ag217
a(ineural_net
Node
p224
(dp225
g9
(lp226
sg14
I0
sg15
I0
sg16
(lp227
g18
ag25
ag32
ag39
ag46
ag53
ag60
ag67
ag74
ag81
ag88
ag95
ag102
ag109
ag116
ag123
ag130
ag137
ag144
ag151
ag158
ag165
ag172
ag179
ag186
ag193
ag200
ag207
ag214
ag221
asS'forward_weights'
p228
(lp229
(ineural_net
Weight
p230
(dp231
S'value'
p232
F-0.05609528387236397
sba(ineural_net
Weight
p233
(dp234
g232
F-0.47024436535216124
sba(ineural_net
Weight
p235
(dp236
g232
F-1.0738376291544816
sba(ineural_net
Weight
p237
(dp238
g232
F-0.5194883745769051
sba(ineural_net
Weight
p239
(dp240
g232
F0.6862749019009828
sba(ineural_net
Weight
p241
(dp242
g232
F-0.25468837834984354
sba(ineural_net
Weight
p243
(dp244
g232
F-0.4009897333624451
sba(ineural_net
Weight
p245
(dp246
g232
F-0.8302791258020041
sba(ineural_net
Weight
p247
(dp248
g232
F-0.6316157893049567
sba(ineural_net
Weight
p249
(dp250
g232
F-0.32883539499207604
sba(ineural_net
Weight
p251
(dp252
g232
F-0.4984811026229792
sba(ineural_net
Weight
p253
(dp254
g232
F-1.0426072879272275
sba(ineural_net
Weight
p255
(dp256
g232
F-0.7134821831445324
sba(ineural_net
Weight
p257
(dp258
g232
F-0.784718003981624
sba(ineural_net
Weight
p259
(dp260
g232
F-1.24288868498351
sba(ineural_net
Weight
p261
(dp262
g232
F-0.6154564990920385
sba(ineural_net
Weight
p263
(dp264
g232
F-0.718904900625937
sba(ineural_net
Weight
p265
(dp266
g232
F-0.991053122576972
sba(ineural_net
Weight
p267
(dp268
g232
F-0.6552711889534627
sba(ineural_net
Weight
p269
(dp270
g232
F2.7382403036328298
sba(ineural_net
Weight
p271
(dp272
g232
F-0.661498668379431
sba(ineural_net
Weight
p273
(dp274
g232
F-0.8517544580731679
sba(ineural_net
Weight
p275
(dp276
g232
F-0.8073439578204837
sba(ineural_net
Weight
p277
(dp278
g232
F-0.780236558060097
sba(ineural_net
Weight
p279
(dp280
g232
F-0.8215244447587451
sba(ineural_net
Weight
p281
(dp282
g232
F-0.7170690293262189
sba(ineural_net
Weight
p283
(dp284
g232
F-0.9036575104178051
sba(ineural_net
Weight
p285
(dp286
g232
F-0.793910858091728
sba(ineural_net
Weight
p287
(dp288
g232
F-1.0646672946498308
sba(ineural_net
Weight
p289
(dp290
g232
F-0.4243452942122672
sbasS'weights'
p291
(lp292
sS'fixed_weight'
p293
Nsba(ineural_net
Node
p294
(dp295
g9
(lp296
sg14
I0
sg15
I0
sg16
(lp297
g18
ag25
ag32
ag39
ag46
ag53
ag60
ag67
ag74
ag81
ag88
ag95
ag102
ag109
ag116
ag123
ag130
ag137
ag144
ag151
ag158
ag165
ag172
ag179
ag186
ag193
ag200
ag207
ag214
ag221
asg228
(lp298
(ineural_net
Weight
p299
(dp300
g232
F-0.08177261048287207
sba(ineural_net
Weight
p301
(dp302
g232
F-0.03454567554272952
sba(ineural_net
Weight
p303
(dp304
g232
F-0.4027565944600814
sba(ineural_net
Weight
p305
(dp306
g232
F-0.22636980683929125
sba(ineural_net
Weight
p307
(dp308
g232
F0.6552832303075732
sba(ineural_net
Weight
p309
(dp310
g232
F-0.05247085232965243
sba(ineural_net
Weight
p311
(dp312
g232
F-0.1712046647036927
sba(ineural_net
Weight
p313
(dp314
g232
F-0.15399713349141353
sba(ineural_net
Weight
p315
(dp316
g232
F0.309727390507562
sba(ineural_net
Weight
p317
(dp318
g232
F0.07401224304471199
sba(ineural_net
Weight
p319
(dp320
g232
F-0.21597945850916697
sba(ineural_net
Weight
p321
(dp322
g232
F-0.3531951858860245
sba(ineural_net
Weight
p323
(dp324
g232
F-0.1841055655014982
sba(ineural_net
Weight
p325
(dp326
g232
F-0.05946744923198336
sba(ineural_net
Weight
p327
(dp328
g232
F-0.4028794708046013
sba(ineural_net
Weight
p329
(dp330
g232
F-0.23176458973229158
sba(ineural_net
Weight
p331
(dp332
g232
F-0.10358446623145676
sba(ineural_net
Weight
p333
(dp334
g232
F-0.1394148597359941
sba(ineural_net
Weight
p335
(dp336
g232
F-0.22170805337357638
sba(ineural_net
Weight
p337
(dp338
g232
F-2.6799174984996714
sba(ineural_net
Weight
p339
(dp340
g232
F-0.16547562249944706
sba(ineural_net
Weight
p341
(dp342
g232
F1.6570243036372063
sba(ineural_net
Weight
p343
(dp344
g232
F-0.16286631180313876
sba(ineural_net
Weight
p345
(dp346
g232
F-0.17988745666563227
sba(ineural_net
Weight
p347
(dp348
g232
F-0.1236285801726978
sba(ineural_net
Weight
p349
(dp350
g232
F-0.3767655200597251
sba(ineural_net
Weight
p351
(dp352
g232
F-0.07237501685242675
sba(ineural_net
Weight
p353
(dp354
g232
F-0.16604671834881216
sba(ineural_net
Weight
p355
(dp356
g232
F-0.3239027053344646
sba(ineural_net
Weight
p357
(dp358
g232
F-0.1231201577424674
sbasg291
(lp359
sg293
Nsba(ineural_net
Node
p360
(dp361
g9
(lp362
sg14
I0
sg15
I0
sg16
(lp363
g18
ag25
ag32
ag39
ag46
ag53
ag60
ag67
ag74
ag81
ag88
ag95
ag102
ag109
ag116
ag123
ag130
ag137
ag144
ag151
ag158
ag165
ag172
ag179
ag186
ag193
ag200
ag207
ag214
ag221
asg228
(lp364
(ineural_net
Weight
p365
(dp366
g232
F0.6086035495924563
sba(ineural_net
Weight
p367
(dp368
g232
F0.18697191276335817
sba(ineural_net
Weight
p369
(dp370
g232
F0.5965253884882404
sba(ineural_net
Weight
p371
(dp372
g232
F0.23209577160516812
sba(ineural_net
Weight
p373
(dp374
g232
F0.042959127120301595
sba(ineural_net
Weight
p375
(dp376
g232
F0.8408254243862453
sba(ineural_net
Weight
p377
(dp378
g232
F0.45728918057230866
sba(ineural_net
Weight
p379
(dp380
g232
F0.40427396319813425
sba(ineural_net
Weight
p381
(dp382
g232
F0.40876438496393236
sba(ineural_net
Weight
p383
(dp384
g232
F0.6430861493640202
sba(ineural_net
Weight
p385
(dp386
g232
F0.5621352108261648
sba(ineural_net
Weight
p387
(dp388
g232
F0.6083764338102213
sba(ineural_net
Weight
p389
(dp390
g232
F0.7024376290441386
sba(ineural_net
Weight
p391
(dp392
g232
F0.4640277297241328
sba(ineural_net
Weight
p393
(dp394
g232
F0.8153878811132206
sba(ineural_net
Weight
p395
(dp396
g232
F1.2277454598514863
sba(ineural_net
Weight
p397
(dp398
g232
F0.6631386621096997
sba(ineural_net
Weight
p399
(dp400
g232
F0.6152882509169595
sba(ineural_net
Weight
p401
(dp402
g232
F0.5214856152103321
sba(ineural_net
Weight
p403
(dp404
g232
F-2.002497669035066
sba(ineural_net
Weight
p405
(dp406
g232
F0.6168417358915548
sba(ineural_net
Weight
p407
(dp408
g232
F0.9891393755163236
sba(ineural_net
Weight
p409
(dp410
g232
F0.499500087306942
sba(ineural_net
Weight
p411
(dp412
g232
F0.45313401497944816
sba(ineural_net
Weight
p413
(dp414
g232
F0.5783282099403196
sba(ineural_net
Weight
p415
(dp416
g232
F0.26239468022815987
sba(ineural_net
Weight
p417
(dp418
g232
F0.47333423010362313
sba(ineural_net
Weight
p419
(dp420
g232
F0.5141425670548904
sba(ineural_net
Weight
p421
(dp422
g232
F0.6666497175807743
sba(ineural_net
Weight
p423
(dp424
g232
F0.7041039309304726
sbasg291
(lp425
sg293
Nsba(ineural_net
Node
p426
(dp427
g9
(lp428
sg14
I0
sg15
I0
sg16
(lp429
g18
ag25
ag32
ag39
ag46
ag53
ag60
ag67
ag74
ag81
ag88
ag95
ag102
ag109
ag116
ag123
ag130
ag137
ag144
ag151
ag158
ag165
ag172
ag179
ag186
ag193
ag200
ag207
ag214
ag221
asg228
(lp430
(ineural_net
Weight
p431
(dp432
g232
F-0.3015182596539761
sba(ineural_net
Weight
p433
(dp434
g232
F-0.6025674940062776
sba(ineural_net
Weight
p435
(dp436
g232
F-0.9322313207733162
sba(ineural_net
Weight
p437
(dp438
g232
F-0.5558759542277173
sba(ineural_net
Weight
p439
(dp440
g232
F-0.17050945266724435
sba(ineural_net
Weight
p441
(dp442
g232
F0.03132890820987679
sba(ineural_net
Weight
p443
(dp444
g232
F-0.8584353734869853
sba(ineural_net
Weight
p445
(dp446
g232
F-0.6238325587188682
sba(ineural_net
Weight
p447
(dp448
g232
F-0.4966501678358585
sba(ineural_net
Weight
p449
(dp450
g232
F-0.22438294851832646
sba(ineural_net
Weight
p451
(dp452
g232
F-0.5488777612869062
sba(ineural_net
Weight
p453
(dp454
g232
F-1.4713423749540797
sba(ineural_net
Weight
p455
(dp456
g232
F-0.466336681964932
sba(ineural_net
Weight
p457
(dp458
g232
F-0.5690220156362549
sba(ineural_net
Weight
p459
(dp460
g232
F-0.840544492359285
sba(ineural_net
Weight
p461
(dp462
g232
F-0.9939367964264548
sba(ineural_net
Weight
p463
(dp464
g232
F-0.20393250923548928
sba(ineural_net
Weight
p465
(dp466
g232
F-0.760345912384619
sba(ineural_net
Weight
p467
(dp468
g232
F-0.7543853021726344
sba(ineural_net
Weight
p469
(dp470
g232
F3.0268629188651337
sba(ineural_net
Weight
p471
(dp472
g232
F-0.547890615386061
sba(ineural_net
Weight
p473
(dp474
g232
F-0.8126659145575983
sba(ineural_net
Weight
p475
(dp476
g232
F-0.45722365147756217
sba(ineural_net
Weight
p477
(dp478
g232
F-0.5804353154924375
sba(ineural_net
Weight
p479
(dp480
g232
F-0.4099034490890131
sba(ineural_net
Weight
p481
(dp482
g232
F-1.0971249397910636
sba(ineural_net
Weight
p483
(dp484
g232
F-0.6917784704842629
sba(ineural_net
Weight
p485
(dp486
g232
F-0.6598310459082566
sba(ineural_net
Weight
p487
(dp488
g232
F-0.9118950281887716
sba(ineural_net
Weight
p489
(dp490
g232
F-0.3340994468720693
sbasg291
(lp491
sg293
Nsba(ineural_net
Node
p492
(dp493
g9
(lp494
sg14
I0
sg15
I0
sg16
(lp495
g18
ag25
ag32
ag39
ag46
ag53
ag60
ag67
ag74
ag81
ag88
ag95
ag102
ag109
ag116
ag123
ag130
ag137
ag144
ag151
ag158
ag165
ag172
ag179
ag186
ag193
ag200
ag207
ag214
ag221
asg228
(lp496
(ineural_net
Weight
p497
(dp498
g232
F0.3250044302158757
sba(ineural_net
Weight
p499
(dp500
g232
F-0.6724962867621086
sba(ineural_net
Weight
p501
(dp502
g232
F-0.2144698907717674
sba(ineural_net
Weight
p503
(dp504
g232
F-0.7216727074383869
sba(ineural_net
Weight
p505
(dp506
g232
F-0.07729949533708111
sba(ineural_net
Weight
p507
(dp508
g232
F0.39787193735184645
sba(ineural_net
Weight
p509
(dp510
g232
F1.0169503525426755
sba(ineural_net
Weight
p511
(dp512
g232
F-0.22084892345464294
sba(ineural_net
Weight
p513
(dp514
g232
F0.10123178087372411
sba(ineural_net
Weight
p515
(dp516
g232
F0.36598156251481195
sba(ineural_net
Weight
p517
(dp518
g232
F-0.3219644896657054
sba(ineural_net
Weight
p519
(dp520
g232
F0.09857162857159972
sba(ineural_net
Weight
p521
(dp522
g232
F0.23461507624071445
sba(ineural_net
Weight
p523
(dp524
g232
F-0.04777232324760526
sba(ineural_net
Weight
p525
(dp526
g232
F-0.08331176824656683
sba(ineural_net
Weight
p527
(dp528
g232
F-0.2837207433007227
sba(ineural_net
Weight
p529
(dp530
g232
F0.048035324782841685
sba(ineural_net
Weight
p531
(dp532
g232
F-0.17280948364608917
sba(ineural_net
Weight
p533
(dp534
g232
F0.10744342840388765
sba(ineural_net
Weight
p535
(dp536
g232
F-1.6642594798056183
sba(ineural_net
Weight
p537
(dp538
g232
F-0.3198123286431526
sba(ineural_net
Weight
p539
(dp540
g232
F0.49671211694100237
sba(ineural_net
Weight
p541
(dp542
g232
F-0.04590595002932088
sba(ineural_net
Weight
p543
(dp544
g232
F-0.030377635229876004
sba(ineural_net
Weight
p545
(dp546
g232
F0.04172249764228375
sba(ineural_net
Weight
p547
(dp548
g232
F-0.25489804796150456
sba(ineural_net
Weight
p549
(dp550
g232
F-0.2527905754916253
sba(ineural_net
Weight
p551
(dp552
g232
F-0.071494018243703
sba(ineural_net
Weight
p553
(dp554
g232
F-0.2769222392928287
sba(ineural_net
Weight
p555
(dp556
g232
F-0.3272049392803456
sbasg291
(lp557
sg293
Nsba(ineural_net
Node
p558
(dp559
g9
(lp560
sg14
I0
sg15
I0
sg16
(lp561
g18
ag25
ag32
ag39
ag46
ag53
ag60
ag67
ag74
ag81
ag88
ag95
ag102
ag109
ag116
ag123
ag130
ag137
ag144
ag151
ag158
ag165
ag172
ag179
ag186
ag193
ag200
ag207
ag214
ag221
asg228
(lp562
(ineural_net
Weight
p563
(dp564
g232
F0.6901455970531717
sba(ineural_net
Weight
p565
(dp566
g232
F0.24967056311079566
sba(ineural_net
Weight
p567
(dp568
g232
F0.2529468467263208
sba(ineural_net
Weight
p569
(dp570
g232
F0.10163324064610516
sba(ineural_net
Weight
p571
(dp572
g232
F0.04711382921872737
sba(ineural_net
Weight
p573
(dp574
g232
F1.3240543484343963
sba(ineural_net
Weight
p575
(dp576
g232
F-0.3462029622693013
sba(ineural_net
Weight
p577
(dp578
g232
F0.013749059202718196
sba(ineural_net
Weight
p579
(dp580
g232
F0.3378273325555721
sba(ineural_net
Weight
p581
(dp582
g232
F0.9156107001801062
sba(ineural_net
Weight
p583
(dp584
g232
F0.041788755980612886
sba(ineural_net
Weight
p585
(dp586
g232
F0.536661371344313
sba(ineural_net
Weight
p587
(dp588
g232
F0.8917230203922797
sba(ineural_net
Weight
p589
(dp590
g232
F0.08211430315824615
sba(ineural_net
Weight
p591
(dp592
g232
F0.9677083675751753
sba(ineural_net
Weight
p593
(dp594
g232
F1.2122289089744116
sba(ineural_net
Weight
p595
(dp596
g232
F0.7517764569761352
sba(ineural_net
Weight
p597
(dp598
g232
F0.012937344692584831
sba(ineural_net
Weight
p599
(dp600
g232
F0.37039016808756553
sba(ineural_net
Weight
p601
(dp602
g232
F-4.569291112492375
sba(ineural_net
Weight
p603
(dp604
g232
F0.11959370003304605
sba(ineural_net
Weight
p605
(dp606
g232
F-0.2635421278763732
sba(ineural_net
Weight
p607
(dp608
g232
F0.10471671101068987
sba(ineural_net
Weight
p609
(dp610
g232
F0.03729793178406986
sba(ineural_net
Weight
p611
(dp612
g232
F-0.06725570412453696
sba(ineural_net
Weight
p613
(dp614
g232
F-0.3182575713795941
sba(ineural_net
Weight
p615
(dp616
g232
F0.049435321406789044
sba(ineural_net
Weight
p617
(dp618
g232
F-0.03225574151861828
sba(ineural_net
Weight
p619
(dp620
g232
F-0.060498956716704286
sba(ineural_net
Weight
p621
(dp622
g232
F0.13445809188485597
sbasg291
(lp623
sg293
Nsbasg14
F-4.682131535340681
sS'delta'
p624
F7.663062870935045e-05
sg15
F0.009174309124873933
sg16
(lp625
(ineural_net
Node
p626
(dp627
g9
(lp628
g18
ag25
ag32
ag39
ag46
ag53
ag60
ag67
ag74
ag81
ag88
ag95
ag102
ag109
ag116
ag123
ag130
ag137
ag144
ag151
ag158
ag165
ag172
ag179
ag186
ag193
ag200
ag207
ag214
ag221
asg14
F0.3554804754664353
sg624
F0.002136492043453082
sg15
F0.5879459460333696
sg16
(lp629
sg228
(lp630
sg291
(lp631
(ineural_net
Weight
p632
(dp633
g232
F0.4557128557662248
sba(ineural_net
Weight
p634
(dp635
g232
F0.8584466149053772
sba(ineural_net
Weight
p636
(dp637
g232
F0.4772958231665864
sba(ineural_net
Weight
p638
(dp639
g232
F0.8377326611252833
sba(ineural_net
Weight
p640
(dp641
g232
F0.522467402917885
sba(ineural_net
Weight
p642
(dp643
g232
F0.4186269520778765
sba(ineural_net
Weight
p644
(dp645
g232
F0.7371529941387746
sba(ineural_net
Weight
p646
(dp647
g232
F0.7839294659601203
sba(ineural_net
Weight
p648
(dp649
g232
F0.2261708674627234
sba(ineural_net
Weight
p650
(dp651
g232
F0.44707291222530415
sba(ineural_net
Weight
p652
(dp653
g232
F0.9204155826152779
sba(ineural_net
Weight
p654
(dp655
g232
F0.4198709725853564
sba(ineural_net
Weight
p656
(dp657
g232
F0.333714962703825
sba(ineural_net
Weight
p658
(dp659
g232
F0.7753474540288245
sba(ineural_net
Weight
p660
(dp661
g232
F0.3033200703558597
sba(ineural_net
Weight
p662
(dp663
g232
F0.14000551863009922
sba(ineural_net
Weight
p664
(dp665
g232
F0.3818358991377802
sba(ineural_net
Weight
p666
(dp667
g232
F0.6496970187612807
sba(ineural_net
Weight
p668
(dp669
g232
F0.4465978363747205
sba(ineural_net
Weight
p670
(dp671
g232
F-0.5437563049538813
sba(ineural_net
Weight
p672
(dp673
g232
F0.886707221367573
sba(ineural_net
Weight
p674
(dp675
g232
F0.38673813443700095
sba(ineural_net
Weight
p676
(dp677
g232
F0.7371778261719191
sba(ineural_net
Weight
p678
(dp679
g232
F0.6957079601732106
sba(ineural_net
Weight
p680
(dp681
g232
F0.7081242326623383
sba(ineural_net
Weight
p682
(dp683
g232
F0.6876280453834257
sba(ineural_net
Weight
p684
(dp685
g232
F0.7258582936366474
sba(ineural_net
Weight
p686
(dp687
g232
F0.7006964755891999
sba(ineural_net
Weight
p688
(dp689
g232
F0.708495204008161
sba(ineural_net
Weight
p690
(dp691
g232
F1.0262070474833318
sbasg293
(ineural_net
Weight
p692
(dp693
g232
F-0.009140985948519462
sbsS'error'
p694
F0.04735715285670383
sba(ineural_net
Node
p695
(dp696
g9
(lp697
g18
ag25
ag32
ag39
ag46
ag53
ag60
ag67
ag74
ag81
ag88
ag95
ag102
ag109
ag116
ag123
ag130
ag137
ag144
ag151
ag158
ag165
ag172
ag179
ag186
ag193
ag200
ag207
ag214
ag221
asg14
F-0.35631519092067776
sg624
F-0.0021723217182875666
sg15
F0.41185184605671354
sg16
(lp698
sg228
(lp699
sg291
(lp700
(ineural_net
Weight
p701
(dp702
g232
F-0.4477516028622383
sba(ineural_net
Weight
p703
(dp704
g232
F-0.8490912176444056
sba(ineural_net
Weight
p705
(dp706
g232
F-0.4702172772127145
sba(ineural_net
Weight
p707
(dp708
g232
F-0.8320198980541427
sba(ineural_net
Weight
p709
(dp710
g232
F-0.522166441716525
sba(ineural_net
Weight
p711
(dp712
g232
F-0.41404205651229326
sba(ineural_net
Weight
p713
(dp714
g232
F-0.7366298109751234
sba(ineural_net
Weight
p715
(dp716
g232
F-0.7739670774615954
sba(ineural_net
Weight
p717
(dp718
g232
F-0.2258947320192711
sba(ineural_net
Weight
p719
(dp720
g232
F-0.4517102717609824
sba(ineural_net
Weight
p721
(dp722
g232
F-0.9087232943059687
sba(ineural_net
Weight
p723
(dp724
g232
F-0.41403298149806195
sba(ineural_net
Weight
p725
(dp726
g232
F-0.3333254386879482
sba(ineural_net
Weight
p727
(dp728
g232
F-0.7779664145242173
sba(ineural_net
Weight
p729
(dp730
g232
F-0.30190182300350427
sba(ineural_net
Weight
p731
(dp732
g232
F-0.14033839625473182
sba(ineural_net
Weight
p733
(dp734
g232
F-0.3767017869498433
sba(ineural_net
Weight
p735
(dp736
g232
F-0.6541720171438137
sba(ineural_net
Weight
p737
(dp738
g232
F-0.450498012872904
sba(ineural_net
Weight
p739
(dp740
g232
F0.5476405655431291
sba(ineural_net
Weight
p741
(dp742
g232
F-0.8871281732106038
sba(ineural_net
Weight
p743
(dp744
g232
F-0.3864517397025089
sba(ineural_net
Weight
p745
(dp746
g232
F-0.7354186553305563
sba(ineural_net
Weight
p747
(dp748
g232
F-0.6848022800720174
sba(ineural_net
Weight
p749
(dp750
g232
F-0.7154973890667646
sba(ineural_net
Weight
p751
(dp752
g232
F-0.6832095575807378
sba(ineural_net
Weight
p753
(dp754
g232
F-0.7089078814080428
sba(ineural_net
Weight
p755
(dp756
g232
F-0.69404450759919
sba(ineural_net
Weight
p757
(dp758
g232
F-0.7093089357167897
sba(ineural_net
Weight
p759
(dp760
g232
F-1.024276482792383
sbasg293
(ineural_net
Weight
p761
(dp762
g232
F0.005184374482867762
sbsg694
F-0.047762768614666905
sbasg228
(lp763
g690
ag759
asg291
(lp764
(ineural_net
Weight
p765
(dp766
g232
F-1.568472007828817
sba(ineural_net
Weight
p767
(dp768
g232
F-0.1469416101073426
sba(ineural_net
Weight
p769
(dp770
g232
F0.1514162511588336
sba(ineural_net
Weight
p771
(dp772
g232
F-0.7847100280900304
sba(ineural_net
Weight
p773
(dp774
g232
F0.08397888997054614
sba(ineural_net
Weight
p775
(dp776
g232
F0.23493589981036567
sba(ineural_net
Weight
p777
(dp778
g232
F-0.48978001519531605
sba(ineural_net
Weight
p779
(dp780
g232
F-0.4197982728444405
sba(ineural_net
Weight
p781
(dp782
g232
F-0.9366241550123987
sba(ineural_net
Weight
p783
(dp784
g232
F0.4591724728140988
sba(ineural_net
Weight
p785
(dp786
g232
F0.0473779904487918
sba(ineural_net
Weight
p787
(dp788
g232
F-0.4990599238543638
sba(ineural_net
Weight
p789
(dp790
g232
F0.3734226809003316
sba(ineural_net
Weight
p791
(dp792
g232
F-1.069372058139196
sba(ineural_net
Weight
p793
(dp794
g232
F-0.45420582103277085
sba(ineural_net
Weight
p795
(dp796
g232
F-0.42116551413044623
sba(ineural_net
Weight
p797
(dp798
g232
F-0.267036831427127
sba(ineural_net
Weight
p799
(dp800
g232
F-0.017792984567604503
sba(ineural_net
Weight
p801
(dp802
g232
F-0.6323655187854484
sba(ineural_net
Weight
p803
(dp804
g232
F0.42647864664778057
sba(ineural_net
Weight
p805
(dp806
g232
F-0.13086991509629303
sba(ineural_net
Weight
p807
(dp808
g232
F-0.6721095128747375
sba(ineural_net
Weight
p809
(dp810
g232
F0.17261873021848886
sba(ineural_net
Weight
p811
(dp812
g232
F-0.22116893411369604
sba(ineural_net
Weight
p813
(dp814
g232
F0.40155555494381256
sba(ineural_net
Weight
p815
(dp816
g232
F0.07599570721331367
sba(ineural_net
Weight
p817
(dp818
g232
F-0.3944627719545921
sba(ineural_net
Weight
p819
(dp820
g232
F0.4518753872630728
sba(ineural_net
Weight
p821
(dp822
g232
F-0.016647242139352814
sba(ineural_net
Weight
p823
(dp824
g232
F-0.47735616450130686
sbag289
ag357
ag423
ag489
ag555
ag621
asg293
(ineural_net
Weight
p825
(dp826
g232
F0.004935847946191658
sbsg694
F0.004417426482608927
sbasg228
(lp827
(ineural_net
Weight
p828
(dp829
g232
F-0.11950739233525136
sba(ineural_net
Weight
p830
(dp831
g232
F-2.306872800964194e-06
sba(ineural_net
Weight
p832
(dp833
g232
F0.37902376567883744
sba(ineural_net
Weight
p834
(dp835
g232
F0.37781357566789076
sba(ineural_net
Weight
p836
(dp837
g232
F-0.34463829993086004
sba(ineural_net
Weight
p838
(dp839
g232
F0.3215875082103088
sba(ineural_net
Weight
p840
(dp841
g232
F-0.2049357424979975
sba(ineural_net
Weight
p842
(dp843
g232
F-0.05431563743470504
sba(ineural_net
Weight
p844
(dp845
g232
F0.4072870348376398
sba(ineural_net
Weight
p846
(dp847
g232
F0.011605798603599976
sba(ineural_net
Weight
p848
(dp849
g232
F-0.342165300081054
sba(ineural_net
Weight
p850
(dp851
g232
F-0.06906614754130233
sba(ineural_net
Weight
p852
(dp853
g232
F0.6294204754739322
sba(ineural_net
Weight
p854
(dp855
g232
F-0.14145743340142536
sba(ineural_net
Weight
p856
(dp857
g232
F0.6914750830008145
sba(ineural_net
Weight
p858
(dp859
g232
F0.04745389420664992
sba(ineural_net
Weight
p860
(dp861
g232
F0.07998264932305822
sba(ineural_net
Weight
p862
(dp863
g232
F-0.21861460293277307
sba(ineural_net
Weight
p864
(dp865
g232
F0.5205101012761385
sba(ineural_net
Weight
p866
(dp867
g232
F-1.2497400790797828
sba(ineural_net
Weight
p868
(dp869
g232
F-0.3280587020507742
sba(ineural_net
Weight
p870
(dp871
g232
F-2.073249446972747
sba(ineural_net
Weight
p872
(dp873
g232
F-0.1485355847291454
sba(ineural_net
Weight
p874
(dp875
g232
F-0.02525032829822599
sba(ineural_net
Weight
p876
(dp877
g232
F-0.004521226911324768
sba(ineural_net
Weight
p878
(dp879
g232
F0.23523199184123947
sba(ineural_net
Weight
p880
(dp881
g232
F-0.20491304858013704
sba(ineural_net
Weight
p882
(dp883
g232
F-0.07616405477075083
sba(ineural_net
Weight
p884
(dp885
g232
F-0.2600986591558548
sbag823
asg291
(lp886
sg293
Nsbag224
ag294
ag360
ag426
ag492
ag558
asg14
F-3.2774665891284505
sg624
F7.354144886885821e-05
sg15
F0.03635235978186277
sg16
(lp887
g626
ag695
asg228
(lp888
g688
ag757
asg291
(lp889
(ineural_net
Weight
p890
(dp891
g232
F-0.48898377473129734
sba(ineural_net
Weight
p892
(dp893
g232
F-0.4577199551954813
sba(ineural_net
Weight
p894
(dp895
g232
F-0.3612352703409597
sba(ineural_net
Weight
p896
(dp897
g232
F-0.9371070516966213
sba(ineural_net
Weight
p898
(dp899
g232
F0.4552904981707422
sba(ineural_net
Weight
p900
(dp901
g232
F0.4055100651446818
sba(ineural_net
Weight
p902
(dp903
g232
F-0.15474840325872144
sba(ineural_net
Weight
p904
(dp905
g232
F-0.24737586644274895
sba(ineural_net
Weight
p906
(dp907
g232
F-0.6025253469149457
sba(ineural_net
Weight
p908
(dp909
g232
F-0.09480810492876181
sba(ineural_net
Weight
p910
(dp911
g232
F-0.12451427086937294
sba(ineural_net
Weight
p912
(dp913
g232
F-0.4432455492022283
sba(ineural_net
Weight
p914
(dp915
g232
F-0.25516190484451284
sba(ineural_net
Weight
p916
(dp917
g232
F-0.21662630204594757
sba(ineural_net
Weight
p918
(dp919
g232
F-0.2660103763266283
sba(ineural_net
Weight
p920
(dp921
g232
F-0.7857327754624328
sba(ineural_net
Weight
p922
(dp923
g232
F0.24185720974159497
sba(ineural_net
Weight
p924
(dp925
g232
F0.2075031753721949
sba(ineural_net
Weight
p926
(dp927
g232
F-0.0468645014290002
sba(ineural_net
Weight
p928
(dp929
g232
F0.5341024130342202
sba(ineural_net
Weight
p930
(dp931
g232
F0.3369339779331315
sba(ineural_net
Weight
p932
(dp933
g232
F-0.04112655167341777
sba(ineural_net
Weight
p934
(dp935
g232
F0.2537401505361894
sba(ineural_net
Weight
p936
(dp937
g232
F0.2553629527401206
sba(ineural_net
Weight
p938
(dp939
g232
F0.08755900878934099
sba(ineural_net
Weight
p940
(dp941
g232
F0.38386957344462935
sba(ineural_net
Weight
p942
(dp943
g232
F-0.08885824484636631
sba(ineural_net
Weight
p944
(dp945
g232
F-0.14219601534556567
sba(ineural_net
Weight
p946
(dp947
g232
F-0.31555884009114255
sbag884
ag287
ag355
ag421
ag487
ag553
ag619
asg293
(ineural_net
Weight
p948
(dp949
g232
F-0.0015889138793949605
sbsg694
F0.003054381144885593
sbag221
asg228
(lp950
(ineural_net
Weight
p951
(dp952
g232
F-0.1600665229208278
sba(ineural_net
Weight
p953
(dp954
g232
F-0.20177662282154551
sba(ineural_net
Weight
p955
(dp956
g232
F-0.28804309287110835
sba(ineural_net
Weight
p957
(dp958
g232
F-0.41696205587172724
sba(ineural_net
Weight
p959
(dp960
g232
F0.0933179481080001
sba(ineural_net
Weight
p961
(dp962
g232
F-0.44445621728344126
sba(ineural_net
Weight
p963
(dp964
g232
F-0.6218496314286881
sba(ineural_net
Weight
p965
(dp966
g232
F0.10740013191957949
sba(ineural_net
Weight
p967
(dp968
g232
F0.7638735696449552
sba(ineural_net
Weight
p969
(dp970
g232
F-0.029937320178354775
sba(ineural_net
Weight
p971
(dp972
g232
F-0.1175754403182391
sba(ineural_net
Weight
p973
(dp974
g232
F-0.5942975214513454
sba(ineural_net
Weight
p975
(dp976
g232
F-0.3689051880947579
sba(ineural_net
Weight
p977
(dp978
g232
F0.09639526855722218
sba(ineural_net
Weight
p979
(dp980
g232
F-0.5665546699900014
sba(ineural_net
Weight
p981
(dp982
g232
F-2.1237483495517737
sba(ineural_net
Weight
p983
(dp984
g232
F-0.0076788099362702115
sba(ineural_net
Weight
p985
(dp986
g232
F-0.4358947410569719
sba(ineural_net
Weight
p987
(dp988
g232
F-0.16159899037446643
sba(ineural_net
Weight
p989
(dp990
g232
F-1.1395663048681712
sba(ineural_net
Weight
p991
(dp992
g232
F-0.057830015206628914
sba(ineural_net
Weight
p993
(dp994
g232
F-0.3510428803317673
sba(ineural_net
Weight
p995
(dp996
g232
F0.23583591724205957
sba(ineural_net
Weight
p997
(dp998
g232
F0.12798973371453176
sba(ineural_net
Weight
p999
(dp1000
g232
F0.40343829952334187
sba(ineural_net
Weight
p1001
(dp1002
g232
F-0.559157017986107
sba(ineural_net
Weight
p1003
(dp1004
g232
F-0.17210132958637275
sba(ineural_net
Weight
p1005
(dp1006
g232
F-0.0587175808307418
sbag946
ag821
asg291
(lp1007
sg293
Nsbag217
ag224
ag294
ag360
ag426
ag492
ag558
asg14
F-4.053152699314797
sg624
F7.852583349273282e-05
sg15
F0.017071051562912307
sg16
(lp1008
g626
ag695
asg228
(lp1009
g686
ag755
asg291
(lp1010
(ineural_net
Weight
p1011
(dp1012
g232
F-0.622115190675739
sba(ineural_net
Weight
p1013
(dp1014
g232
F-0.5014850445999438
sba(ineural_net
Weight
p1015
(dp1016
g232
F-0.3717411057242182
sba(ineural_net
Weight
p1017
(dp1018
g232
F-0.7172461401633087
sba(ineural_net
Weight
p1019
(dp1020
g232
F0.6079720326035912
sba(ineural_net
Weight
p1021
(dp1022
g232
F0.584805399463729
sba(ineural_net
Weight
p1023
(dp1024
g232
F-0.37459307481622184
sba(ineural_net
Weight
p1025
(dp1026
g232
F-0.5119962548332162
sba(ineural_net
Weight
p1027
(dp1028
g232
F-0.26069112833131713
sba(ineural_net
Weight
p1029
(dp1030
g232
F-0.07382141780544944
sba(ineural_net
Weight
p1031
(dp1032
g232
F-0.46560925717862434
sba(ineural_net
Weight
p1033
(dp1034
g232
F-0.19696137085808546
sba(ineural_net
Weight
p1035
(dp1036
g232
F0.08656562066381622
sba(ineural_net
Weight
p1037
(dp1038
g232
F0.013007625873073997
sba(ineural_net
Weight
p1039
(dp1040
g232
F-0.44733489822604344
sba(ineural_net
Weight
p1041
(dp1042
g232
F-0.9436897162842118
sba(ineural_net
Weight
p1043
(dp1044
g232
F0.24860050706858033
sba(ineural_net
Weight
p1045
(dp1046
g232
F0.2832691252166598
sba(ineural_net
Weight
p1047
(dp1048
g232
F-0.33367560740449115
sba(ineural_net
Weight
p1049
(dp1050
g232
F1.0050683224801222
sba(ineural_net
Weight
p1051
(dp1052
g232
F0.29821433502549727
sba(ineural_net
Weight
p1053
(dp1054
g232
F-0.13992821889595575
sba(ineural_net
Weight
p1055
(dp1056
g232
F0.34801374369956606
sba(ineural_net
Weight
p1057
(dp1058
g232
F0.43367864793879557
sba(ineural_net
Weight
p1059
(dp1060
g232
F-0.5495460336370531
sba(ineural_net
Weight
p1061
(dp1062
g232
F0.23444569328323464
sba(ineural_net
Weight
p1063
(dp1064
g232
F-0.2614446744921887
sba(ineural_net
Weight
p1065
(dp1066
g232
F-0.5935191377940989
sbag1005
ag882
ag285
ag353
ag419
ag485
ag551
ag617
asg293
(ineural_net
Weight
p1067
(dp1068
g232
F0.0014244460189022905
sbsg694
F0.0030045458720986016
sbag214
ag221
asg228
(lp1069
(ineural_net
Weight
p1070
(dp1071
g232
F-0.5065359466825625
sba(ineural_net
Weight
p1072
(dp1073
g232
F0.30047060928960406
sba(ineural_net
Weight
p1074
(dp1075
g232
F-0.3052662053800354
sba(ineural_net
Weight
p1076
(dp1077
g232
F0.4720568803718064
sba(ineural_net
Weight
p1078
(dp1079
g232
F1.2074666381040342
sba(ineural_net
Weight
p1080
(dp1081
g232
F-0.37296163560672974
sba(ineural_net
Weight
p1082
(dp1083
g232
F0.4279270122420992
sba(ineural_net
Weight
p1084
(dp1085
g232
F-0.11317921052849736
sba(ineural_net
Weight
p1086
(dp1087
g232
F-0.23940650268172145
sba(ineural_net
Weight
p1088
(dp1089
g232
F-0.61892133732215
sba(ineural_net
Weight
p1090
(dp1091
g232
F0.2908944592559699
sba(ineural_net
Weight
p1092
(dp1093
g232
F0.06340646856495541
sba(ineural_net
Weight
p1094
(dp1095
g232
F-0.4720146631823999
sba(ineural_net
Weight
p1096
(dp1097
g232
F-0.29147805958186024
sba(ineural_net
Weight
p1098
(dp1099
g232
F-0.13952175339310732
sba(ineural_net
Weight
p1100
(dp1101
g232
F-0.39117312035207397
sba(ineural_net
Weight
p1102
(dp1103
g232
F-0.47132980460561413
sba(ineural_net
Weight
p1104
(dp1105
g232
F-0.30767095177140663
sba(ineural_net
Weight
p1106
(dp1107
g232
F-0.2939336514442833
sba(ineural_net
Weight
p1108
(dp1109
g232
F-0.30456676217341316
sba(ineural_net
Weight
p1110
(dp1111
g232
F0.22590369545320055
sba(ineural_net
Weight
p1112
(dp1113
g232
F-1.0678357546132748
sba(ineural_net
Weight
p1114
(dp1115
g232
F-0.23072784113150013
sba(ineural_net
Weight
p1116
(dp1117
g232
F-0.5691272512344372
sba(ineural_net
Weight
p1118
(dp1119
g232
F-0.7795966590657123
sba(ineural_net
Weight
p1120
(dp1121
g232
F0.28703539419778284
sba(ineural_net
Weight
p1122
(dp1123
g232
F-0.35906028221512837
sbag1065
ag944
ag819
asg291
(lp1124
sg293
Nsbag210
ag217
ag224
ag294
ag360
ag426
ag492
ag558
asg14
F-3.881281652050824
sg624
F0.00010632486143691833
sg15
F0.020207605725296014
sg16
(lp1125
g626
ag695
asg228
(lp1126
g684
ag753
asg291
(lp1127
(ineural_net
Weight
p1128
(dp1129
g232
F-0.5405376323462797
sba(ineural_net
Weight
p1130
(dp1131
g232
F-0.27890833485058075
sba(ineural_net
Weight
p1132
(dp1133
g232
F-0.3594676608079916
sba(ineural_net
Weight
p1134
(dp1135
g232
F-0.5890966686159812
sba(ineural_net
Weight
p1136
(dp1137
g232
F0.5595979777738005
sba(ineural_net
Weight
p1138
(dp1139
g232
F0.5285004914733114
sba(ineural_net
Weight
p1140
(dp1141
g232
F-0.36938172700094785
sba(ineural_net
Weight
p1142
(dp1143
g232
F-0.6493690663103957
sba(ineural_net
Weight
p1144
(dp1145
g232
F-0.2962910289029914
sba(ineural_net
Weight
p1146
(dp1147
g232
F-0.07119872770056018
sba(ineural_net
Weight
p1148
(dp1149
g232
F-0.43768104384433437
sba(ineural_net
Weight
p1150
(dp1151
g232
F-0.31962812557511183
sba(ineural_net
Weight
p1152
(dp1153
g232
F-0.007265689909963262
sba(ineural_net
Weight
p1154
(dp1155
g232
F-0.19612391182926955
sba(ineural_net
Weight
p1156
(dp1157
g232
F-0.2281284994086463
sba(ineural_net
Weight
p1158
(dp1159
g232
F-0.7874436004910295
sba(ineural_net
Weight
p1160
(dp1161
g232
F0.3120740703051406
sba(ineural_net
Weight
p1162
(dp1163
g232
F0.26146933825862484
sba(ineural_net
Weight
p1164
(dp1165
g232
F-0.1768322628621454
sba(ineural_net
Weight
p1166
(dp1167
g232
F0.8941445008197542
sba(ineural_net
Weight
p1168
(dp1169
g232
F0.3538513209476732
sba(ineural_net
Weight
p1170
(dp1171
g232
F-0.11809445513002577
sba(ineural_net
Weight
p1172
(dp1173
g232
F0.3522120797958951
sba(ineural_net
Weight
p1174
(dp1175
g232
F0.1785013834078568
sba(ineural_net
Weight
p1176
(dp1177
g232
F-0.4094521330179838
sba(ineural_net
Weight
p1178
(dp1179
g232
F0.17145098037425166
sba(ineural_net
Weight
p1180
(dp1181
g232
F-0.139262151683448
sbag1122
ag1003
ag880
ag283
ag351
ag417
ag483
ag549
ag615
asg293
(ineural_net
Weight
p1182
(dp1183
g232
F0.00784475473297846
sbsg694
F0.0030905346142250825
sbag207
ag214
ag221
asg228
(lp1184
(ineural_net
Weight
p1185
(dp1186
g232
F-0.26134838695901147
sba(ineural_net
Weight
p1187
(dp1188
g232
F-0.10064917390098888
sba(ineural_net
Weight
p1189
(dp1190
g232
F0.09540980178482371
sba(ineural_net
Weight
p1191
(dp1192
g232
F0.024385238343825066
sba(ineural_net
Weight
p1193
(dp1194
g232
F-0.39172726804884545
sba(ineural_net
Weight
p1195
(dp1196
g232
F0.0806987743709711
sba(ineural_net
Weight
p1197
(dp1198
g232
F0.2680021200890557
sba(ineural_net
Weight
p1199
(dp1200
g232
F-0.28028724296415886
sba(ineural_net
Weight
p1201
(dp1202
g232
F-0.14011491263332151
sba(ineural_net
Weight
p1203
(dp1204
g232
F-0.13182091139226376
sba(ineural_net
Weight
p1205
(dp1206
g232
F-0.314338298753008
sba(ineural_net
Weight
p1207
(dp1208
g232
F0.20002944358517769
sba(ineural_net
Weight
p1209
(dp1210
g232
F0.1406220496709907
sba(ineural_net
Weight
p1211
(dp1212
g232
F-0.16983158728214787
sba(ineural_net
Weight
p1213
(dp1214
g232
F0.13655468191595868
sba(ineural_net
Weight
p1215
(dp1216
g232
F-0.9673021505398278
sba(ineural_net
Weight
p1217
(dp1218
g232
F-0.3363153795365293
sba(ineural_net
Weight
p1219
(dp1220
g232
F-0.015900975551000385
sba(ineural_net
Weight
p1221
(dp1222
g232
F-0.06300948507757434
sba(ineural_net
Weight
p1223
(dp1224
g232
F-0.10133771191534309
sba(ineural_net
Weight
p1225
(dp1226
g232
F-0.20416399005443442
sba(ineural_net
Weight
p1227
(dp1228
g232
F-1.0107122911125117
sba(ineural_net
Weight
p1229
(dp1230
g232
F-0.38479788335799536
sba(ineural_net
Weight
p1231
(dp1232
g232
F-0.3167133410479514
sba(ineural_net
Weight
p1233
(dp1234
g232
F-0.5761539288677118
sba(ineural_net
Weight
p1235
(dp1236
g232
F0.18731049437798244
sbag1180
ag1063
ag942
ag817
asg291
(lp1237
sg293
Nsbag203
ag210
ag217
ag224
ag294
ag360
ag426
ag492
ag558
asg14
F-3.430097205412334
sg624
F9.15793078646252e-05
sg15
F0.03136797862162551
sg16
(lp1238
g626
ag695
asg228
(lp1239
g682
ag751
asg291
(lp1240
(ineural_net
Weight
p1241
(dp1242
g232
F-0.5733752618659967
sba(ineural_net
Weight
p1243
(dp1244
g232
F-0.5177394700866158
sba(ineural_net
Weight
p1245
(dp1246
g232
F-0.8811220159931666
sba(ineural_net
Weight
p1247
(dp1248
g232
F-0.5336474317124023
sba(ineural_net
Weight
p1249
(dp1250
g232
F0.3324860209854247
sba(ineural_net
Weight
p1251
(dp1252
g232
F0.2908951568932902
sba(ineural_net
Weight
p1253
(dp1254
g232
F-0.8901741273668539
sba(ineural_net
Weight
p1255
(dp1256
g232
F-0.49391315090608323
sba(ineural_net
Weight
p1257
(dp1258
g232
F-0.5466574107997869
sba(ineural_net
Weight
p1259
(dp1260
g232
F0.34444764923823246
sba(ineural_net
Weight
p1261
(dp1262
g232
F0.20558247548599806
sba(ineural_net
Weight
p1263
(dp1264
g232
F-0.25125616096561076
sba(ineural_net
Weight
p1265
(dp1266
g232
F-0.3419759025512528
sba(ineural_net
Weight
p1267
(dp1268
g232
F-0.35637267570397263
sba(ineural_net
Weight
p1269
(dp1270
g232
F-0.4212484400444629
sba(ineural_net
Weight
p1271
(dp1272
g232
F-0.794366743466181
sba(ineural_net
Weight
p1273
(dp1274
g232
F-0.03059244399164842
sba(ineural_net
Weight
p1275
(dp1276
g232
F0.4030226149611973
sba(ineural_net
Weight
p1277
(dp1278
g232
F0.17344507316476207
sba(ineural_net
Weight
p1279
(dp1280
g232
F0.2702078222011357
sba(ineural_net
Weight
p1281
(dp1282
g232
F0.7616305488776177
sba(ineural_net
Weight
p1283
(dp1284
g232
F0.27251226094483694
sba(ineural_net
Weight
p1285
(dp1286
g232
F-0.08178254973418041
sba(ineural_net
Weight
p1287
(dp1288
g232
F-0.15571130614660472
sba(ineural_net
Weight
p1289
(dp1290
g232
F0.09015101461693895
sba(ineural_net
Weight
p1291
(dp1292
g232
F0.23456977352335937
sbag1235
ag1120
ag1001
ag878
ag281
ag349
ag415
ag481
ag547
ag613
asg293
(ineural_net
Weight
p1293
(dp1294
g232
F-0.006785816338162784
sbsg694
F0.002953054607680473
sbag200
ag207
ag214
ag221
asg228
(lp1295
(ineural_net
Weight
p1296
(dp1297
g232
F-0.100807040329856
sba(ineural_net
Weight
p1298
(dp1299
g232
F-0.2904808160830652
sba(ineural_net
Weight
p1300
(dp1301
g232
F0.11186483224752487
sba(ineural_net
Weight
p1302
(dp1303
g232
F-0.42868309100802465
sba(ineural_net
Weight
p1304
(dp1305
g232
F-0.5147983465443695
sba(ineural_net
Weight
p1306
(dp1307
g232
F-0.5292001370736382
sba(ineural_net
Weight
p1308
(dp1309
g232
F0.5954380879264092
sba(ineural_net
Weight
p1310
(dp1311
g232
F0.13128461236223488
sba(ineural_net
Weight
p1312
(dp1313
g232
F-0.308934427415291
sba(ineural_net
Weight
p1314
(dp1315
g232
F-0.020071863297781156
sba(ineural_net
Weight
p1316
(dp1317
g232
F0.08567559276420322
sba(ineural_net
Weight
p1318
(dp1319
g232
F0.42079654542595485
sba(ineural_net
Weight
p1320
(dp1321
g232
F-0.18077999835067315
sba(ineural_net
Weight
p1322
(dp1323
g232
F0.10036174437695247
sba(ineural_net
Weight
p1324
(dp1325
g232
F-0.011701103110511516
sba(ineural_net
Weight
p1326
(dp1327
g232
F0.1918630586492826
sba(ineural_net
Weight
p1328
(dp1329
g232
F0.16186611789259978
sba(ineural_net
Weight
p1330
(dp1331
g232
F0.37392662671439364
sba(ineural_net
Weight
p1332
(dp1333
g232
F-0.08492948166828851
sba(ineural_net
Weight
p1334
(dp1335
g232
F-1.0372742910838413
sba(ineural_net
Weight
p1336
(dp1337
g232
F0.15656393064757967
sba(ineural_net
Weight
p1338
(dp1339
g232
F-0.29662807608398134
sba(ineural_net
Weight
p1340
(dp1341
g232
F0.05224627734203218
sba(ineural_net
Weight
p1342
(dp1343
g232
F0.1604401391545125
sba(ineural_net
Weight
p1344
(dp1345
g232
F0.1532880899416953
sbag1291
ag1178
ag1061
ag940
ag815
asg291
(lp1346
sg293
Nsbag196
ag203
ag210
ag217
ag224
ag294
ag360
ag426
ag492
ag558
asg14
F-4.674611270709943
sg624
F3.5363100667459754e-05
sg15
F0.009242922329572408
sg16
(lp1347
g626
ag695
asg228
(lp1348
g680
ag749
asg291
(lp1349
(ineural_net
Weight
p1350
(dp1351
g232
F-0.6501557862981958
sba(ineural_net
Weight
p1352
(dp1353
g232
F-0.656026018223293
sba(ineural_net
Weight
p1354
(dp1355
g232
F-0.21213357470977842
sba(ineural_net
Weight
p1356
(dp1357
g232
F-0.599169937224484
sba(ineural_net
Weight
p1358
(dp1359
g232
F0.4757696661141852
sba(ineural_net
Weight
p1360
(dp1361
g232
F0.5413618718062999
sba(ineural_net
Weight
p1362
(dp1363
g232
F-0.7430528425821062
sba(ineural_net
Weight
p1364
(dp1365
g232
F-0.5965710007752641
sba(ineural_net
Weight
p1366
(dp1367
g232
F-0.06561665365550527
sba(ineural_net
Weight
p1368
(dp1369
g232
F-0.10809796992299119
sba(ineural_net
Weight
p1370
(dp1371
g232
F-0.42809461216718264
sba(ineural_net
Weight
p1372
(dp1373
g232
F-0.11718832590915544
sba(ineural_net
Weight
p1374
(dp1375
g232
F0.13332051442246684
sba(ineural_net
Weight
p1376
(dp1377
g232
F-0.03442918644872045
sba(ineural_net
Weight
p1378
(dp1379
g232
F-0.8015742118786944
sba(ineural_net
Weight
p1380
(dp1381
g232
F-0.9555404977850868
sba(ineural_net
Weight
p1382
(dp1383
g232
F0.15891636394664396
sba(ineural_net
Weight
p1384
(dp1385
g232
F0.23372124726868743
sba(ineural_net
Weight
p1386
(dp1387
g232
F-0.4496364236599653
sba(ineural_net
Weight
p1388
(dp1389
g232
F1.367615822692676
sba(ineural_net
Weight
p1390
(dp1391
g232
F0.2472450911246059
sba(ineural_net
Weight
p1392
(dp1393
g232
F-0.43569644530113605
sba(ineural_net
Weight
p1394
(dp1395
g232
F0.29732150418444975
sba(ineural_net
Weight
p1396
(dp1397
g232
F0.7130963335802216
sba(ineural_net
Weight
p1398
(dp1399
g232
F-0.7305932189986497
sbag1344
ag1233
ag1118
ag999
ag876
ag279
ag347
ag413
ag479
ag545
ag611
asg293
(ineural_net
Weight
p1400
(dp1401
g232
F0.002895560644538527
sbsg694
F0.003067116495933733
sbag193
ag200
ag207
ag214
ag221
asg228
(lp1402
(ineural_net
Weight
p1403
(dp1404
g232
F-0.10140436371540937
sba(ineural_net
Weight
p1405
(dp1406
g232
F-0.04577396028438619
sba(ineural_net
Weight
p1407
(dp1408
g232
F0.5993162153582902
sba(ineural_net
Weight
p1409
(dp1410
g232
F-0.14783767526852673
sba(ineural_net
Weight
p1411
(dp1412
g232
F0.5321134284695128
sba(ineural_net
Weight
p1413
(dp1414
g232
F0.135566704020739
sba(ineural_net
Weight
p1415
(dp1416
g232
F-0.6899985256516755
sba(ineural_net
Weight
p1417
(dp1418
g232
F-0.43647880539302686
sba(ineural_net
Weight
p1419
(dp1420
g232
F-0.7575323074675071
sba(ineural_net
Weight
p1421
(dp1422
g232
F0.11069821083679582
sba(ineural_net
Weight
p1423
(dp1424
g232
F0.35017889910001443
sba(ineural_net
Weight
p1425
(dp1426
g232
F0.6887295889606042
sba(ineural_net
Weight
p1427
(dp1428
g232
F0.317742053780041
sba(ineural_net
Weight
p1429
(dp1430
g232
F-0.3567140217339277
sba(ineural_net
Weight
p1431
(dp1432
g232
F0.5629598255127563
sba(ineural_net
Weight
p1433
(dp1434
g232
F-0.17663635492920776
sba(ineural_net
Weight
p1435
(dp1436
g232
F-0.09994682605630029
sba(ineural_net
Weight
p1437
(dp1438
g232
F-0.31805933234009354
sba(ineural_net
Weight
p1439
(dp1440
g232
F0.36196957492088716
sba(ineural_net
Weight
p1441
(dp1442
g232
F-1.4810825627732742
sba(ineural_net
Weight
p1443
(dp1444
g232
F0.18261566766392573
sba(ineural_net
Weight
p1445
(dp1446
g232
F-1.4641750578810966
sba(ineural_net
Weight
p1447
(dp1448
g232
F-0.48819905290202326
sba(ineural_net
Weight
p1449
(dp1450
g232
F-0.4443725250953781
sbag1398
ag1289
ag1176
ag1059
ag938
ag813
asg291
(lp1451
sg293
Nsbag189
ag196
ag203
ag210
ag217
ag224
ag294
ag360
ag426
ag492
ag558
asg14
F-4.132495765593143
sg624
F7.974436017055512e-05
sg15
F0.01578948242700682
sg16
(lp1452
g626
ag695
asg228
(lp1453
g678
ag747
asg291
(lp1454
(ineural_net
Weight
p1455
(dp1456
g232
F-0.593281982160198
sba(ineural_net
Weight
p1457
(dp1458
g232
F-0.4441179754982968
sba(ineural_net
Weight
p1459
(dp1460
g232
F-0.28723012456349384
sba(ineural_net
Weight
p1461
(dp1462
g232
F-0.5491636685225265
sba(ineural_net
Weight
p1463
(dp1464
g232
F0.5652953084138327
sba(ineural_net
Weight
p1465
(dp1466
g232
F0.5248152248375724
sba(ineural_net
Weight
p1467
(dp1468
g232
F-0.5554804955861659
sba(ineural_net
Weight
p1469
(dp1470
g232
F-0.5869741513862113
sba(ineural_net
Weight
p1471
(dp1472
g232
F-0.1617702054400574
sba(ineural_net
Weight
p1473
(dp1474
g232
F-0.06970724794803024
sba(ineural_net
Weight
p1475
(dp1476
g232
F-0.38023173005203476
sba(ineural_net
Weight
p1477
(dp1478
g232
F-0.2413991357673611
sba(ineural_net
Weight
p1479
(dp1480
g232
F0.015961441505886555
sba(ineural_net
Weight
p1481
(dp1482
g232
F-0.13573450001864779
sba(ineural_net
Weight
p1483
(dp1484
g232
F-0.5259296127444748
sba(ineural_net
Weight
p1485
(dp1486
g232
F-0.8750238550691878
sba(ineural_net
Weight
p1487
(dp1488
g232
F0.1699914002203953
sba(ineural_net
Weight
p1489
(dp1490
g232
F0.2644446709930682
sba(ineural_net
Weight
p1491
(dp1492
g232
F-0.31600639899965366
sba(ineural_net
Weight
p1493
(dp1494
g232
F1.1492453188227743
sba(ineural_net
Weight
p1495
(dp1496
g232
F0.24972994024006864
sba(ineural_net
Weight
p1497
(dp1498
g232
F-0.31684368644312166
sba(ineural_net
Weight
p1499
(dp1500
g232
F0.27542187745834545
sba(ineural_net
Weight
p1501
(dp1502
g232
F0.4189847390698772
sbag1449
ag1342
ag1231
ag1116
ag997
ag874
ag277
ag345
ag411
ag477
ag543
ag609
asg293
(ineural_net
Weight
p1503
(dp1504
g232
F-0.0068358160849499704
sbsg694
F0.002973806184250193
sbag186
ag193
ag200
ag207
ag214
ag221
asg228
(lp1505
(ineural_net
Weight
p1506
(dp1507
g232
F1.3442858804497793
sba(ineural_net
Weight
p1508
(dp1509
g232
F-0.09996724879037872
sba(ineural_net
Weight
p1510
(dp1511
g232
F0.6647747378930405
sba(ineural_net
Weight
p1512
(dp1513
g232
F-0.03485714171727954
sba(ineural_net
Weight
p1514
(dp1515
g232
F2.2431582435566266
sba(ineural_net
Weight
p1516
(dp1517
g232
F1.201010007347206
sba(ineural_net
Weight
p1518
(dp1519
g232
F0.6204486701407039
sba(ineural_net
Weight
p1520
(dp1521
g232
F0.31250567833449516
sba(ineural_net
Weight
p1522
(dp1523
g232
F1.7292409295952016
sba(ineural_net
Weight
p1524
(dp1525
g232
F1.3588206059987715
sba(ineural_net
Weight
p1526
(dp1527
g232
F-0.14343151657826178
sba(ineural_net
Weight
p1528
(dp1529
g232
F0.45487130806176895
sba(ineural_net
Weight
p1530
(dp1531
g232
F0.8648424923069696
sba(ineural_net
Weight
p1532
(dp1533
g232
F0.2112974642082353
sba(ineural_net
Weight
p1534
(dp1535
g232
F0.889735270432762
sba(ineural_net
Weight
p1536
(dp1537
g232
F1.483617895666891
sba(ineural_net
Weight
p1538
(dp1539
g232
F1.5235633527419847
sba(ineural_net
Weight
p1540
(dp1541
g232
F0.26095611813572384
sba(ineural_net
Weight
p1542
(dp1543
g232
F0.5268851374816726
sba(ineural_net
Weight
p1544
(dp1545
g232
F-3.811614175238344
sba(ineural_net
Weight
p1546
(dp1547
g232
F-0.03338396819328225
sba(ineural_net
Weight
p1548
(dp1549
g232
F2.2901135464649744
sba(ineural_net
Weight
p1550
(dp1551
g232
F0.38670925491195557
sbag1501
ag1396
ag1287
ag1174
ag1057
ag936
ag811
asg291
(lp1552
sg293
Nsbag182
ag189
ag196
ag203
ag210
ag217
ag224
ag294
ag360
ag426
ag492
ag558
asg14
F-4.326808585058822
sg624
F6.559207421962069e-05
sg15
F0.01303741815514739
sg16
(lp1553
g626
ag695
asg228
(lp1554
g676
ag745
asg291
(lp1555
(ineural_net
Weight
p1556
(dp1557
g232
F-0.4952216670445325
sba(ineural_net
Weight
p1558
(dp1559
g232
F-0.6219377400205469
sba(ineural_net
Weight
p1560
(dp1561
g232
F-0.07250506666369391
sba(ineural_net
Weight
p1562
(dp1563
g232
F-0.49495803512146214
sba(ineural_net
Weight
p1564
(dp1565
g232
F0.4667300356595873
sba(ineural_net
Weight
p1566
(dp1567
g232
F0.48521180118519835
sba(ineural_net
Weight
p1568
(dp1569
g232
F-0.8370614702354037
sba(ineural_net
Weight
p1570
(dp1571
g232
F-0.5293832039436134
sba(ineural_net
Weight
p1572
(dp1573
g232
F-0.27728076932678025
sba(ineural_net
Weight
p1574
(dp1575
g232
F0.062349671302903656
sba(ineural_net
Weight
p1576
(dp1577
g232
F-0.31581924439759834
sba(ineural_net
Weight
p1578
(dp1579
g232
F-0.35526728347812414
sba(ineural_net
Weight
p1580
(dp1581
g232
F0.08515816971896525
sba(ineural_net
Weight
p1582
(dp1583
g232
F-0.37805200437518766
sba(ineural_net
Weight
p1584
(dp1585
g232
F-0.46303419467215595
sba(ineural_net
Weight
p1586
(dp1587
g232
F-0.7060735781354515
sba(ineural_net
Weight
p1588
(dp1589
g232
F0.16004762278629847
sba(ineural_net
Weight
p1590
(dp1591
g232
F0.28932063403327274
sba(ineural_net
Weight
p1592
(dp1593
g232
F-0.3843683064297713
sba(ineural_net
Weight
p1594
(dp1595
g232
F1.1580515253642298
sba(ineural_net
Weight
p1596
(dp1597
g232
F0.13847725718353238
sba(ineural_net
Weight
p1598
(dp1599
g232
F-0.43825091561057683
sba(ineural_net
Weight
p1600
(dp1601
g232
F0.20473612995396903
sbag1550
ag1447
ag1340
ag1229
ag1114
ag995
ag872
ag275
ag343
ag409
ag475
ag541
ag607
asg293
(ineural_net
Weight
p1602
(dp1603
g232
F-0.007549470087872266
sbsg694
F0.0031724032159937184
sbag179
ag186
ag193
ag200
ag207
ag214
ag221
asg228
(lp1604
(ineural_net
Weight
p1605
(dp1606
g232
F1.5753615987700023
sba(ineural_net
Weight
p1607
(dp1608
g232
F0.0788585627113071
sba(ineural_net
Weight
p1609
(dp1610
g232
F0.22080964793955363
sba(ineural_net
Weight
p1611
(dp1612
g232
F0.041685922717121675
sba(ineural_net
Weight
p1613
(dp1614
g232
F3.0594028026545836
sba(ineural_net
Weight
p1615
(dp1616
g232
F0.797956945746152
sba(ineural_net
Weight
p1617
(dp1618
g232
F1.8069393952392947
sba(ineural_net
Weight
p1619
(dp1620
g232
F0.339521955051352
sba(ineural_net
Weight
p1621
(dp1622
g232
F2.013244544306352
sba(ineural_net
Weight
p1623
(dp1624
g232
F1.6007648761154414
sba(ineural_net
Weight
p1625
(dp1626
g232
F0.2897418952873924
sba(ineural_net
Weight
p1627
(dp1628
g232
F0.6439693456700019
sba(ineural_net
Weight
p1629
(dp1630
g232
F0.4645941576103213
sba(ineural_net
Weight
p1631
(dp1632
g232
F0.2732470431115839
sba(ineural_net
Weight
p1633
(dp1634
g232
F0.810385046380779
sba(ineural_net
Weight
p1635
(dp1636
g232
F1.5069530759270122
sba(ineural_net
Weight
p1637
(dp1638
g232
F1.3537676053162018
sba(ineural_net
Weight
p1639
(dp1640
g232
F0.3211762214684862
sba(ineural_net
Weight
p1641
(dp1642
g232
F0.1103118769408854
sba(ineural_net
Weight
p1643
(dp1644
g232
F-4.026603629601913
sba(ineural_net
Weight
p1645
(dp1646
g232
F0.3224787599064459
sba(ineural_net
Weight
p1647
(dp1648
g232
F2.5418398592627285
sbag1600
ag1499
ag1394
ag1285
ag1172
ag1055
ag934
ag809
asg291
(lp1649
sg293
Nsbag175
ag182
ag189
ag196
ag203
ag210
ag217
ag224
ag294
ag360
ag426
ag492
ag558
asg14
F-8.792272966035663
sg624
F2.8856600253869785e-05
sg15
F0.00015187923540683636
sg16
(lp1650
g626
ag695
asg228
(lp1651
g674
ag743
asg291
(lp1652
(ineural_net
Weight
p1653
(dp1654
g232
F-0.8747388142016975
sba(ineural_net
Weight
p1655
(dp1656
g232
F-0.9831327877888967
sba(ineural_net
Weight
p1657
(dp1658
g232
F0.9120067306283148
sba(ineural_net
Weight
p1659
(dp1660
g232
F0.8849386716326185
sba(ineural_net
Weight
p1661
(dp1662
g232
F3.1843747357089947
sba(ineural_net
Weight
p1663
(dp1664
g232
F1.834901329988045
sba(ineural_net
Weight
p1665
(dp1666
g232
F-1.015427383488602
sba(ineural_net
Weight
p1667
(dp1668
g232
F-1.7291215967182643
sba(ineural_net
Weight
p1669
(dp1670
g232
F-1.604424920518217
sba(ineural_net
Weight
p1671
(dp1672
g232
F-0.6961355849614885
sba(ineural_net
Weight
p1673
(dp1674
g232
F0.5284410412532763
sba(ineural_net
Weight
p1675
(dp1676
g232
F0.11461842260805777
sba(ineural_net
Weight
p1677
(dp1678
g232
F0.03435030907061358
sba(ineural_net
Weight
p1679
(dp1680
g232
F-2.31303312225315
sba(ineural_net
Weight
p1681
(dp1682
g232
F-2.451432744074503
sba(ineural_net
Weight
p1683
(dp1684
g232
F-0.24554180165349782
sba(ineural_net
Weight
p1685
(dp1686
g232
F-0.2500947631433654
sba(ineural_net
Weight
p1687
(dp1688
g232
F0.8785604311596446
sba(ineural_net
Weight
p1689
(dp1690
g232
F0.7121909615516984
sba(ineural_net
Weight
p1691
(dp1692
g232
F1.957344526301029
sba(ineural_net
Weight
p1693
(dp1694
g232
F1.5009780277833726
sba(ineural_net
Weight
p1695
(dp1696
g232
F-1.7179561295402697
sbag1647
ag1548
ag1445
ag1338
ag1227
ag1112
ag993
ag870
ag273
ag341
ag407
ag473
ag539
ag605
asg293
(ineural_net
Weight
p1697
(dp1698
g232
F0.003264091367947187
sbsg694
F0.0016656458493956522
sbag172
ag179
ag186
ag193
ag200
ag207
ag214
ag221
asg228
(lp1699
(ineural_net
Weight
p1700
(dp1701
g232
F0.008454349069592046
sba(ineural_net
Weight
p1702
(dp1703
g232
F-0.16492445303549022
sba(ineural_net
Weight
p1704
(dp1705
g232
F-0.5343648456498218
sba(ineural_net
Weight
p1706
(dp1707
g232
F0.02564421879651733
sba(ineural_net
Weight
p1708
(dp1709
g232
F0.10311845703920813
sba(ineural_net
Weight
p1710
(dp1711
g232
F-0.8953944318451486
sba(ineural_net
Weight
p1712
(dp1713
g232
F0.38087242614809197
sba(ineural_net
Weight
p1714
(dp1715
g232
F-0.19496352246343326
sba(ineural_net
Weight
p1716
(dp1717
g232
F0.09501323364830247
sba(ineural_net
Weight
p1718
(dp1719
g232
F-0.24015403343839123
sba(ineural_net
Weight
p1720
(dp1721
g232
F-0.2623553734550675
sba(ineural_net
Weight
p1722
(dp1723
g232
F-0.990094585428196
sba(ineural_net
Weight
p1724
(dp1725
g232
F-0.5741542160935802
sba(ineural_net
Weight
p1726
(dp1727
g232
F-0.2982174413747444
sba(ineural_net
Weight
p1728
(dp1729
g232
F-1.0857023691537535
sba(ineural_net
Weight
p1730
(dp1731
g232
F-0.4833352853802843
sba(ineural_net
Weight
p1732
(dp1733
g232
F-0.2992086823930048
sba(ineural_net
Weight
p1734
(dp1735
g232
F-0.0077556946131732965
sba(ineural_net
Weight
p1736
(dp1737
g232
F-0.47550519419804227
sba(ineural_net
Weight
p1738
(dp1739
g232
F1.4056399428767186
sba(ineural_net
Weight
p1740
(dp1741
g232
F-0.38075207189310606
sbag1695
ag1598
ag1497
ag1392
ag1283
ag1170
ag1053
ag932
ag807
asg291
(lp1742
sg293
Nsbag168
ag175
ag182
ag189
ag196
ag203
ag210
ag217
ag224
ag294
ag360
ag426
ag492
ag558
asg14
F-4.18159707525793
sg624
F0.00010711983621849027
sg15
F0.015044306051204865
sg16
(lp1743
g626
ag695
asg228
(lp1744
g672
ag741
asg291
(lp1745
(ineural_net
Weight
p1746
(dp1747
g232
F-0.9140289063338661
sba(ineural_net
Weight
p1748
(dp1749
g232
F-0.3676957276900725
sba(ineural_net
Weight
p1750
(dp1751
g232
F-0.16934337995598542
sba(ineural_net
Weight
p1752
(dp1753
g232
F-0.7266649819331509
sba(ineural_net
Weight
p1754
(dp1755
g232
F0.17932403206203146
sba(ineural_net
Weight
p1756
(dp1757
g232
F0.34423112897827685
sba(ineural_net
Weight
p1758
(dp1759
g232
F-0.43995025086498324
sba(ineural_net
Weight
p1760
(dp1761
g232
F-0.43240776114738644
sba(ineural_net
Weight
p1762
(dp1763
g232
F-0.7037956936100499
sba(ineural_net
Weight
p1764
(dp1765
g232
F0.17232675350027438
sba(ineural_net
Weight
p1766
(dp1767
g232
F-0.19987128379732175
sba(ineural_net
Weight
p1768
(dp1769
g232
F-0.5135674984836507
sba(ineural_net
Weight
p1770
(dp1771
g232
F0.1626528755704729
sba(ineural_net
Weight
p1772
(dp1773
g232
F-0.579202182830937
sba(ineural_net
Weight
p1774
(dp1775
g232
F-0.3158652515884252
sba(ineural_net
Weight
p1776
(dp1777
g232
F-0.6009460463256602
sba(ineural_net
Weight
p1778
(dp1779
g232
F0.04987113871806721
sba(ineural_net
Weight
p1780
(dp1781
g232
F0.1045404853312468
sba(ineural_net
Weight
p1782
(dp1783
g232
F-0.4253006630008206
sba(ineural_net
Weight
p1784
(dp1785
g232
F0.47433341156253145
sba(ineural_net
Weight
p1786
(dp1787
g232
F0.10900949308594383
sbag1740
ag1645
ag1546
ag1443
ag1336
ag1225
ag1110
ag991
ag868
ag271
ag339
ag405
ag471
ag537
ag603
asg293
(ineural_net
Weight
p1788
(dp1789
g232
F0.007043063220802245
sbsg694
F0.003821383142345037
sbag165
ag172
ag179
ag186
ag193
ag200
ag207
ag214
ag221
asg228
(lp1790
(ineural_net
Weight
p1791
(dp1792
g232
F1.20281729970155
sba(ineural_net
Weight
p1793
(dp1794
g232
F0.6682276007162955
sba(ineural_net
Weight
p1795
(dp1796
g232
F0.6210131518022705
sba(ineural_net
Weight
p1797
(dp1798
g232
F0.8068327574232992
sba(ineural_net
Weight
p1799
(dp1800
g232
F1.0638187873297646
sba(ineural_net
Weight
p1801
(dp1802
g232
F1.067955185136235
sba(ineural_net
Weight
p1803
(dp1804
g232
F2.859933204154287
sba(ineural_net
Weight
p1805
(dp1806
g232
F0.21642560376959438
sba(ineural_net
Weight
p1807
(dp1808
g232
F0.7491737705924283
sba(ineural_net
Weight
p1809
(dp1810
g232
F0.8457183826371429
sba(ineural_net
Weight
p1811
(dp1812
g232
F0.09347294005373467
sba(ineural_net
Weight
p1813
(dp1814
g232
F0.1962409889783304
sba(ineural_net
Weight
p1815
(dp1816
g232
F0.9016421242915551
sba(ineural_net
Weight
p1817
(dp1818
g232
F0.1875115200606204
sba(ineural_net
Weight
p1819
(dp1820
g232
F0.7543385795540111
sba(ineural_net
Weight
p1821
(dp1822
g232
F2.615603099960178
sba(ineural_net
Weight
p1823
(dp1824
g232
F0.6350373944889708
sba(ineural_net
Weight
p1825
(dp1826
g232
F0.32427673982231825
sba(ineural_net
Weight
p1827
(dp1828
g232
F0.5994286234360218
sba(ineural_net
Weight
p1829
(dp1830
g232
F-4.032350987416563
sbag1786
ag1693
ag1596
ag1495
ag1390
ag1281
ag1168
ag1051
ag930
ag805
asg291
(lp1831
sg293
Nsbag161
ag168
ag175
ag182
ag189
ag196
ag203
ag210
ag217
ag224
ag294
ag360
ag426
ag492
ag558
asg14
F-1.6896050481679004
sg624
F-2.4990003863803395e-12
sg15
F0.15582778719329493
sg16
(lp1832
g626
ag695
asg228
(lp1833
g670
ag739
asg291
(lp1834
(ineural_net
Weight
p1835
(dp1836
g232
F-1.6584472515709578
sba(ineural_net
Weight
p1837
(dp1838
g232
F0.8316112681115487
sba(ineural_net
Weight
p1839
(dp1840
g232
F2.38577106149111
sba(ineural_net
Weight
p1841
(dp1842
g232
F2.245316171817457
sba(ineural_net
Weight
p1843
(dp1844
g232
F-5.254766632500996
sba(ineural_net
Weight
p1845
(dp1846
g232
F-3.402351631075863
sba(ineural_net
Weight
p1847
(dp1848
g232
F0.24299005583594077
sba(ineural_net
Weight
p1849
(dp1850
g232
F-0.3980277724673793
sba(ineural_net
Weight
p1851
(dp1852
g232
F0.6071961952888509
sba(ineural_net
Weight
p1853
(dp1854
g232
F0.503343381950742
sba(ineural_net
Weight
p1855
(dp1856
g232
F-0.17208398717960688
sba(ineural_net
Weight
p1857
(dp1858
g232
F-2.267319992147427
sba(ineural_net
Weight
p1859
(dp1860
g232
F0.7134071868998091
sba(ineural_net
Weight
p1861
(dp1862
g232
F0.30488880506162946
sba(ineural_net
Weight
p1863
(dp1864
g232
F1.4886526687919588
sba(ineural_net
Weight
p1865
(dp1866
g232
F5.035296678607627
sba(ineural_net
Weight
p1867
(dp1868
g232
F-0.8744403011323061
sba(ineural_net
Weight
p1869
(dp1870
g232
F-5.297507292962587
sba(ineural_net
Weight
p1871
(dp1872
g232
F1.6612990767795517
sba(ineural_net
Weight
p1873
(dp1874
g232
F-5.154855296895601
sbag1829
ag1738
ag1643
ag1544
ag1441
ag1334
ag1223
ag1108
ag989
ag866
ag269
ag337
ag403
ag469
ag535
ag601
asg293
(ineural_net
Weight
p1875
(dp1876
g232
F0.002493839277776721
sbsg694
F-0.0023513825134629466
sbag158
ag165
ag172
ag179
ag186
ag193
ag200
ag207
ag214
ag221
asg228
(lp1877
(ineural_net
Weight
p1878
(dp1879
g232
F0.6526431168954372
sba(ineural_net
Weight
p1880
(dp1881
g232
F0.30335327946463236
sba(ineural_net
Weight
p1882
(dp1883
g232
F0.547945566423564
sba(ineural_net
Weight
p1884
(dp1885
g232
F0.10830321349582125
sba(ineural_net
Weight
p1886
(dp1887
g232
F0.3318852548837055
sba(ineural_net
Weight
p1888
(dp1889
g232
F1.0409453595750604
sba(ineural_net
Weight
p1890
(dp1891
g232
F1.5249689519389271
sba(ineural_net
Weight
p1892
(dp1893
g232
F0.8653843579627634
sba(ineural_net
Weight
p1894
(dp1895
g232
F0.27647084999963917
sba(ineural_net
Weight
p1896
(dp1897
g232
F0.35679365211930336
sba(ineural_net
Weight
p1898
(dp1899
g232
F0.3448059277191459
sba(ineural_net
Weight
p1900
(dp1901
g232
F0.6024224243573166
sba(ineural_net
Weight
p1902
(dp1903
g232
F0.7760460087598512
sba(ineural_net
Weight
p1904
(dp1905
g232
F1.093866944609379
sba(ineural_net
Weight
p1906
(dp1907
g232
F0.29904085836192973
sba(ineural_net
Weight
p1908
(dp1909
g232
F0.6608028349225232
sba(ineural_net
Weight
p1910
(dp1911
g232
F0.06388261081994688
sba(ineural_net
Weight
p1912
(dp1913
g232
F0.7054754733998454
sba(ineural_net
Weight
p1914
(dp1915
g232
F0.6669210040591881
sbag1873
ag1784
ag1691
ag1594
ag1493
ag1388
ag1279
ag1166
ag1049
ag928
ag803
asg291
(lp1916
sg293
Nsbag154
ag161
ag168
ag175
ag182
ag189
ag196
ag203
ag210
ag217
ag224
ag294
ag360
ag426
ag492
ag558
asg14
F-3.2473638141569903
sg624
F0.00038413150812264564
sg15
F0.03742173059220608
sg16
(lp1917
g626
ag695
asg228
(lp1918
g668
ag737
asg291
(lp1919
(ineural_net
Weight
p1920
(dp1921
g232
F-0.31122263836388225
sba(ineural_net
Weight
p1922
(dp1923
g232
F-0.11361098080001208
sba(ineural_net
Weight
p1924
(dp1925
g232
F-0.609576817472571
sba(ineural_net
Weight
p1926
(dp1927
g232
F-0.49091180495097947
sba(ineural_net
Weight
p1928
(dp1929
g232
F0.6948013450643818
sba(ineural_net
Weight
p1930
(dp1931
g232
F0.7524748516019054
sba(ineural_net
Weight
p1932
(dp1933
g232
F-0.9974695242093379
sba(ineural_net
Weight
p1934
(dp1935
g232
F-0.2975930200936435
sba(ineural_net
Weight
p1936
(dp1937
g232
F-0.434573617266211
sba(ineural_net
Weight
p1938
(dp1939
g232
F-0.0269311930352551
sba(ineural_net
Weight
p1940
(dp1941
g232
F0.25324514509982704
sba(ineural_net
Weight
p1942
(dp1943
g232
F0.050850167857690254
sba(ineural_net
Weight
p1944
(dp1945
g232
F-0.4312467946214467
sba(ineural_net
Weight
p1946
(dp1947
g232
F-0.5461199333375627
sba(ineural_net
Weight
p1948
(dp1949
g232
F-0.6667987468794754
sba(ineural_net
Weight
p1950
(dp1951
g232
F-0.733334483093758
sba(ineural_net
Weight
p1952
(dp1953
g232
F-0.2446223791803913
sba(ineural_net
Weight
p1954
(dp1955
g232
F0.6388153437922146
sba(ineural_net
Weight
p1956
(dp1957
g232
F0.007274336398177777
sbag1914
ag1827
ag1736
ag1641
ag1542
ag1439
ag1332
ag1221
ag1106
ag987
ag864
ag267
ag335
ag401
ag467
ag533
ag599
asg293
(ineural_net
Weight
p1958
(dp1959
g232
F-0.009022693746654558
sbsg694
F0.0019309986798896179
sbag151
ag158
ag165
ag172
ag179
ag186
ag193
ag200
ag207
ag214
ag221
asg228
(lp1960
(ineural_net
Weight
p1961
(dp1962
g232
F-0.8823084453628797
sba(ineural_net
Weight
p1963
(dp1964
g232
F-0.13897794684265585
sba(ineural_net
Weight
p1965
(dp1966
g232
F0.1777398362848412
sba(ineural_net
Weight
p1967
(dp1968
g232
F0.14300998879916876
sba(ineural_net
Weight
p1969
(dp1970
g232
F-2.2021146413475203
sba(ineural_net
Weight
p1971
(dp1972
g232
F-1.0507077236684235
sba(ineural_net
Weight
p1973
(dp1974
g232
F-0.15116007908750514
sba(ineural_net
Weight
p1975
(dp1976
g232
F-0.2872547737870794
sba(ineural_net
Weight
p1977
(dp1978
g232
F-1.6826061596410735
sba(ineural_net
Weight
p1979
(dp1980
g232
F-0.8479536483322145
sba(ineural_net
Weight
p1981
(dp1982
g232
F-0.41303882433395706
sba(ineural_net
Weight
p1983
(dp1984
g232
F-0.4117874549982128
sba(ineural_net
Weight
p1985
(dp1986
g232
F-0.29893641106005925
sba(ineural_net
Weight
p1987
(dp1988
g232
F-0.30056226793537194
sba(ineural_net
Weight
p1989
(dp1990
g232
F-0.4591954969854279
sba(ineural_net
Weight
p1991
(dp1992
g232
F-2.012951375234413
sba(ineural_net
Weight
p1993
(dp1994
g232
F-0.7601695163522829
sba(ineural_net
Weight
p1995
(dp1996
g232
F-0.0751757276248552
sbag1956
ag1871
ag1782
ag1689
ag1592
ag1491
ag1386
ag1277
ag1164
ag1047
ag926
ag801
asg291
(lp1997
sg293
Nsbag147
ag154
ag161
ag168
ag175
ag182
ag189
ag196
ag203
ag210
ag217
ag224
ag294
ag360
ag426
ag492
ag558
asg14
F-3.5001937629949915
sg624
F8.585931245726669e-05
sg15
F0.02930671811101318
sg16
(lp1998
g626
ag695
asg228
(lp1999
g666
ag735
asg291
(lp2000
(ineural_net
Weight
p2001
(dp2002
g232
F-0.44476506005582783
sba(ineural_net
Weight
p2003
(dp2004
g232
F-0.4639410787042482
sba(ineural_net
Weight
p2005
(dp2006
g232
F-0.30936450071131727
sba(ineural_net
Weight
p2007
(dp2008
g232
F-0.642605505586098
sba(ineural_net
Weight
p2009
(dp2010
g232
F0.6864240973719749
sba(ineural_net
Weight
p2011
(dp2012
g232
F0.47000237938442013
sba(ineural_net
Weight
p2013
(dp2014
g232
F-0.24375278600803874
sba(ineural_net
Weight
p2015
(dp2016
g232
F-0.3945603561700544
sba(ineural_net
Weight
p2017
(dp2018
g232
F-0.5025096259274408
sba(ineural_net
Weight
p2019
(dp2020
g232
F-0.06199598285268871
sba(ineural_net
Weight
p2021
(dp2022
g232
F-0.34267378195861775
sba(ineural_net
Weight
p2023
(dp2024
g232
F-0.4444417822194719
sba(ineural_net
Weight
p2025
(dp2026
g232
F-0.15303575723287946
sba(ineural_net
Weight
p2027
(dp2028
g232
F-0.22576917643795763
sba(ineural_net
Weight
p2029
(dp2030
g232
F-0.1907113585065826
sba(ineural_net
Weight
p2031
(dp2032
g232
F-0.6407159500308826
sba(ineural_net
Weight
p2033
(dp2034
g232
F0.24172598767972242
sba(ineural_net
Weight
p2035
(dp2036
g232
F0.2738898100547659
sbag1995
ag1912
ag1825
ag1734
ag1639
ag1540
ag1437
ag1330
ag1219
ag1104
ag985
ag862
ag265
ag333
ag399
ag465
ag531
ag597
asg293
(ineural_net
Weight
p2037
(dp2038
g232
F-0.003729187432749399
sbsg694
F0.002808939481491429
sbag144
ag151
ag158
ag165
ag172
ag179
ag186
ag193
ag200
ag207
ag214
ag221
asg228
(lp2039
(ineural_net
Weight
p2040
(dp2041
g232
F0.5466787510138506
sba(ineural_net
Weight
p2042
(dp2043
g232
F0.25865232464563187
sba(ineural_net
Weight
p2044
(dp2045
g232
F0.6489365971683884
sba(ineural_net
Weight
p2046
(dp2047
g232
F0.31265981688600203
sba(ineural_net
Weight
p2048
(dp2049
g232
F0.9625075335211744
sba(ineural_net
Weight
p2050
(dp2051
g232
F0.9417807434334626
sba(ineural_net
Weight
p2052
(dp2053
g232
F0.529763529763516
sba(ineural_net
Weight
p2054
(dp2055
g232
F0.31469215727412925
sba(ineural_net
Weight
p2056
(dp2057
g232
F-0.051847034584634175
sba(ineural_net
Weight
p2058
(dp2059
g232
F0.48062332760018706
sba(ineural_net
Weight
p2060
(dp2061
g232
F0.08721087299958014
sba(ineural_net
Weight
p2062
(dp2063
g232
F0.7207362072793898
sba(ineural_net
Weight
p2064
(dp2065
g232
F0.872317790588967
sba(ineural_net
Weight
p2066
(dp2067
g232
F0.28951306662225346
sba(ineural_net
Weight
p2068
(dp2069
g232
F0.9827559650451361
sba(ineural_net
Weight
p2070
(dp2071
g232
F1.299735693079919
sba(ineural_net
Weight
p2072
(dp2073
g232
F0.5273991938015534
sbag2035
ag1954
ag1869
ag1780
ag1687
ag1590
ag1489
ag1384
ag1275
ag1162
ag1045
ag924
ag799
asg291
(lp2074
sg293
Nsbag140
ag147
ag154
ag161
ag168
ag175
ag182
ag189
ag196
ag203
ag210
ag217
ag224
ag294
ag360
ag426
ag492
ag558
asg14
F-2.200555701007009
sg624
F0.00038694095358141024
sg15
F0.0997005980844087
sg16
(lp2075
g626
ag695
asg228
(lp2076
g664
ag733
asg291
(lp2077
(ineural_net
Weight
p2078
(dp2079
g232
F-0.27729786179818905
sba(ineural_net
Weight
p2080
(dp2081
g232
F-0.5139282902147634
sba(ineural_net
Weight
p2082
(dp2083
g232
F0.003832460926928985
sba(ineural_net
Weight
p2084
(dp2085
g232
F-0.5571774576005655
sba(ineural_net
Weight
p2086
(dp2087
g232
F0.9080859012159302
sba(ineural_net
Weight
p2088
(dp2089
g232
F-0.12924619434408252
sba(ineural_net
Weight
p2090
(dp2091
g232
F-0.8227118350602056
sba(ineural_net
Weight
p2092
(dp2093
g232
F0.08841297161106547
sba(ineural_net
Weight
p2094
(dp2095
g232
F-0.7595302064230314
sba(ineural_net
Weight
p2096
(dp2097
g232
F0.07186968355574799
sba(ineural_net
Weight
p2098
(dp2099
g232
F0.28392395396054537
sba(ineural_net
Weight
p2100
(dp2101
g232
F-0.059509448046417654
sba(ineural_net
Weight
p2102
(dp2103
g232
F-0.7597471263420139
sba(ineural_net
Weight
p2104
(dp2105
g232
F-0.5077174005428418
sba(ineural_net
Weight
p2106
(dp2107
g232
F-0.28764378116100175
sba(ineural_net
Weight
p2108
(dp2109
g232
F-0.8378710657957388
sba(ineural_net
Weight
p2110
(dp2111
g232
F-0.09877028891965502
sbag2072
ag1993
ag1910
ag1823
ag1732
ag1637
ag1538
ag1435
ag1328
ag1217
ag1102
ag983
ag860
ag263
ag331
ag397
ag463
ag529
ag595
asg293
(ineural_net
Weight
p2112
(dp2113
g232
F0.008945120957207729
sbsg694
F0.0016315940893012163
sbag137
ag144
ag151
ag158
ag165
ag172
ag179
ag186
ag193
ag200
ag207
ag214
ag221
asg228
(lp2114
(ineural_net
Weight
p2115
(dp2116
g232
F-0.36463356909869943
sba(ineural_net
Weight
p2117
(dp2118
g232
F0.2463068019937888
sba(ineural_net
Weight
p2119
(dp2120
g232
F0.028732687397729637
sba(ineural_net
Weight
p2121
(dp2122
g232
F0.4045106508888417
sba(ineural_net
Weight
p2123
(dp2124
g232
F-0.08007396715274319
sba(ineural_net
Weight
p2125
(dp2126
g232
F-0.3564921322045393
sba(ineural_net
Weight
p2127
(dp2128
g232
F-0.48107291914577566
sba(ineural_net
Weight
p2129
(dp2130
g232
F0.23430795761238102
sba(ineural_net
Weight
p2131
(dp2132
g232
F0.29043439777937696
sba(ineural_net
Weight
p2133
(dp2134
g232
F-0.1831813494799163
sba(ineural_net
Weight
p2135
(dp2136
g232
F-0.061858718289381075
sba(ineural_net
Weight
p2137
(dp2138
g232
F0.3853448567734934
sba(ineural_net
Weight
p2139
(dp2140
g232
F-0.247342526198543
sba(ineural_net
Weight
p2141
(dp2142
g232
F0.22231324966184043
sba(ineural_net
Weight
p2143
(dp2144
g232
F0.15125193027513567
sba(ineural_net
Weight
p2145
(dp2146
g232
F0.3392520445114545
sbag2110
ag2033
ag1952
ag1867
ag1778
ag1685
ag1588
ag1487
ag1382
ag1273
ag1160
ag1043
ag922
ag797
asg291
(lp2147
sg293
Nsbag133
ag140
ag147
ag154
ag161
ag168
ag175
ag182
ag189
ag196
ag203
ag210
ag217
ag224
ag294
ag360
ag426
ag492
ag558
asg14
F-4.78633377901948
sg624
F0.00011720249413538911
sg15
F0.008273959074110285
sg16
(lp2148
g626
ag695
asg228
(lp2149
g662
ag731
asg291
(lp2150
(ineural_net
Weight
p2151
(dp2152
g232
F0.32232061741510604
sba(ineural_net
Weight
p2153
(dp2154
g232
F0.24423055502001562
sba(ineural_net
Weight
p2155
(dp2156
g232
F0.4969849257054067
sba(ineural_net
Weight
p2157
(dp2158
g232
F-0.9218483478335854
sba(ineural_net
Weight
p2159
(dp2160
g232
F3.19211464091447
sba(ineural_net
Weight
p2161
(dp2162
g232
F1.1762674060059326
sba(ineural_net
Weight
p2163
(dp2164
g232
F-0.8869140991723151
sba(ineural_net
Weight
p2165
(dp2166
g232
F-0.38770252293355917
sba(ineural_net
Weight
p2167
(dp2168
g232
F-0.9550070276464178
sba(ineural_net
Weight
p2169
(dp2170
g232
F0.20711262694286936
sba(ineural_net
Weight
p2171
(dp2172
g232
F0.3250939484872998
sba(ineural_net
Weight
p2173
(dp2174
g232
F0.18818363465719715
sba(ineural_net
Weight
p2175
(dp2176
g232
F-2.0692873392541618
sba(ineural_net
Weight
p2177
(dp2178
g232
F-0.08894832039975845
sba(ineural_net
Weight
p2179
(dp2180
g232
F-0.5199044614146137
sba(ineural_net
Weight
p2181
(dp2182
g232
F-1.3589704259217976
sbag2145
ag2070
ag1991
ag1908
ag1821
ag1730
ag1635
ag1536
ag1433
ag1326
ag1215
ag1100
ag981
ag858
ag261
ag329
ag395
ag461
ag527
ag593
asg293
(ineural_net
Weight
p2183
(dp2184
g232
F-0.009633615434626928
sbsg694
F0.0005992157751191688
sbag130
ag137
ag144
ag151
ag158
ag165
ag172
ag179
ag186
ag193
ag200
ag207
ag214
ag221
asg228
(lp2185
(ineural_net
Weight
p2186
(dp2187
g232
F-0.29053272533596564
sba(ineural_net
Weight
p2188
(dp2189
g232
F-0.23790542428065406
sba(ineural_net
Weight
p2190
(dp2191
g232
F-0.9466068343606653
sba(ineural_net
Weight
p2192
(dp2193
g232
F-0.22085636251705315
sba(ineural_net
Weight
p2194
(dp2195
g232
F-0.6235144724783658
sba(ineural_net
Weight
p2196
(dp2197
g232
F-0.4891455874756208
sba(ineural_net
Weight
p2198
(dp2199
g232
F0.07177357137283623
sba(ineural_net
Weight
p2200
(dp2201
g232
F-0.6953215685182998
sba(ineural_net
Weight
p2202
(dp2203
g232
F-1.5933494343427166
sba(ineural_net
Weight
p2204
(dp2205
g232
F-0.378323355450894
sba(ineural_net
Weight
p2206
(dp2207
g232
F-0.6814173900626322
sba(ineural_net
Weight
p2208
(dp2209
g232
F-0.9108963963860514
sba(ineural_net
Weight
p2210
(dp2211
g232
F-0.4205131743408467
sba(ineural_net
Weight
p2212
(dp2213
g232
F-0.6941493210552095
sba(ineural_net
Weight
p2214
(dp2215
g232
F-0.3958581561071751
sbag2181
ag2108
ag2031
ag1950
ag1865
ag1776
ag1683
ag1586
ag1485
ag1380
ag1271
ag1158
ag1041
ag920
ag795
asg291
(lp2216
sg293
Nsbag126
ag133
ag140
ag147
ag154
ag161
ag168
ag175
ag182
ag189
ag196
ag203
ag210
ag217
ag224
ag294
ag360
ag426
ag492
ag558
asg14
F-2.4426247126823246
sg624
F0.0003070345918060672
sg15
F0.07997956533306788
sg16
(lp2217
g626
ag695
asg228
(lp2218
g660
ag729
asg291
(lp2219
(ineural_net
Weight
p2220
(dp2221
g232
F0.4505827251489579
sba(ineural_net
Weight
p2222
(dp2223
g232
F-0.18357422724117398
sba(ineural_net
Weight
p2224
(dp2225
g232
F-0.5017143880109343
sba(ineural_net
Weight
p2226
(dp2227
g232
F-0.9712859848267967
sba(ineural_net
Weight
p2228
(dp2229
g232
F0.7053430679704081
sba(ineural_net
Weight
p2230
(dp2231
g232
F0.16162287069244763
sba(ineural_net
Weight
p2232
(dp2233
g232
F-0.5374260527813931
sba(ineural_net
Weight
p2234
(dp2235
g232
F-0.26007675626216825
sba(ineural_net
Weight
p2236
(dp2237
g232
F-0.6279700020101987
sba(ineural_net
Weight
p2238
(dp2239
g232
F-0.12157863308969943
sba(ineural_net
Weight
p2240
(dp2241
g232
F0.5765001961298796
sba(ineural_net
Weight
p2242
(dp2243
g232
F-0.1325841166661194
sba(ineural_net
Weight
p2244
(dp2245
g232
F-1.2502623680086193
sba(ineural_net
Weight
p2246
(dp2247
g232
F-0.615249756783727
sba(ineural_net
Weight
p2248
(dp2249
g232
F-0.37939163916300334
sbag2214
ag2143
ag2068
ag1989
ag1906
ag1819
ag1728
ag1633
ag1534
ag1431
ag1324
ag1213
ag1098
ag979
ag856
ag259
ag327
ag393
ag459
ag525
ag591
asg293
(ineural_net
Weight
p2250
(dp2251
g232
F-0.00828729613281146
sbsg694
F0.0013013904359964747
sbag123
ag130
ag137
ag144
ag151
ag158
ag165
ag172
ag179
ag186
ag193
ag200
ag207
ag214
ag221
asg228
(lp2252
(ineural_net
Weight
p2253
(dp2254
g232
F-0.3314515303753332
sba(ineural_net
Weight
p2255
(dp2256
g232
F0.15704052506489136
sba(ineural_net
Weight
p2257
(dp2258
g232
F-0.5780196196210284
sba(ineural_net
Weight
p2259
(dp2260
g232
F-0.02032984362629473
sba(ineural_net
Weight
p2261
(dp2262
g232
F-0.14670322043090725
sba(ineural_net
Weight
p2263
(dp2264
g232
F-0.6561320846985427
sba(ineural_net
Weight
p2265
(dp2266
g232
F-0.9459406939236789
sba(ineural_net
Weight
p2267
(dp2268
g232
F-0.31021976367146714
sba(ineural_net
Weight
p2269
(dp2270
g232
F-0.6065290914834125
sba(ineural_net
Weight
p2271
(dp2272
g232
F-0.30513729778115967
sba(ineural_net
Weight
p2273
(dp2274
g232
F-0.47738568836669765
sba(ineural_net
Weight
p2275
(dp2276
g232
F-0.5252987680513964
sba(ineural_net
Weight
p2277
(dp2278
g232
F-0.6398680182217761
sba(ineural_net
Weight
p2279
(dp2280
g232
F-0.39381010883324663
sbag2248
ag2179
ag2106
ag2029
ag1948
ag1863
ag1774
ag1681
ag1584
ag1483
ag1378
ag1269
ag1156
ag1039
ag918
ag793
asg291
(lp2281
sg293
Nsbag119
ag126
ag133
ag140
ag147
ag154
ag161
ag168
ag175
ag182
ag189
ag196
ag203
ag210
ag217
ag224
ag294
ag360
ag426
ag492
ag558
asg14
F-4.5247422584366195
sg624
F9.517445085532582e-05
sg15
F0.01072131502220114
sg16
(lp2282
g626
ag695
asg228
(lp2283
g658
ag727
asg291
(lp2284
(ineural_net
Weight
p2285
(dp2286
g232
F-0.4716339851399717
sba(ineural_net
Weight
p2287
(dp2288
g232
F-0.4450353041094277
sba(ineural_net
Weight
p2289
(dp2290
g232
F-0.27437509370139196
sba(ineural_net
Weight
p2291
(dp2292
g232
F-0.4819891796786606
sba(ineural_net
Weight
p2293
(dp2294
g232
F0.42409554191780224
sba(ineural_net
Weight
p2295
(dp2296
g232
F0.4837536335843611
sba(ineural_net
Weight
p2297
(dp2298
g232
F-0.6511472280431263
sba(ineural_net
Weight
p2299
(dp2300
g232
F-0.7167008781809873
sba(ineural_net
Weight
p2301
(dp2302
g232
F-0.26124537110877494
sba(ineural_net
Weight
p2303
(dp2304
g232
F-0.04115855583354283
sba(ineural_net
Weight
p2305
(dp2306
g232
F-0.4327405395044758
sba(ineural_net
Weight
p2307
(dp2308
g232
F-0.39870767892474707
sba(ineural_net
Weight
p2309
(dp2310
g232
F0.089674956893314
sba(ineural_net
Weight
p2311
(dp2312
g232
F-0.4124955342791972
sbag2279
ag2212
ag2141
ag2066
ag1987
ag1904
ag1817
ag1726
ag1631
ag1532
ag1429
ag1322
ag1211
ag1096
ag977
ag854
ag257
ag325
ag391
ag457
ag523
ag589
asg293
(ineural_net
Weight
p2313
(dp2314
g232
F-0.0036205359512621136
sbsg694
F0.0033463265988590615
sbag116
ag123
ag130
ag137
ag144
ag151
ag158
ag165
ag172
ag179
ag186
ag193
ag200
ag207
ag214
ag221
asg228
(lp2315
(ineural_net
Weight
p2316
(dp2317
g232
F-0.8408884462022587
sba(ineural_net
Weight
p2318
(dp2319
g232
F-0.7311284428746806
sba(ineural_net
Weight
p2320
(dp2321
g232
F-0.47836996053293573
sba(ineural_net
Weight
p2322
(dp2323
g232
F-0.5210709112612169
sba(ineural_net
Weight
p2324
(dp2325
g232
F-0.5663991486872716
sba(ineural_net
Weight
p2326
(dp2327
g232
F-0.909775454026663
sba(ineural_net
Weight
p2328
(dp2329
g232
F-0.775898130320408
sba(ineural_net
Weight
p2330
(dp2331
g232
F-0.29543503247264685
sba(ineural_net
Weight
p2332
(dp2333
g232
F0.033229347281975775
sba(ineural_net
Weight
p2334
(dp2335
g232
F-0.8708785899415462
sba(ineural_net
Weight
p2336
(dp2337
g232
F-0.5619217960862039
sba(ineural_net
Weight
p2338
(dp2339
g232
F-0.8043841910744968
sba(ineural_net
Weight
p2340
(dp2341
g232
F-0.533428040338393
sbag2311
ag2246
ag2177
ag2104
ag2027
ag1946
ag1861
ag1772
ag1679
ag1582
ag1481
ag1376
ag1267
ag1154
ag1037
ag916
ag791
asg291
(lp2342
sg293
Nsbag112
ag119
ag126
ag133
ag140
ag147
ag154
ag161
ag168
ag175
ag182
ag189
ag196
ag203
ag210
ag217
ag224
ag294
ag360
ag426
ag492
ag558
asg14
F-3.6560324884802107
sg624
F0.0003407947566796368
sg15
F0.025184181043484678
sg16
(lp2343
g626
ag695
asg228
(lp2344
g656
ag725
asg291
(lp2345
(ineural_net
Weight
p2346
(dp2347
g232
F-0.1297532851159401
sba(ineural_net
Weight
p2348
(dp2349
g232
F-0.3375391718315354
sba(ineural_net
Weight
p2350
(dp2351
g232
F-0.48732817968216047
sba(ineural_net
Weight
p2352
(dp2353
g232
F-0.4246712822152178
sba(ineural_net
Weight
p2354
(dp2355
g232
F1.073825135207115
sba(ineural_net
Weight
p2356
(dp2357
g232
F0.9262439330382926
sba(ineural_net
Weight
p2358
(dp2359
g232
F-0.8264050447312238
sba(ineural_net
Weight
p2360
(dp2361
g232
F-0.3214757706268866
sba(ineural_net
Weight
p2362
(dp2363
g232
F-0.47832474068825714
sba(ineural_net
Weight
p2364
(dp2365
g232
F-0.16957513637081692
sba(ineural_net
Weight
p2366
(dp2367
g232
F0.11914784850439131
sba(ineural_net
Weight
p2368
(dp2369
g232
F-0.10158086772016038
sba(ineural_net
Weight
p2370
(dp2371
g232
F-0.43944348750679435
sbag2340
ag2277
ag2210
ag2139
ag2064
ag1985
ag1902
ag1815
ag1724
ag1629
ag1530
ag1427
ag1320
ag1209
ag1094
ag975
ag852
ag255
ag323
ag389
ag455
ag521
ag587
asg293
(ineural_net
Weight
p2372
(dp2373
g232
F-0.00021505581189125086
sbsg694
F0.0014331024772410933
sbag109
ag116
ag123
ag130
ag137
ag144
ag151
ag158
ag165
ag172
ag179
ag186
ag193
ag200
ag207
ag214
ag221
asg228
(lp2374
(ineural_net
Weight
p2375
(dp2376
g232
F-1.0271400270128141
sba(ineural_net
Weight
p2377
(dp2378
g232
F0.18272789907843776
sba(ineural_net
Weight
p2379
(dp2380
g232
F-0.9085866902269102
sba(ineural_net
Weight
p2381
(dp2382
g232
F-0.0837302807659926
sba(ineural_net
Weight
p2383
(dp2384
g232
F-2.138491624486359
sba(ineural_net
Weight
p2385
(dp2386
g232
F-0.43496435094700137
sba(ineural_net
Weight
p2387
(dp2388
g232
F-2.8698831681954213
sba(ineural_net
Weight
p2389
(dp2390
g232
F0.12822356198912735
sba(ineural_net
Weight
p2391
(dp2392
g232
F-1.7022311953036986
sba(ineural_net
Weight
p2393
(dp2394
g232
F-0.8792191465570149
sba(ineural_net
Weight
p2395
(dp2396
g232
F0.18768831636329167
sba(ineural_net
Weight
p2397
(dp2398
g232
F-1.6162229501297887
sbag2370
ag2309
ag2244
ag2175
ag2102
ag2025
ag1944
ag1859
ag1770
ag1677
ag1580
ag1479
ag1374
ag1265
ag1152
ag1035
ag914
ag789
asg291
(lp2399
sg293
Nsbag105
ag112
ag119
ag126
ag133
ag140
ag147
ag154
ag161
ag168
ag175
ag182
ag189
ag196
ag203
ag210
ag217
ag224
ag294
ag360
ag426
ag492
ag558
asg14
F-2.4136462833927044
sg624
F6.424702161638247e-05
sg15
F0.0821380007215867
sg16
(lp2400
g626
ag695
asg228
(lp2401
g654
ag723
asg291
(lp2402
(ineural_net
Weight
p2403
(dp2404
g232
F0.26907362584687716
sba(ineural_net
Weight
p2405
(dp2406
g232
F-0.23758725389999513
sba(ineural_net
Weight
p2407
(dp2408
g232
F-0.3105558098470831
sba(ineural_net
Weight
p2409
(dp2410
g232
F-0.8567663537310864
sba(ineural_net
Weight
p2411
(dp2412
g232
F0.44066474980717724
sba(ineural_net
Weight
p2413
(dp2414
g232
F-0.1929661450628523
sba(ineural_net
Weight
p2415
(dp2416
g232
F-0.3302238872162361
sba(ineural_net
Weight
p2417
(dp2418
g232
F0.009417484208475511
sba(ineural_net
Weight
p2419
(dp2420
g232
F-0.8970670302702465
sba(ineural_net
Weight
p2421
(dp2422
g232
F-0.21096740184353283
sba(ineural_net
Weight
p2423
(dp2424
g232
F0.5148577314444572
sba(ineural_net
Weight
p2425
(dp2426
g232
F-0.10330915625377247
sbag2397
ag2338
ag2275
ag2208
ag2137
ag2062
ag1983
ag1900
ag1813
ag1722
ag1627
ag1528
ag1425
ag1318
ag1207
ag1092
ag973
ag850
ag253
ag321
ag387
ag453
ag519
ag585
asg293
(ineural_net
Weight
p2427
(dp2428
g232
F-0.008126175548527646
sbsg694
F0.0017962224247102718
sbag102
ag109
ag116
ag123
ag130
ag137
ag144
ag151
ag158
ag165
ag172
ag179
ag186
ag193
ag200
ag207
ag214
ag221
asg228
(lp2429
(ineural_net
Weight
p2430
(dp2431
g232
F-0.11804221662504341
sba(ineural_net
Weight
p2432
(dp2433
g232
F-0.5159268735986322
sba(ineural_net
Weight
p2434
(dp2435
g232
F0.07202523718281191
sba(ineural_net
Weight
p2436
(dp2437
g232
F-0.42836988087372035
sba(ineural_net
Weight
p2438
(dp2439
g232
F-0.11684957771295745
sba(ineural_net
Weight
p2440
(dp2441
g232
F-0.18061036031745495
sba(ineural_net
Weight
p2442
(dp2443
g232
F-0.32573288257046373
sba(ineural_net
Weight
p2444
(dp2445
g232
F-0.21472539864541648
sba(ineural_net
Weight
p2446
(dp2447
g232
F-0.5301369784525368
sba(ineural_net
Weight
p2448
(dp2449
g232
F-0.17654723243822001
sba(ineural_net
Weight
p2450
(dp2451
g232
F-0.5302750305321393
sbag2425
ag2368
ag2307
ag2242
ag2173
ag2100
ag2023
ag1942
ag1857
ag1768
ag1675
ag1578
ag1477
ag1372
ag1263
ag1150
ag1033
ag912
ag787
asg291
(lp2452
sg293
Nsbag98
ag105
ag112
ag119
ag126
ag133
ag140
ag147
ag154
ag161
ag168
ag175
ag182
ag189
ag196
ag203
ag210
ag217
ag224
ag294
ag360
ag426
ag492
ag558
asg14
F-4.6556369181885096
sg624
F7.006293204282067e-05
sg15
F0.009418307677624246
sg16
(lp2453
g626
ag695
asg228
(lp2454
g652
ag721
asg291
(lp2455
(ineural_net
Weight
p2456
(dp2457
g232
F-1.1743589676708575
sba(ineural_net
Weight
p2458
(dp2459
g232
F-0.3619858344098336
sba(ineural_net
Weight
p2460
(dp2461
g232
F-0.2499472105933992
sba(ineural_net
Weight
p2462
(dp2463
g232
F-0.8632712226431233
sba(ineural_net
Weight
p2464
(dp2465
g232
F0.1425445604511248
sba(ineural_net
Weight
p2466
(dp2467
g232
F0.2744903100295873
sba(ineural_net
Weight
p2468
(dp2469
g232
F-0.48645671235000265
sba(ineural_net
Weight
p2470
(dp2471
g232
F-0.3806783370822804
sba(ineural_net
Weight
p2472
(dp2473
g232
F-0.831466736203648
sba(ineural_net
Weight
p2474
(dp2475
g232
F0.31849872749997704
sba(ineural_net
Weight
p2476
(dp2477
g232
F-0.043457728722187616
sbag2450
ag2395
ag2336
ag2273
ag2206
ag2135
ag2060
ag1981
ag1898
ag1811
ag1720
ag1625
ag1526
ag1423
ag1316
ag1205
ag1090
ag971
ag848
ag251
ag319
ag385
ag451
ag517
ag583
asg293
(ineural_net
Weight
p2478
(dp2479
g232
F-0.0029180385688901403
sbsg694
F0.003940382237769839
sbag95
ag102
ag109
ag116
ag123
ag130
ag137
ag144
ag151
ag158
ag165
ag172
ag179
ag186
ag193
ag200
ag207
ag214
ag221
asg228
(lp2480
(ineural_net
Weight
p2481
(dp2482
g232
F-0.26161320174604147
sba(ineural_net
Weight
p2483
(dp2484
g232
F-0.5196958636469693
sba(ineural_net
Weight
p2485
(dp2486
g232
F0.42581789782847235
sba(ineural_net
Weight
p2487
(dp2488
g232
F-0.27463631311043496
sba(ineural_net
Weight
p2489
(dp2490
g232
F0.06113484856954237
sba(ineural_net
Weight
p2491
(dp2492
g232
F-0.28936594240118885
sba(ineural_net
Weight
p2493
(dp2494
g232
F0.8305624694290734
sba(ineural_net
Weight
p2495
(dp2496
g232
F-0.4322608845366827
sba(ineural_net
Weight
p2497
(dp2498
g232
F0.5341750448441711
sba(ineural_net
Weight
p2499
(dp2500
g232
F0.11429003696461662
sbag2476
ag2423
ag2366
ag2305
ag2240
ag2171
ag2098
ag2021
ag1940
ag1855
ag1766
ag1673
ag1576
ag1475
ag1370
ag1261
ag1148
ag1031
ag910
ag785
asg291
(lp2501
sg293
Nsbag91
ag98
ag105
ag112
ag119
ag126
ag133
ag140
ag147
ag154
ag161
ag168
ag175
ag182
ag189
ag196
ag203
ag210
ag217
ag224
ag294
ag360
ag426
ag492
ag558
asg14
F-3.6042342536526166
sg624
F0.00035389403603269576
sg15
F0.026487589934960754
sg16
(lp2502
g626
ag695
asg228
(lp2503
g650
ag719
asg291
(lp2504
(ineural_net
Weight
p2505
(dp2506
g232
F-0.03720074229803807
sba(ineural_net
Weight
p2507
(dp2508
g232
F-0.44519978836091245
sba(ineural_net
Weight
p2509
(dp2510
g232
F0.09656461745387418
sba(ineural_net
Weight
p2511
(dp2512
g232
F-0.3926474893707236
sba(ineural_net
Weight
p2513
(dp2514
g232
F1.2246577380651285
sba(ineural_net
Weight
p2515
(dp2516
g232
F0.1820872742533516
sba(ineural_net
Weight
p2517
(dp2518
g232
F-0.6628196100166869
sba(ineural_net
Weight
p2519
(dp2520
g232
F-0.28359759684918256
sba(ineural_net
Weight
p2521
(dp2522
g232
F-0.5466809253282799
sba(ineural_net
Weight
p2523
(dp2524
g232
F-0.21751382765926816
sbag2499
ag2448
ag2393
ag2334
ag2271
ag2204
ag2133
ag2058
ag1979
ag1896
ag1809
ag1718
ag1623
ag1524
ag1421
ag1314
ag1203
ag1088
ag969
ag846
ag249
ag317
ag383
ag449
ag515
ag581
asg293
(ineural_net
Weight
p2525
(dp2526
g232
F0.0007125497468998959
sbsg694
F0.0019314991988765452
sbag88
ag95
ag102
ag109
ag116
ag123
ag130
ag137
ag144
ag151
ag158
ag165
ag172
ag179
ag186
ag193
ag200
ag207
ag214
ag221
asg228
(lp2527
(ineural_net
Weight
p2528
(dp2529
g232
F-0.4558969986133801
sba(ineural_net
Weight
p2530
(dp2531
g232
F-0.30861383717692775
sba(ineural_net
Weight
p2532
(dp2533
g232
F-0.23779061362800466
sba(ineural_net
Weight
p2534
(dp2535
g232
F-0.2735431946923478
sba(ineural_net
Weight
p2536
(dp2537
g232
F0.817405677339691
sba(ineural_net
Weight
p2538
(dp2539
g232
F-0.14329910876956017
sba(ineural_net
Weight
p2540
(dp2541
g232
F0.997228626519509
sba(ineural_net
Weight
p2542
(dp2543
g232
F-0.12526175222262953
sba(ineural_net
Weight
p2544
(dp2545
g232
F0.19256233024811334
sbag2523
ag2474
ag2421
ag2364
ag2303
ag2238
ag2169
ag2096
ag2019
ag1938
ag1853
ag1764
ag1671
ag1574
ag1473
ag1368
ag1259
ag1146
ag1029
ag908
ag783
asg291
(lp2546
sg293
Nsbag84
ag91
ag98
ag105
ag112
ag119
ag126
ag133
ag140
ag147
ag154
ag161
ag168
ag175
ag182
ag189
ag196
ag203
ag210
ag217
ag224
ag294
ag360
ag426
ag492
ag558
asg14
F-1.495219437838921
sg624
F0.00012820091755309953
sg15
F0.18313961044690552
sg16
(lp2547
g626
ag695
asg228
(lp2548
g648
ag717
asg291
(lp2549
(ineural_net
Weight
p2550
(dp2551
g232
F-1.1225205022609914
sba(ineural_net
Weight
p2552
(dp2553
g232
F-0.7820939146640996
sba(ineural_net
Weight
p2554
(dp2555
g232
F-0.20490647948810245
sba(ineural_net
Weight
p2556
(dp2557
g232
F-0.8675158133268087
sba(ineural_net
Weight
p2558
(dp2559
g232
F0.2327810391599605
sba(ineural_net
Weight
p2560
(dp2561
g232
F-0.0655023675887559
sba(ineural_net
Weight
p2562
(dp2563
g232
F-0.274156893192427
sba(ineural_net
Weight
p2564
(dp2565
g232
F0.19006310479028862
sba(ineural_net
Weight
p2566
(dp2567
g232
F-0.6807904732607633
sbag2544
ag2497
ag2446
ag2391
ag2332
ag2269
ag2202
ag2131
ag2056
ag1977
ag1894
ag1807
ag1716
ag1621
ag1522
ag1419
ag1312
ag1201
ag1086
ag967
ag844
ag247
ag315
ag381
ag447
ag513
ag579
asg293
(ineural_net
Weight
p2568
(dp2569
g232
F0.00031597611815057866
sbsg694
F0.0009729135218362775
sbag81
ag88
ag95
ag102
ag109
ag116
ag123
ag130
ag137
ag144
ag151
ag158
ag165
ag172
ag179
ag186
ag193
ag200
ag207
ag214
ag221
asg228
(lp2570
(ineural_net
Weight
p2571
(dp2572
g232
F-0.4930699772801213
sba(ineural_net
Weight
p2573
(dp2574
g232
F-0.325976454207348
sba(ineural_net
Weight
p2575
(dp2576
g232
F-0.4303544382767283
sba(ineural_net
Weight
p2577
(dp2578
g232
F0.081129955210771
sba(ineural_net
Weight
p2579
(dp2580
g232
F-0.799290051885787
sba(ineural_net
Weight
p2581
(dp2582
g232
F-0.380887557545833
sba(ineural_net
Weight
p2583
(dp2584
g232
F-0.09750515616241874
sba(ineural_net
Weight
p2585
(dp2586
g232
F-0.39594098622311974
sbag2566
ag2521
ag2472
ag2419
ag2362
ag2301
ag2236
ag2167
ag2094
ag2017
ag1936
ag1851
ag1762
ag1669
ag1572
ag1471
ag1366
ag1257
ag1144
ag1027
ag906
ag781
asg291
(lp2587
sg293
Nsbag77
ag84
ag91
ag98
ag105
ag112
ag119
ag126
ag133
ag140
ag147
ag154
ag161
ag168
ag175
ag182
ag189
ag196
ag203
ag210
ag217
ag224
ag294
ag360
ag426
ag492
ag558
asg14
F-4.008903322952018
sg624
F0.0001149652853692867
sg15
F0.017829626201855863
sg16
(lp2588
g626
ag695
asg228
(lp2589
g646
ag715
asg291
(lp2590
(ineural_net
Weight
p2591
(dp2592
g232
F-0.47431831529163127
sba(ineural_net
Weight
p2593
(dp2594
g232
F-0.3784238148866699
sba(ineural_net
Weight
p2595
(dp2596
g232
F-0.32432315668482764
sba(ineural_net
Weight
p2597
(dp2598
g232
F-0.6475100237354767
sba(ineural_net
Weight
p2599
(dp2600
g232
F0.4778421164922181
sba(ineural_net
Weight
p2601
(dp2602
g232
F0.5279836257514303
sba(ineural_net
Weight
p2603
(dp2604
g232
F-0.7290695695475321
sba(ineural_net
Weight
p2605
(dp2606
g232
F-0.6081953430790658
sbag2585
ag2542
ag2495
ag2444
ag2389
ag2330
ag2267
ag2200
ag2129
ag2054
ag1975
ag1892
ag1805
ag1714
ag1619
ag1520
ag1417
ag1310
ag1199
ag1084
ag965
ag842
ag245
ag313
ag379
ag445
ag511
ag577
asg293
(ineural_net
Weight
p2607
(dp2608
g232
F0.006059901016146911
sbsg694
F0.0033559337384157003
sbag74
ag81
ag88
ag95
ag102
ag109
ag116
ag123
ag130
ag137
ag144
ag151
ag158
ag165
ag172
ag179
ag186
ag193
ag200
ag207
ag214
ag221
asg228
(lp2609
(ineural_net
Weight
p2610
(dp2611
g232
F-0.44117207287769816
sba(ineural_net
Weight
p2612
(dp2613
g232
F-1.2160832935219887
sba(ineural_net
Weight
p2614
(dp2615
g232
F-0.2911429665810539
sba(ineural_net
Weight
p2616
(dp2617
g232
F-1.4592560851809506
sba(ineural_net
Weight
p2618
(dp2619
g232
F-0.6334732186598515
sba(ineural_net
Weight
p2620
(dp2621
g232
F-0.44591460603681354
sba(ineural_net
Weight
p2622
(dp2623
g232
F-1.7961441136344893
sbag2605
ag2564
ag2519
ag2470
ag2417
ag2360
ag2299
ag2234
ag2165
ag2092
ag2015
ag1934
ag1849
ag1760
ag1667
ag1570
ag1469
ag1364
ag1255
ag1142
ag1025
ag904
ag779
asg291
(lp2624
sg293
Nsbag70
ag77
ag84
ag91
ag98
ag105
ag112
ag119
ag126
ag133
ag140
ag147
ag154
ag161
ag168
ag175
ag182
ag189
ag196
ag203
ag210
ag217
ag224
ag294
ag360
ag426
ag492
ag558
asg14
F-3.1151349898147522
sg624
F0.0006351991444684137
sg15
F0.042487250657297033
sg16
(lp2625
g626
ag695
asg228
(lp2626
g644
ag713
asg291
(lp2627
(ineural_net
Weight
p2628
(dp2629
g232
F-0.6439331720630054
sba(ineural_net
Weight
p2630
(dp2631
g232
F-1.745347202887541
sba(ineural_net
Weight
p2632
(dp2633
g232
F-0.0298387300553005
sba(ineural_net
Weight
p2634
(dp2635
g232
F0.1164146475213375
sba(ineural_net
Weight
p2636
(dp2637
g232
F1.4454124406302713
sba(ineural_net
Weight
p2638
(dp2639
g232
F0.48414777885442645
sba(ineural_net
Weight
p2640
(dp2641
g232
F0.10287828890368277
sbag2622
ag2583
ag2540
ag2493
ag2442
ag2387
ag2328
ag2265
ag2198
ag2127
ag2052
ag1973
ag1890
ag1803
ag1712
ag1617
ag1518
ag1415
ag1308
ag1197
ag1082
ag963
ag840
ag243
ag311
ag377
ag443
ag509
ag575
asg293
(ineural_net
Weight
p2642
(dp2643
g232
F0.0038852129652252026
sbsg694
F0.0031733198479257643
sbag67
ag74
ag81
ag88
ag95
ag102
ag109
ag116
ag123
ag130
ag137
ag144
ag151
ag158
ag165
ag172
ag179
ag186
ag193
ag200
ag207
ag214
ag221
asg228
(lp2644
(ineural_net
Weight
p2645
(dp2646
g232
F-0.5932553407497588
sba(ineural_net
Weight
p2647
(dp2648
g232
F-0.6171471598619523
sba(ineural_net
Weight
p2649
(dp2650
g232
F-0.6424588793632041
sba(ineural_net
Weight
p2651
(dp2652
g232
F-0.7301230083382875
sba(ineural_net
Weight
p2653
(dp2654
g232
F-0.870083853777327
sba(ineural_net
Weight
p2655
(dp2656
g232
F-0.868994654510148
sbag2640
ag2603
ag2562
ag2517
ag2468
ag2415
ag2358
ag2297
ag2232
ag2163
ag2090
ag2013
ag1932
ag1847
ag1758
ag1665
ag1568
ag1467
ag1362
ag1253
ag1140
ag1023
ag902
ag777
asg291
(lp2657
sg293
Nsbag63
ag70
ag77
ag84
ag91
ag98
ag105
ag112
ag119
ag126
ag133
ag140
ag147
ag154
ag161
ag168
ag175
ag182
ag189
ag196
ag203
ag210
ag217
ag224
ag294
ag360
ag426
ag492
ag558
asg14
F-5.540734093910854
sg624
F0.00032701796717694766
sg15
F0.003908310631342972
sg16
(lp2658
g626
ag695
asg228
(lp2659
g642
ag711
asg291
(lp2660
(ineural_net
Weight
p2661
(dp2662
g232
F-0.21040252404246174
sba(ineural_net
Weight
p2663
(dp2664
g232
F-0.6368864425573051
sba(ineural_net
Weight
p2665
(dp2666
g232
F-0.11115235041116382
sba(ineural_net
Weight
p2667
(dp2668
g232
F-0.1471881600031714
sba(ineural_net
Weight
p2669
(dp2670
g232
F1.360402992594154
sba(ineural_net
Weight
p2671
(dp2672
g232
F1.008697818767733
sbag2655
ag2620
ag2581
ag2538
ag2491
ag2440
ag2385
ag2326
ag2263
ag2196
ag2125
ag2050
ag1971
ag1888
ag1801
ag1710
ag1615
ag1516
ag1413
ag1306
ag1195
ag1080
ag961
ag838
ag241
ag309
ag375
ag441
ag507
ag573
asg293
(ineural_net
Weight
p2673
(dp2674
g232
F-0.0008933742705550737
sbsg694
F0.0017888919054427975
sbag60
ag67
ag74
ag81
ag88
ag95
ag102
ag109
ag116
ag123
ag130
ag137
ag144
ag151
ag158
ag165
ag172
ag179
ag186
ag193
ag200
ag207
ag214
ag221
asg228
(lp2675
(ineural_net
Weight
p2676
(dp2677
g232
F0.5167712754922309
sba(ineural_net
Weight
p2678
(dp2679
g232
F0.4411272111658916
sba(ineural_net
Weight
p2680
(dp2681
g232
F0.5831888530767265
sba(ineural_net
Weight
p2682
(dp2683
g232
F0.3375557365071252
sba(ineural_net
Weight
p2684
(dp2685
g232
F1.6818327847999834
sbag2671
ag2638
ag2601
ag2560
ag2515
ag2466
ag2413
ag2356
ag2295
ag2230
ag2161
ag2088
ag2011
ag1930
ag1845
ag1756
ag1663
ag1566
ag1465
ag1360
ag1251
ag1138
ag1021
ag900
ag775
asg291
(lp2686
sg293
Nsbag56
ag63
ag70
ag77
ag84
ag91
ag98
ag105
ag112
ag119
ag126
ag133
ag140
ag147
ag154
ag161
ag168
ag175
ag182
ag189
ag196
ag203
ag210
ag217
ag224
ag294
ag360
ag426
ag492
ag558
asg14
F-3.6723370924736303
sg624
F4.006996584662591e-05
sg15
F0.0247869877691086
sg16
(lp2687
g626
ag695
asg228
(lp2688
g640
ag709
asg291
(lp2689
(ineural_net
Weight
p2690
(dp2691
g232
F-1.2923008545575125
sba(ineural_net
Weight
p2692
(dp2693
g232
F-0.8154487134161901
sba(ineural_net
Weight
p2694
(dp2695
g232
F-0.5031169648872571
sba(ineural_net
Weight
p2696
(dp2697
g232
F-0.9157706321524867
sba(ineural_net
Weight
p2698
(dp2699
g232
F1.2390354750437298
sbag2684
ag2653
ag2618
ag2579
ag2536
ag2489
ag2438
ag2383
ag2324
ag2261
ag2194
ag2123
ag2048
ag1969
ag1886
ag1799
ag1708
ag1613
ag1514
ag1411
ag1304
ag1193
ag1078
ag959
ag836
ag239
ag307
ag373
ag439
ag505
ag571
asg293
(ineural_net
Weight
p2700
(dp2701
g232
F0.006377404597063216
sbsg694
F0.0022441806256447306
sbag53
ag60
ag67
ag74
ag81
ag88
ag95
ag102
ag109
ag116
ag123
ag130
ag137
ag144
ag151
ag158
ag165
ag172
ag179
ag186
ag193
ag200
ag207
ag214
ag221
asg228
(lp2702
(ineural_net
Weight
p2703
(dp2704
g232
F1.8007668543830038
sba(ineural_net
Weight
p2705
(dp2706
g232
F0.15154227637803067
sba(ineural_net
Weight
p2707
(dp2708
g232
F0.5292906964265679
sba(ineural_net
Weight
p2709
(dp2710
g232
F0.13043505434957256
sbag2698
ag2669
ag2636
ag2599
ag2558
ag2513
ag2464
ag2411
ag2354
ag2293
ag2228
ag2159
ag2086
ag2009
ag1928
ag1843
ag1754
ag1661
ag1564
ag1463
ag1358
ag1249
ag1136
ag1019
ag898
ag773
asg291
(lp2711
sg293
Nsbag49
ag56
ag63
ag70
ag77
ag84
ag91
ag98
ag105
ag112
ag119
ag126
ag133
ag140
ag147
ag154
ag161
ag168
ag175
ag182
ag189
ag196
ag203
ag210
ag217
ag224
ag294
ag360
ag426
ag492
ag558
asg14
F-5.1427324368244705
sg624
F0.0004268152302303942
sg15
F0.005807778460644563
sg16
(lp2712
g626
ag695
asg228
(lp2713
g638
ag707
asg291
(lp2714
(ineural_net
Weight
p2715
(dp2716
g232
F-0.08617802602499618
sba(ineural_net
Weight
p2717
(dp2718
g232
F-0.028706322229497667
sba(ineural_net
Weight
p2719
(dp2720
g232
F-1.3399699815734376
sba(ineural_net
Weight
p2721
(dp2722
g232
F-0.6121354057052771
sbag2709
ag2682
ag2651
ag2616
ag2577
ag2534
ag2487
ag2436
ag2381
ag2322
ag2259
ag2192
ag2121
ag2046
ag1967
ag1884
ag1797
ag1706
ag1611
ag1512
ag1409
ag1302
ag1191
ag1076
ag957
ag834
ag237
ag305
ag371
ag437
ag503
ag569
asg293
(ineural_net
Weight
p2723
(dp2724
g232
F0.004134464292493112
sbsg694
F0.003596329734810888
sbag46
ag53
ag60
ag67
ag74
ag81
ag88
ag95
ag102
ag109
ag116
ag123
ag130
ag137
ag144
ag151
ag158
ag165
ag172
ag179
ag186
ag193
ag200
ag207
ag214
ag221
asg228
(lp2725
(ineural_net
Weight
p2726
(dp2727
g232
F-0.4850427159515297
sba(ineural_net
Weight
p2728
(dp2729
g232
F-0.6624009380237071
sba(ineural_net
Weight
p2730
(dp2731
g232
F-0.7976229535733829
sbag2721
ag2696
ag2667
ag2634
ag2597
ag2556
ag2511
ag2462
ag2409
ag2352
ag2291
ag2226
ag2157
ag2084
ag2007
ag1926
ag1841
ag1752
ag1659
ag1562
ag1461
ag1356
ag1247
ag1134
ag1017
ag896
ag771
asg291
(lp2732
sg293
Nsbag42
ag49
ag56
ag63
ag70
ag77
ag84
ag91
ag98
ag105
ag112
ag119
ag126
ag133
ag140
ag147
ag154
ag161
ag168
ag175
ag182
ag189
ag196
ag203
ag210
ag217
ag224
ag294
ag360
ag426
ag492
ag558
asg14
F-2.346734046053855
sg624
F0.00033482901210595033
sg15
F0.08732571818495731
sg16
(lp2733
g626
ag695
asg228
(lp2734
g636
ag705
asg291
(lp2735
(ineural_net
Weight
p2736
(dp2737
g232
F-0.04556701126534631
sba(ineural_net
Weight
p2738
(dp2739
g232
F0.08984474350110506
sba(ineural_net
Weight
p2740
(dp2741
g232
F-0.7683986356156873
sbag2730
ag2707
ag2680
ag2649
ag2614
ag2575
ag2532
ag2485
ag2434
ag2379
ag2320
ag2257
ag2190
ag2119
ag2044
ag1965
ag1882
ag1795
ag1704
ag1609
ag1510
ag1407
ag1300
ag1189
ag1074
ag955
ag832
ag235
ag303
ag369
ag435
ag501
ag567
asg293
(ineural_net
Weight
p2742
(dp2743
g232
F-0.004854658686601175
sbsg694
F0.0020398568258476464
sbag39
ag46
ag53
ag60
ag67
ag74
ag81
ag88
ag95
ag102
ag109
ag116
ag123
ag130
ag137
ag144
ag151
ag158
ag165
ag172
ag179
ag186
ag193
ag200
ag207
ag214
ag221
asg228
(lp2744
(ineural_net
Weight
p2745
(dp2746
g232
F-0.00011709582987605872
sba(ineural_net
Weight
p2747
(dp2748
g232
F-0.8607966644422285
sbag2740
ag2719
ag2694
ag2665
ag2632
ag2595
ag2554
ag2509
ag2460
ag2407
ag2350
ag2289
ag2224
ag2155
ag2082
ag2005
ag1924
ag1839
ag1750
ag1657
ag1560
ag1459
ag1354
ag1245
ag1132
ag1015
ag894
ag769
asg291
(lp2749
sg293
Nsbag35
ag42
ag49
ag56
ag63
ag70
ag77
ag84
ag91
ag98
ag105
ag112
ag119
ag126
ag133
ag140
ag147
ag154
ag161
ag168
ag175
ag182
ag189
ag196
ag203
ag210
ag217
ag224
ag294
ag360
ag426
ag492
ag558
asg14
F-5.455452095967392
sg624
F0.000262696890326341
sg15
F0.004254764192438331
sg16
(lp2750
g626
ag695
asg228
(lp2751
g634
ag703
asg291
(lp2752
(ineural_net
Weight
p2753
(dp2754
g232
F-0.2934446003923848
sba(ineural_net
Weight
p2755
(dp2756
g232
F0.09875879168989057
sbag2747
ag2728
ag2705
ag2678
ag2647
ag2612
ag2573
ag2530
ag2483
ag2432
ag2377
ag2318
ag2255
ag2188
ag2117
ag2042
ag1963
ag1880
ag1793
ag1702
ag1607
ag1508
ag1405
ag1298
ag1187
ag1072
ag953
ag830
ag233
ag301
ag367
ag433
ag499
ag565
asg293
(ineural_net
Weight
p2757
(dp2758
g232
F0.005618364452953868
sbsg694
F0.0036780605677834734
sbag32
ag39
ag46
ag53
ag60
ag67
ag74
ag81
ag88
ag95
ag102
ag109
ag116
ag123
ag130
ag137
ag144
ag151
ag158
ag165
ag172
ag179
ag186
ag193
ag200
ag207
ag214
ag221
asg228
(lp2759
(ineural_net
Weight
p2760
(dp2761
g232
F-0.45096471847011776
sbag2755
ag2738
ag2717
ag2692
ag2663
ag2630
ag2593
ag2552
ag2507
ag2458
ag2405
ag2348
ag2287
ag2222
ag2153
ag2080
ag2003
ag1922
ag1837
ag1748
ag1655
ag1558
ag1457
ag1352
ag1243
ag1130
ag1013
ag892
ag767
asg291
(lp2762
sg293
Nsbag28
ag35
ag42
ag49
ag56
ag63
ag70
ag77
ag84
ag91
ag98
ag105
ag112
ag119
ag126
ag133
ag140
ag147
ag154
ag161
ag168
ag175
ag182
ag189
ag196
ag203
ag210
ag217
ag224
ag294
ag360
ag426
ag492
ag558
asg14
F-5.020758038674065
sg624
F0.0003366129506032721
sg15
F0.00655625397658018
sg16
(lp2763
g626
ag695
asg228
(lp2764
g632
ag701
asg291
(lp2765
(ineural_net
Weight
p2766
(dp2767
g232
F0.12077117156617449
sbag2760
ag2745
ag2726
ag2703
ag2676
ag2645
ag2610
ag2571
ag2528
ag2481
ag2430
ag2375
ag2316
ag2253
ag2186
ag2115
ag2040
ag1961
ag1878
ag1791
ag1700
ag1605
ag1506
ag1403
ag1296
ag1185
ag1070
ag951
ag828
ag230
ag299
ag365
ag431
ag497
ag563
asg293
(ineural_net
Weight
p2768
(dp2769
g232
F0.008607722006282315
sbsg694
F0.0019412396085691725
sbag25
ag32
ag39
ag46
ag53
ag60
ag67
ag74
ag81
ag88
ag95
ag102
ag109
ag116
ag123
ag130
ag137
ag144
ag151
ag158
ag165
ag172
ag179
ag186
ag193
ag200
ag207
ag214
ag221
asg228
(lp2770
g2766
ag2753
ag2736
ag2715
ag2690
ag2661
ag2628
ag2591
ag2550
ag2505
ag2456
ag2403
ag2346
ag2285
ag2220
ag2151
ag2078
ag2001
ag1920
ag1835
ag1746
ag1653
ag1556
ag1455
ag1350
ag1241
ag1128
ag1011
ag890
ag765
asg291
(lp2771
sg293
Nsbag21
ag28
ag35
ag42
ag49
ag56
ag63
ag70
ag77
ag84
ag91
ag98
ag105
ag112
ag119
ag126
ag133
ag140
ag147
ag154
ag161
ag168
ag175
ag182
ag189
ag196
ag203
ag210
ag217
ag224
ag294
ag360
ag426
ag492
ag558
asS'complete'
p2772
I01
sS'outputs'
p2773
(lp2774
g626
ag695
asS'node_set'
p2775
(dp2776
g172
I01
sg179
I01
sg147
I01
sg77
I01
sg221
I01
sg98
I01
sg214
I01
sg154
I01
sg224
I01
sg109
I01
sg84
I01
sg137
I01
sg207
I01
sg158
I01
sg123
I01
sg695
I01
sg39
I01
sg81
I01
sg102
I01
sg161
I01
sg217
I01
sg21
I01
sg91
I01
sg130
I01
sg42
I01
sg151
I01
sg168
I01
sg360
I01
sg28
I01
sg74
I01
sg116
I01
sg46
I01
sg32
I01
sg294
I01
sg175
I01
sg35
I01
sg105
I01
sg56
I01
sg67
I01
sg88
I01
sg193
I01
sg200
I01
sg182
I01
sg492
I01
sg112
I01
sg426
I01
sg189
I01
sg70
I01
sg49
I01
sg119
I01
sg626
I01
sg144
I01
sg186
I01
sg60
I01
sg196
I01
sg18
I01
sg126
I01
sg25
I01
sg558
I01
sg203
I01
sg63
I01
sg133
I01
sg95
I01
sg165
I01
sg53
I01
sg210
I01
sg140
I01
sg11
I01
ssg291
(lp2777
g2766
ag2768
ag2760
ag2745
ag2726
ag2703
ag2676
ag2645
ag2610
ag2571
ag2528
ag2481
ag2430
ag2375
ag2316
ag2253
ag2186
ag2115
ag2040
ag1961
ag1878
ag1791
ag1700
ag1605
ag1506
ag1403
ag1296
ag1185
ag1070
ag951
ag828
ag230
ag299
ag365
ag431
ag497
ag563
ag2753
ag2757
ag2755
ag2747
ag2728
ag2705
ag2678
ag2647
ag2612
ag2573
ag2530
ag2483
ag2432
ag2377
ag2318
ag2255
ag2188
ag2117
ag2042
ag1963
ag1880
ag1793
ag1702
ag1607
ag1508
ag1405
ag1298
ag1187
ag1072
ag953
ag830
ag233
ag301
ag367
ag433
ag499
ag565
ag2736
ag2742
ag2738
ag2740
ag2730
ag2707
ag2680
ag2649
ag2614
ag2575
ag2532
ag2485
ag2434
ag2379
ag2320
ag2257
ag2190
ag2119
ag2044
ag1965
ag1882
ag1795
ag1704
ag1609
ag1510
ag1407
ag1300
ag1189
ag1074
ag955
ag832
ag235
ag303
ag369
ag435
ag501
ag567
ag2715
ag2723
ag2717
ag2719
ag2721
ag2709
ag2682
ag2651
ag2616
ag2577
ag2534
ag2487
ag2436
ag2381
ag2322
ag2259
ag2192
ag2121
ag2046
ag1967
ag1884
ag1797
ag1706
ag1611
ag1512
ag1409
ag1302
ag1191
ag1076
ag957
ag834
ag237
ag305
ag371
ag437
ag503
ag569
ag2690
ag2700
ag2692
ag2694
ag2696
ag2698
ag2684
ag2653
ag2618
ag2579
ag2536
ag2489
ag2438
ag2383
ag2324
ag2261
ag2194
ag2123
ag2048
ag1969
ag1886
ag1799
ag1708
ag1613
ag1514
ag1411
ag1304
ag1193
ag1078
ag959
ag836
ag239
ag307
ag373
ag439
ag505
ag571
ag2661
ag2673
ag2663
ag2665
ag2667
ag2669
ag2671
ag2655
ag2620
ag2581
ag2538
ag2491
ag2440
ag2385
ag2326
ag2263
ag2196
ag2125
ag2050
ag1971
ag1888
ag1801
ag1710
ag1615
ag1516
ag1413
ag1306
ag1195
ag1080
ag961
ag838
ag241
ag309
ag375
ag441
ag507
ag573
ag2628
ag2642
ag2630
ag2632
ag2634
ag2636
ag2638
ag2640
ag2622
ag2583
ag2540
ag2493
ag2442
ag2387
ag2328
ag2265
ag2198
ag2127
ag2052
ag1973
ag1890
ag1803
ag1712
ag1617
ag1518
ag1415
ag1308
ag1197
ag1082
ag963
ag840
ag243
ag311
ag377
ag443
ag509
ag575
ag2591
ag2607
ag2593
ag2595
ag2597
ag2599
ag2601
ag2603
ag2605
ag2585
ag2542
ag2495
ag2444
ag2389
ag2330
ag2267
ag2200
ag2129
ag2054
ag1975
ag1892
ag1805
ag1714
ag1619
ag1520
ag1417
ag1310
ag1199
ag1084
ag965
ag842
ag245
ag313
ag379
ag445
ag511
ag577
ag2550
ag2568
ag2552
ag2554
ag2556
ag2558
ag2560
ag2562
ag2564
ag2566
ag2544
ag2497
ag2446
ag2391
ag2332
ag2269
ag2202
ag2131
ag2056
ag1977
ag1894
ag1807
ag1716
ag1621
ag1522
ag1419
ag1312
ag1201
ag1086
ag967
ag844
ag247
ag315
ag381
ag447
ag513
ag579
ag2505
ag2525
ag2507
ag2509
ag2511
ag2513
ag2515
ag2517
ag2519
ag2521
ag2523
ag2499
ag2448
ag2393
ag2334
ag2271
ag2204
ag2133
ag2058
ag1979
ag1896
ag1809
ag1718
ag1623
ag1524
ag1421
ag1314
ag1203
ag1088
ag969
ag846
ag249
ag317
ag383
ag449
ag515
ag581
ag2456
ag2478
ag2458
ag2460
ag2462
ag2464
ag2466
ag2468
ag2470
ag2472
ag2474
ag2476
ag2450
ag2395
ag2336
ag2273
ag2206
ag2135
ag2060
ag1981
ag1898
ag1811
ag1720
ag1625
ag1526
ag1423
ag1316
ag1205
ag1090
ag971
ag848
ag251
ag319
ag385
ag451
ag517
ag583
ag2403
ag2427
ag2405
ag2407
ag2409
ag2411
ag2413
ag2415
ag2417
ag2419
ag2421
ag2423
ag2425
ag2397
ag2338
ag2275
ag2208
ag2137
ag2062
ag1983
ag1900
ag1813
ag1722
ag1627
ag1528
ag1425
ag1318
ag1207
ag1092
ag973
ag850
ag253
ag321
ag387
ag453
ag519
ag585
ag2346
ag2372
ag2348
ag2350
ag2352
ag2354
ag2356
ag2358
ag2360
ag2362
ag2364
ag2366
ag2368
ag2370
ag2340
ag2277
ag2210
ag2139
ag2064
ag1985
ag1902
ag1815
ag1724
ag1629
ag1530
ag1427
ag1320
ag1209
ag1094
ag975
ag852
ag255
ag323
ag389
ag455
ag521
ag587
ag2285
ag2313
ag2287
ag2289
ag2291
ag2293
ag2295
ag2297
ag2299
ag2301
ag2303
ag2305
ag2307
ag2309
ag2311
ag2279
ag2212
ag2141
ag2066
ag1987
ag1904
ag1817
ag1726
ag1631
ag1532
ag1429
ag1322
ag1211
ag1096
ag977
ag854
ag257
ag325
ag391
ag457
ag523
ag589
ag2220
ag2250
ag2222
ag2224
ag2226
ag2228
ag2230
ag2232
ag2234
ag2236
ag2238
ag2240
ag2242
ag2244
ag2246
ag2248
ag2214
ag2143
ag2068
ag1989
ag1906
ag1819
ag1728
ag1633
ag1534
ag1431
ag1324
ag1213
ag1098
ag979
ag856
ag259
ag327
ag393
ag459
ag525
ag591
ag2151
ag2183
ag2153
ag2155
ag2157
ag2159
ag2161
ag2163
ag2165
ag2167
ag2169
ag2171
ag2173
ag2175
ag2177
ag2179
ag2181
ag2145
ag2070
ag1991
ag1908
ag1821
ag1730
ag1635
ag1536
ag1433
ag1326
ag1215
ag1100
ag981
ag858
ag261
ag329
ag395
ag461
ag527
ag593
ag2078
ag2112
ag2080
ag2082
ag2084
ag2086
ag2088
ag2090
ag2092
ag2094
ag2096
ag2098
ag2100
ag2102
ag2104
ag2106
ag2108
ag2110
ag2072
ag1993
ag1910
ag1823
ag1732
ag1637
ag1538
ag1435
ag1328
ag1217
ag1102
ag983
ag860
ag263
ag331
ag397
ag463
ag529
ag595
ag2001
ag2037
ag2003
ag2005
ag2007
ag2009
ag2011
ag2013
ag2015
ag2017
ag2019
ag2021
ag2023
ag2025
ag2027
ag2029
ag2031
ag2033
ag2035
ag1995
ag1912
ag1825
ag1734
ag1639
ag1540
ag1437
ag1330
ag1219
ag1104
ag985
ag862
ag265
ag333
ag399
ag465
ag531
ag597
ag1920
ag1958
ag1922
ag1924
ag1926
ag1928
ag1930
ag1932
ag1934
ag1936
ag1938
ag1940
ag1942
ag1944
ag1946
ag1948
ag1950
ag1952
ag1954
ag1956
ag1914
ag1827
ag1736
ag1641
ag1542
ag1439
ag1332
ag1221
ag1106
ag987
ag864
ag267
ag335
ag401
ag467
ag533
ag599
ag1835
ag1875
ag1837
ag1839
ag1841
ag1843
ag1845
ag1847
ag1849
ag1851
ag1853
ag1855
ag1857
ag1859
ag1861
ag1863
ag1865
ag1867
ag1869
ag1871
ag1873
ag1829
ag1738
ag1643
ag1544
ag1441
ag1334
ag1223
ag1108
ag989
ag866
ag269
ag337
ag403
ag469
ag535
ag601
ag1746
ag1788
ag1748
ag1750
ag1752
ag1754
ag1756
ag1758
ag1760
ag1762
ag1764
ag1766
ag1768
ag1770
ag1772
ag1774
ag1776
ag1778
ag1780
ag1782
ag1784
ag1786
ag1740
ag1645
ag1546
ag1443
ag1336
ag1225
ag1110
ag991
ag868
ag271
ag339
ag405
ag471
ag537
ag603
ag1653
ag1697
ag1655
ag1657
ag1659
ag1661
ag1663
ag1665
ag1667
ag1669
ag1671
ag1673
ag1675
ag1677
ag1679
ag1681
ag1683
ag1685
ag1687
ag1689
ag1691
ag1693
ag1695
ag1647
ag1548
ag1445
ag1338
ag1227
ag1112
ag993
ag870
ag273
ag341
ag407
ag473
ag539
ag605
ag1556
ag1602
ag1558
ag1560
ag1562
ag1564
ag1566
ag1568
ag1570
ag1572
ag1574
ag1576
ag1578
ag1580
ag1582
ag1584
ag1586
ag1588
ag1590
ag1592
ag1594
ag1596
ag1598
ag1600
ag1550
ag1447
ag1340
ag1229
ag1114
ag995
ag872
ag275
ag343
ag409
ag475
ag541
ag607
ag1455
ag1503
ag1457
ag1459
ag1461
ag1463
ag1465
ag1467
ag1469
ag1471
ag1473
ag1475
ag1477
ag1479
ag1481
ag1483
ag1485
ag1487
ag1489
ag1491
ag1493
ag1495
ag1497
ag1499
ag1501
ag1449
ag1342
ag1231
ag1116
ag997
ag874
ag277
ag345
ag411
ag477
ag543
ag609
ag1350
ag1400
ag1352
ag1354
ag1356
ag1358
ag1360
ag1362
ag1364
ag1366
ag1368
ag1370
ag1372
ag1374
ag1376
ag1378
ag1380
ag1382
ag1384
ag1386
ag1388
ag1390
ag1392
ag1394
ag1396
ag1398
ag1344
ag1233
ag1118
ag999
ag876
ag279
ag347
ag413
ag479
ag545
ag611
ag1241
ag1293
ag1243
ag1245
ag1247
ag1249
ag1251
ag1253
ag1255
ag1257
ag1259
ag1261
ag1263
ag1265
ag1267
ag1269
ag1271
ag1273
ag1275
ag1277
ag1279
ag1281
ag1283
ag1285
ag1287
ag1289
ag1291
ag1235
ag1120
ag1001
ag878
ag281
ag349
ag415
ag481
ag547
ag613
ag1128
ag1182
ag1130
ag1132
ag1134
ag1136
ag1138
ag1140
ag1142
ag1144
ag1146
ag1148
ag1150
ag1152
ag1154
ag1156
ag1158
ag1160
ag1162
ag1164
ag1166
ag1168
ag1170
ag1172
ag1174
ag1176
ag1178
ag1180
ag1122
ag1003
ag880
ag283
ag351
ag417
ag483
ag549
ag615
ag1011
ag1067
ag1013
ag1015
ag1017
ag1019
ag1021
ag1023
ag1025
ag1027
ag1029
ag1031
ag1033
ag1035
ag1037
ag1039
ag1041
ag1043
ag1045
ag1047
ag1049
ag1051
ag1053
ag1055
ag1057
ag1059
ag1061
ag1063
ag1065
ag1005
ag882
ag285
ag353
ag419
ag485
ag551
ag617
ag890
ag948
ag892
ag894
ag896
ag898
ag900
ag902
ag904
ag906
ag908
ag910
ag912
ag914
ag916
ag918
ag920
ag922
ag924
ag926
ag928
ag930
ag932
ag934
ag936
ag938
ag940
ag942
ag944
ag946
ag884
ag287
ag355
ag421
ag487
ag553
ag619
ag765
ag825
ag767
ag769
ag771
ag773
ag775
ag777
ag779
ag781
ag783
ag785
ag787
ag789
ag791
ag793
ag795
ag797
ag799
ag801
ag803
ag805
ag807
ag809
ag811
ag813
ag815
ag817
ag819
ag821
ag823
ag289
ag357
ag423
ag489
ag555
ag621
ag632
ag692
ag634
ag636
ag638
ag640
ag642
ag644
ag646
ag648
ag650
ag652
ag654
ag656
ag658
ag660
ag662
ag664
ag666
ag668
ag670
ag672
ag674
ag676
ag678
ag680
ag682
ag684
ag686
ag688
ag690
ag701
ag761
ag703
ag705
ag707
ag709
ag711
ag713
ag715
ag717
ag719
ag721
ag723
ag725
ag727
ag729
ag731
ag733
ag735
ag737
ag739
ag741
ag743
ag745
ag747
ag749
ag751
ag753
ag755
ag757
ag759
asS'hidden_nodes'
p2778
(lp2779
g18
ag25
ag32
ag39
ag46
ag53
ag60
ag67
ag74
ag81
ag88
ag95
ag102
ag109
ag116
ag123
ag130
ag137
ag144
ag151
ag158
ag165
ag172
ag179
ag186
ag193
ag200
ag207
ag214
ag221
asbsS'FeedForwardFn'
p2780
cneural_net_impl
FeedForward
p2781
sS'TrainFn'
p2782
cneural_net_impl
Train
p2783
sb.