(lp0
(idtree
DecisionTree
p1
(dp2
S'attrname'
p3
I19
sS'branches'
p4
(dp5
I0
(idtree
DecisionTree
p6
(dp7
S'nodetype'
p8
I1
sS'classification'
p9
I0
sbsI1
(idtree
DecisionTree
p10
(dp11
g8
I1
sg9
I0
sbssg8
I0
sS'attr'
p12
I19
sS'weight'
p13
F0.16859328244259583
sba(idtree
DecisionTree
p14
(dp15
g3
I19
sg4
(dp16
I0
(idtree
DecisionTree
p17
(dp18
g8
I1
sg9
I0
sbsI1
(idtree
DecisionTree
p19
(dp20
g8
I1
sg9
I0
sbssg8
I0
sg12
I19
sg13
F0.08690289056097292
sba(idtree
DecisionTree
p21
(dp22
g3
I19
sg4
(dp23
I0
(idtree
DecisionTree
p24
(dp25
g8
I1
sg9
I1
sbsI1
(idtree
DecisionTree
p26
(dp27
g8
I1
sg9
I0
sbssg8
I0
sg12
I19
sg13
F0.12521248470641638
sba(idtree
DecisionTree
p28
(dp29
g3
I4
sg4
(dp30
I0
(idtree
DecisionTree
p31
(dp32
g8
I1
sg9
I1
sbsI1
(idtree
DecisionTree
p33
(dp34
g8
I1
sg9
I0
sbssg8
I0
sg12
I4
sg13
F0.09153626830983642
sba(idtree
DecisionTree
p35
(dp36
g3
I22
sg4
(dp37
I0
(idtree
DecisionTree
p38
(dp39
g8
I1
sg9
I0
sbsI1
(idtree
DecisionTree
p40
(dp41
g8
I1
sg9
I0
sbssg8
I0
sg12
I22
sg13
F0.09849837489127294
sba(idtree
DecisionTree
p42
(dp43
g3
I22
sg4
(dp44
I0
(idtree
DecisionTree
p45
(dp46
g8
I1
sg9
I1
sbsI1
(idtree
DecisionTree
p47
(dp48
g8
I1
sg9
I0
sbssg8
I0
sg12
I22
sg13
F0.10681647076502397
sba(idtree
DecisionTree
p49
(dp50
g3
I20
sg4
(dp51
I0
(idtree
DecisionTree
p52
(dp53
g8
I1
sg9
I1
sbsI1
(idtree
DecisionTree
p54
(dp55
g8
I1
sg9
I0
sbssg8
I0
sg12
I20
sg13
F0.08088634718436279
sba(idtree
DecisionTree
p56
(dp57
g3
I23
sg4
(dp58
I0
(idtree
DecisionTree
p59
(dp60
g8
I1
sg9
I1
sbsI1
(idtree
DecisionTree
p61
(dp62
g8
I1
sg9
I0
sbssg8
I0
sg12
I23
sg13
F0.0893552953381085
sba(idtree
DecisionTree
p63
(dp64
g3
I15
sg4
(dp65
I0
(idtree
DecisionTree
p66
(dp67
g8
I1
sg9
I0
sbsI1
(idtree
DecisionTree
p68
(dp69
g8
I1
sg9
I1
sbssg8
I0
sg12
I15
sg13
F0.09726867309614902
sba(idtree
DecisionTree
p70
(dp71
g3
I30
sg4
(dp72
I0
(idtree
DecisionTree
p73
(dp74
g8
I1
sg9
I0
sbsI1
(idtree
DecisionTree
p75
(dp76
g8
I1
sg9
I0
sbssg8
I0
sg12
I30
sg13
F0.10139983274027783
sba(idtree
DecisionTree
p77
(dp78
g3
I30
sg4
(dp79
I0
(idtree
DecisionTree
p80
(dp81
g8
I1
sg9
I0
sbsI1
(idtree
DecisionTree
p82
(dp83
g8
I1
sg9
I1
sbssg8
I0
sg12
I30
sg13
F0.10510810415907518
sba(idtree
DecisionTree
p84
(dp85
g3
I33
sg4
(dp86
I0
(idtree
DecisionTree
p87
(dp88
g8
I1
sg9
I0
sbsI1
(idtree
DecisionTree
p89
(dp90
g8
I1
sg9
I1
sbssg8
I0
sg12
I33
sg13
F0.1000294337945553
sba(idtree
DecisionTree
p91
(dp92
g3
I5
sg4
(dp93
I0
(idtree
DecisionTree
p94
(dp95
g8
I1
sg9
I1
sbsI1
(idtree
DecisionTree
p96
(dp97
g8
I1
sg9
I0
sbssg8
I0
sg12
I5
sg13
F0.07620434010440372
sba(idtree
DecisionTree
p98
(dp99
g3
I17
sg4
(dp100
I0
(idtree
DecisionTree
p101
(dp102
g8
I1
sg9
I0
sbsI1
(idtree
DecisionTree
p103
(dp104
g8
I1
sg9
I0
sbssg8
I0
sg12
I17
sg13
F0.06184980386827932
sba(idtree
DecisionTree
p105
(dp106
g3
I17
sg4
(dp107
I0
(idtree
DecisionTree
p108
(dp109
g8
I1
sg9
I1
sbsI1
(idtree
DecisionTree
p110
(dp111
g8
I1
sg9
I0
sbssg8
I0
sg12
I17
sg13
F0.053921708345973825
sba(idtree
DecisionTree
p112
(dp113
g3
I6
sg4
(dp114
I0
(idtree
DecisionTree
p115
(dp116
g8
I1
sg9
I0
sbsI1
(idtree
DecisionTree
p117
(dp118
g8
I1
sg9
I1
sbssg8
I0
sg12
I6
sg13
F0.04024537539018918
sba(idtree
DecisionTree
p119
(dp120
g3
I35
sg4
(dp121
I0
(idtree
DecisionTree
p122
(dp123
g8
I1
sg9
I0
sbsI1
(idtree
DecisionTree
p124
(dp125
g8
I1
sg9
I0
sbssg8
I0
sg12
I35
sg13
F0.060027299180223176
sba(idtree
DecisionTree
p126
(dp127
g3
I35
sg4
(dp128
I0
(idtree
DecisionTree
p129
(dp130
g8
I1
sg9
I1
sbsI1
(idtree
DecisionTree
p131
(dp132
g8
I1
sg9
I0
sbssg8
I0
sg12
I35
sg13
F0.05633195230317615
sba(idtree
DecisionTree
p133
(dp134
g3
I8
sg4
(dp135
I0
(idtree
DecisionTree
p136
(dp137
g8
I1
sg9
I0
sbsI1
(idtree
DecisionTree
p138
(dp139
g8
I1
sg9
I1
sbssg8
I0
sg12
I8
sg13
F0.03632725462107746
sba(idtree
DecisionTree
p140
(dp141
g3
I32
sg4
(dp142
I0
(idtree
DecisionTree
p143
(dp144
g8
I1
sg9
I0
sbsI1
(idtree
DecisionTree
p145
(dp146
g8
I1
sg9
I0
sbssg8
I0
sg12
I32
sg13
F0.05322039624272063
sba(idtree
DecisionTree
p147
(dp148
g3
I32
sg4
(dp149
I0
(idtree
DecisionTree
p150
(dp151
g8
I1
sg9
I1
sbsI1
(idtree
DecisionTree
p152
(dp153
g8
I1
sg9
I0
sbssg8
I0
sg12
I32
sg13
F0.04537640115936134
sba(idtree
DecisionTree
p154
(dp155
g3
I13
sg4
(dp156
I0
(idtree
DecisionTree
p157
(dp158
g8
I1
sg9
I0
sbsI1
(idtree
DecisionTree
p159
(dp160
g8
I1
sg9
I1
sbssg8
I0
sg12
I13
sg13
F0.03459851815060098
sba(idtree
DecisionTree
p161
(dp162
g3
I3
sg4
(dp163
I0
(idtree
DecisionTree
p164
(dp165
g8
I1
sg9
I0
sbsI1
(idtree
DecisionTree
p166
(dp167
g8
I1
sg9
I0
sbssg8
I0
sg12
I3
sg13
F0.05091088211874995
sba(idtree
DecisionTree
p168
(dp169
g3
I3
sg4
(dp170
I0
(idtree
DecisionTree
p171
(dp172
g8
I1
sg9
I0
sbsI1
(idtree
DecisionTree
p173
(dp174
g8
I1
sg9
I1
sbssg8
I0
sg12
I3
sg13
F0.05445098109494625
sba(idtree
DecisionTree
p175
(dp176
g3
I18
sg4
(dp177
I0
(idtree
DecisionTree
p178
(dp179
g8
I1
sg9
I0
sbsI1
(idtree
DecisionTree
p180
(dp181
g8
I1
sg9
I1
sbssg8
I0
sg12
I18
sg13
F0.04413877401489459
sba.