(dp0
((I0
I1
I4
I1
I1
I1
I4
I1
I4
I14
I-2
tp1
I1
tp2
F13.268408625781253
s((I2
I1
I1
I1
I1
I1
I1
I4
I1
I-10
I6
tp3
I1
tp4
F-4.524381249999999
s((I1
I4
I4
I1
I1
I4
I4
I1
I0
I-2
I3
tp5
I0
tp6
F-1.0
s((I1
I1
I1
I0
I0
I4
I0
I1
I1
I13
I-3
tp7
I1
tp8
F-1.0
s((I1
I4
I4
I4
I1
I1
I4
I1
I4
I2
I-2
tp9
I1
tp10
F-1.0
s((I1
I4
I1
I4
I4
I4
I4
I4
I4
I-1
I0
tp11
I0
tp12
F-1.95
s((I1
I0
I0
I1
I4
I1
I4
I4
I1
I9
I-2
tp13
I2
tp14
F-1.95
s((I1
I2
I1
I1
I2
I1
I1
I0
I4
I2
I5
tp15
I0
tp16
F-1.95
s((I1
I0
I1
I1
I4
I4
I1
I1
I0
I1
I5
tp17
I2
tp18
F-5.298162187499999
s((I1
I3
I4
I1
I1
I1
I1
I1
I4
I8
I5
tp19
I1
tp20
F-1.0
s((I1
I3
I1
I1
I2
I1
I1
I1
I1
I-5
I4
tp21
I0
tp22
F-1.0
s((I0
I4
I4
I4
I0
I4
I4
I4
I4
I4
I7
tp23
I0
tp24
F19.0
s((I0
I4
I4
I1
I1
I4
I4
I1
I4
I-2
I11
tp25
I2
tp26
F-3.709875
s((I0
I4
I4
I1
I4
I4
I4
I0
I4
I3
I7
tp27
I2
tp28
F-1.0
s((I0
I4
I1
I4
I4
I4
I4
I4
I1
I1
I6
tp29
I2
tp30
F19.0
s((I0
I4
I4
I1
I4
I4
I4
I4
I4
I-3
I3
tp31
I0
tp32
F-1.0
s((I1
I4
I4
I1
I2
I1
I4
I4
I1
I-5
I4
tp33
I2
tp34
F-1.0
s((I1
I4
I1
I4
I0
I1
I4
I1
I1
I-7
I6
tp35
I2
tp36
F-1.0
s((I2
I4
I2
I2
I1
I4
I1
I1
I2
I3
I8
tp37
I3
tp38
F-1.95
s((I1
I1
I4
I3
I0
I1
I1
I1
I1
I-2
I12
tp39
I3
tp40
F-1.0
s((I1
I1
I4
I2
I4
I4
I4
I4
I1
I2
I-6
tp41
I2
tp42
F-1.95
s((I1
I4
I1
I4
I4
I4
I4
I4
I1
I-2
I1
tp43
I2
tp44
F-1.0
s((I1
I4
I4
I1
I4
I4
I4
I4
I4
I-6
I6
tp45
I1
tp46
F-1.0
s((I2
I4
I1
I1
I4
I4
I4
I1
I1
I4
I1
tp47
I0
tp48
F-1.0
s((I1
I4
I4
I4
I0
I4
I4
I4
I4
I13
I1
tp49
I1
tp50
F-1.0
s((I1
I4
I4
I4
I1
I1
I4
I4
I4
I9
I4
tp51
I0
tp52
F-1.0
s((I1
I4
I4
I1
I1
I4
I4
I4
I4
I0
I4
tp53
I2
tp54
F-1.0
s((I1
I4
I4
I4
I1
I4
I4
I0
I4
I0
I2
tp55
I0
tp56
F-1.0
s((I1
I1
I0
I1
I4
I0
I1
I0
I1
I13
I-2
tp57
I3
tp58
F-6.033254078124999
s((I1
I1
I4
I1
I1
I1
I4
I1
I4
I0
I1
tp59
I1
tp60
F-5.298162187499999
s((I1
I4
I4
I1
I4
I4
I4
I4
I4
I0
I0
tp61
I3
tp62
F-1.0
s((I1
I1
I1
I2
I4
I4
I1
I4
I1
I-4
I4
tp63
I3
tp64
F-1.0
s((I1
I1
I0
I1
I1
I1
I4
I2
I1
I-3
I4
tp65
I2
tp66
F-1.0
s((I1
I4
I1
I4
I4
I4
I1
I4
I1
I-4
I10
tp67
I2
tp68
F-1.0
s((I1
I1
I4
I4
I4
I4
I4
I4
I4
I7
I-3
tp69
I1
tp70
F-1.0
s((I1
I1
I4
I1
I2
I4
I1
I1
I1
I13
I1
tp71
I0
tp72
F-6.731591374218749
s((I1
I1
I1
I1
I1
I1
I4
I4
I1
I6
I5
tp73
I3
tp74
F-1.95
s((I1
I2
I4
I3
I1
I1
I0
I4
I4
I0
I0
tp75
I2
tp76
F-3.709875
s((I1
I1
I4
I4
I1
I1
I4
I4
I4
I8
I4
tp77
I0
tp78
F-1.0
s((I0
I4
I3
I4
I0
I1
I1
I4
I1
I5
I-7
tp79
I1
tp80
F-1.95
s((I3
I4
I1
I3
I4
I4
I1
I4
I4
I2
I2
tp81
I2
tp82
F-1.0
s((I0
I4
I4
I1
I4
I4
I4
I4
I0
I2
I8
tp83
I2
tp84
F19.0
s((I0
I4
I4
I4
I1
I4
I4
I1
I4
I-1
I6
tp85
I0
tp86
F19.0
s((I1
I1
I1
I1
I1
I4
I1
I4
I4
I-10
I4
tp87
I3
tp88
F-1.95
s((I1
I4
I4
I4
I1
I4
I4
I4
I4
I4
I2
tp89
I2
tp90
F-1.0
s((I1
I1
I1
I4
I1
I0
I0
I4
I4
I-9
I5
tp91
I0
tp92
F-1.0
s((I1
I1
I0
I4
I1
I1
I0
I1
I1
I8
I-1
tp93
I0
tp94
F-1.0
s((I1
I1
I4
I1
I4
I4
I4
I4
I1
I-3
I2
tp95
I2
tp96
F-1.0
s((I1
I1
I1
I1
I4
I4
I4
I0
I2
I5
I9
tp97
I0
tp98
F-2.8525
s((I2
I4
I2
I4
I1
I4
I0
I1
I2
I3
I7
tp99
I1
tp100
F-2.8525
s((I1
I4
I4
I4
I1
I0
I4
I4
I4
I7
I1
tp101
I0
tp102
F-1.0
s((I2
I1
I1
I1
I1
I1
I1
I1
I1
I4
I1
tp103
I0
tp104
F-6.033254078124999
s((I1
I1
I4
I4
I4
I4
I1
I1
I1
I5
I8
tp105
I2
tp106
F-1.0
s((I1
I4
I4
I1
I4
I4
I4
I4
I4
I0
I1
tp107
I1
tp108
F-1.95
s((I1
I4
I0
I1
I4
I4
I4
I1
I1
I0
I3
tp109
I1
tp110
F-1.0
s((I1
I4
I4
I0
I4
I4
I4
I4
I0
I4
I-6
tp111
I2
tp112
F-1.0
s((I1
I4
I4
I4
I1
I4
I4
I4
I4
I3
I0
tp113
I1
tp114
F-1.0
s((I0
I4
I1
I1
I4
I4
I4
I4
I4
I-2
I1
tp115
I0
tp116
F-1.0
s((I2
I1
I4
I4
I0
I4
I4
I4
I4
I10
I0
tp117
I3
tp118
F-1.0
s((I1
I1
I0
I4
I4
I4
I4
I4
I4
I-5
I0
tp119
I3
tp120
F-1.0
s((I1
I4
I4
I4
I0
I1
I4
I1
I4
I7
I-2
tp121
I2
tp122
F-1.0
s((I1
I0
I4
I1
I1
I1
I4
I0
I4
I14
I-3
tp123
I0
tp124
F-1.0
s((I1
I4
I4
I1
I2
I1
I4
I1
I1
I-5
I4
tp125
I0
tp126
F-1.0
s((I3
I1
I1
I4
I0
I1
I0
I4
I1
I3
I3
tp127
I3
tp128
F-1.0
s((I1
I0
I4
I4
I4
I4
I4
I4
I4
I6
I-3
tp129
I0
tp130
F-1.0
s((I1
I4
I4
I4
I1
I4
I4
I1
I4
I5
I10
tp131
I1
tp132
F-6.033254078124999
s((I1
I4
I0
I0
I4
I4
I4
I1
I1
I2
I7
tp133
I0
tp134
F-1.0
s((I1
I1
I1
I4
I1
I1
I4
I4
I1
I-9
I8
tp135
I2
tp136
F-1.0
s((I0
I4
I4
I1
I4
I4
I4
I1
I4
I1
I3
tp137
I2
tp138
F-11.0
s((I1
I4
I4
I1
I4
I4
I4
I4
I1
I-3
I4
tp139
I3
tp140
F-1.0
s((I0
I4
I4
I4
I1
I4
I4
I0
I4
I6
I8
tp141
I0
tp142
F19.0
s((I1
I1
I1
I1
I1
I1
I2
I4
I3
I-1
I0
tp143
I2
tp144
F-5.298162187499999
s((I1
I1
I4
I1
I1
I1
I3
I2
I4
I5
I2
tp145
I1
tp146
F-1.0
s((I1
I0
I1
I1
I1
I1
I2
I1
I1
I-2
I3
tp147
I2
tp148
F-3.709875
s((I1
I1
I1
I4
I4
I1
I1
I4
I0
I-2
I0
tp149
I3
tp150
F-3.709875
s((I3
I1
I0
I4
I1
I2
I4
I1
I4
I0
I4
tp151
I3
tp152
F-1.0
s((I0
I2
I4
I4
I4
I0
I4
I4
I4
I5
I6
tp153
I1
tp154
F-11.0
s((I1
I1
I1
I1
I1
I1
I1
I1
I1
I-1
I2
tp155
I1
tp156
F-5.298162187499999
s((I2
I1
I1
I1
I4
I4
I1
I1
I1
I-4
I3
tp157
I0
tp158
F-1.95
s((I1
I4
I1
I4
I4
I4
I4
I4
I1
I-2
I3
tp159
I1
tp160
F-1.0
s((I1
I4
I4
I1
I4
I4
I4
I4
I4
I0
I6
tp161
I0
tp162
F-1.0
s((I1
I1
I4
I3
I1
I4
I4
I1
I1
I-5
I6
tp163
I1
tp164
F-5.298162187499999
s((I1
I0
I0
I4
I4
I1
I4
I4
I4
I9
I-2
tp165
I2
tp166
F-1.0
s((I0
I4
I1
I4
I4
I4
I4
I4
I4
I-6
I5
tp167
I1
tp168
F-1.0
s((I1
I4
I4
I0
I0
I4
I4
I0
I4
I5
I8
tp169
I3
tp170
F-1.0
s((I1
I4
I4
I0
I4
I4
I4
I4
I4
I-3
I4
tp171
I0
tp172
F-1.0
s((I1
I1
I1
I4
I2
I1
I0
I1
I4
I0
I0
tp173
I0
tp174
F-1.0
s((I1
I1
I1
I4
I0
I1
I1
I4
I4
I-3
I-1
tp175
I1
tp176
F-3.709875
s((I1
I4
I4
I1
I1
I4
I4
I4
I4
I4
I2
tp177
I1
tp178
F-1.0
s((I3
I3
I1
I1
I2
I1
I0
I0
I4
I1
I-1
tp179
I0
tp180
F-3.709875
s((I0
I2
I1
I4
I3
I1
I1
I4
I4
I1
I4
tp181
I0
tp182
F-1.95
s((I1
I4
I4
I0
I4
I4
I4
I4
I1
I8
I7
tp183
I1
tp184
F-1.0
s((I1
I4
I4
I4
I1
I0
I4
I3
I4
I-1
I10
tp185
I0
tp186
F-1.0
s((I1
I4
I4
I4
I1
I4
I4
I0
I4
I-2
I13
tp187
I3
tp188
F-1.0
s((I1
I4
I1
I4
I4
I4
I4
I4
I1
I-3
I1
tp189
I0
tp190
F-1.0
s((I1
I3
I1
I1
I1
I4
I1
I4
I1
I2
I0
tp191
I0
tp192
F-2.8525
s((I0
I4
I4
I1
I4
I4
I4
I4
I3
I-3
I12
tp193
I0
tp194
F-1.0
s((I1
I1
I2
I1
I4
I1
I1
I1
I1
I3
I1
tp195
I3
tp196
F-2.8525
s((I1
I4
I1
I1
I4
I4
I4
I0
I2
I5
I9
tp197
I0
tp198
F-1.0
s((I1
I1
I1
I1
I1
I1
I1
I1
I1
I6
I6
tp199
I1
tp200
F-1.95
s((I2
I1
I4
I3
I2
I2
I2
I2
I4
I5
I7
tp201
I1
tp202
F-1.95
s((I1
I1
I3
I4
I4
I4
I1
I4
I1
I-3
I3
tp203
I3
tp204
F-2.8525
s((I3
I1
I1
I4
I4
I4
I1
I4
I4
I1
I-3
tp205
I1
tp206
F-1.0
s((I1
I4
I1
I1
I4
I4
I4
I1
I1
I-1
I2
tp207
I1
tp208
F-1.0
s((I1
I1
I4
I2
I1
I1
I4
I1
I4
I14
I-1
tp209
I0
tp210
F-1.0
s((I1
I4
I4
I1
I1
I1
I4
I1
I4
I0
I1
tp211
I1
tp212
F-1.0
s((I1
I1
I1
I4
I1
I4
I1
I4
I4
I-2
I0
tp213
I1
tp214
F-1.95
s((I1
I4
I4
I4
I1
I4
I4
I1
I4
I1
I0
tp215
I2
tp216
F-1.0
s((I1
I1
I4
I4
I1
I1
I4
I4
I4
I8
I4
tp217
I1
tp218
F-2.8525
s((I2
I2
I2
I2
I2
I2
I1
I4
I0
I4
I7
tp219
I0
tp220
F-3.709875
s((I3
I1
I0
I1
I4
I4
I0
I4
I1
I6
I-7
tp221
I1
tp222
F-1.0
s((I1
I0
I4
I4
I4
I1
I4
I4
I4
I2
I-2
tp223
I0
tp224
F-1.0
s((I1
I4
I1
I4
I4
I4
I1
I4
I4
I-4
I-3
tp225
I1
tp226
F-1.0
s((I0
I1
I4
I1
I4
I1
I4
I1
I4
I14
I-2
tp227
I1
tp228
F-1.0
s((I1
I4
I1
I1
I4
I4
I4
I1
I1
I-2
I14
tp229
I3
tp230
F-1.0
s((I1
I4
I1
I1
I4
I4
I1
I4
I1
I-10
I9
tp231
I3
tp232
F-1.0
s((I1
I4
I4
I4
I0
I4
I4
I3
I4
I-4
I7
tp233
I1
tp234
F-1.0
s((I1
I1
I0
I1
I1
I0
I1
I1
I1
I-1
I1
tp235
I0
tp236
F-1.0
s((I1
I2
I1
I1
I1
I4
I1
I1
I1
I-4
I2
tp237
I0
tp238
F-1.0
s((I0
I4
I1
I1
I1
I0
I0
I1
I4
I10
I-2
tp239
I1
tp240
F-3.709875
s((I3
I4
I4
I1
I1
I4
I4
I1
I1
I1
I3
tp241
I1
tp242
F-1.0
s((I2
I1
I4
I1
I1
I1
I4
I4
I1
I1
I-1
tp243
I0
tp244
F-1.0
s((I1
I4
I4
I1
I1
I0
I4
I3
I4
I9
I7
tp245
I2
tp246
F-1.0
s((I2
I1
I4
I4
I0
I0
I2
I4
I4
I5
I7
tp247
I2
tp248
F-1.0
s((I1
I4
I4
I1
I4
I4
I4
I4
I1
I-7
I17
tp249
I2
tp250
F-1.0
s((I1
I0
I1
I1
I1
I4
I0
I1
I3
I7
I7
tp251
I0
tp252
F-1.0
s((I2
I2
I3
I4
I0
I2
I2
I0
I4
I4
I6
tp253
I3
tp254
F-2.8525
s((I1
I4
I0
I0
I1
I4
I4
I4
I0
I7
I9
tp255
I1
tp256
F-1.0
s((I0
I1
I4
I4
I0
I0
I2
I4
I4
I5
I7
tp257
I0
tp258
F16.290125
s((I1
I1
I4
I4
I4
I4
I0
I4
I4
I9
I-3
tp259
I3
tp260
F-1.0
s((I3
I3
I1
I4
I2
I1
I0
I4
I4
I1
I-1
tp261
I1
tp262
F-9.733158334409895
s((I1
I4
I4
I4
I1
I4
I4
I4
I4
I7
I5
tp263
I3
tp264
F-1.0
s((I1
I4
I4
I4
I3
I0
I4
I4
I4
I1
I-3
tp265
I0
tp266
F-1.0
s((I1
I0
I1
I0
I1
I1
I4
I1
I4
I1
I2
tp267
I1
tp268
F-2.8525
s((I1
I4
I4
I1
I4
I4
I4
I4
I4
I0
I4
tp269
I1
tp270
F-1.95
s((I0
I4
I1
I1
I1
I4
I4
I1
I1
I0
I3
tp271
I2
tp272
F-1.0
s((I0
I1
I4
I4
I4
I4
I4
I4
I4
I2
I-7
tp273
I3
tp274
F19.0
s((I1
I1
I1
I4
I1
I4
I1
I0
I4
I-2
I13
tp275
I2
tp276
F-1.0
s((I1
I4
I4
I4
I0
I4
I4
I1
I4
I-2
I5
tp277
I0
tp278
F-1.0
s((I0
I4
I4
I4
I1
I4
I4
I4
I4
I1
I-4
tp279
I1
tp280
F-1.0
s((I1
I4
I4
I1
I4
I4
I4
I4
I1
I2
I11
tp281
I2
tp282
F-1.0
s((I1
I1
I4
I4
I1
I1
I1
I1
I4
I-9
I4
tp283
I2
tp284
F-1.0
s((I1
I1
I1
I4
I4
I1
I1
I4
I0
I-9
I7
tp285
I1
tp286
F-1.0
s((I1
I4
I1
I4
I4
I4
I4
I4
I1
I-7
I6
tp287
I1
tp288
F-1.0
s((I0
I4
I0
I4
I4
I4
I4
I4
I4
I4
I-7
tp289
I0
tp290
F-1.0
s((I1
I1
I0
I1
I4
I0
I2
I4
I0
I-1
I-2
tp291
I0
tp292
F-2.8525
s((I1
I1
I1
I1
I1
I1
I4
I4
I4
I1
I-2
tp293
I0
tp294
F-6.033254078124999
s((I1
I4
I1
I4
I1
I4
I4
I4
I1
I3
I0
tp295
I3
tp296
F-1.95
s((I1
I4
I1
I1
I4
I4
I4
I4
I1
I11
I3
tp297
I3
tp298
F-1.0
s((I1
I4
I4
I4
I1
I1
I4
I4
I4
I2
I9
tp299
I0
tp300
F-1.0
s((I1
I3
I4
I1
I0
I2
I1
I3
I4
I1
I-2
tp301
I2
tp302
F-1.0
s((I0
I2
I4
I4
I4
I1
I3
I4
I4
I0
I-2
tp303
I1
tp304
F-1.0
s((I1
I2
I4
I4
I1
I1
I1
I4
I4
I12
I0
tp305
I3
tp306
F-1.0
s((I1
I4
I1
I4
I1
I4
I1
I4
I4
I-4
I-3
tp307
I3
tp308
F-1.0
s((I1
I1
I1
I1
I1
I4
I4
I4
I1
I0
I-1
tp309
I1
tp310
F-1.95
s((I1
I1
I1
I4
I0
I1
I4
I4
I1
I3
I8
tp311
I0
tp312
F-3.709875
s((I1
I4
I4
I4
I1
I1
I4
I4
I4
I14
I0
tp313
I2
tp314
F-1.0
s((I0
I1
I4
I4
I1
I0
I1
I4
I4
I2
I3
tp315
I3
tp316
F-1.0
s((I1
I1
I1
I1
I1
I1
I1
I4
I1
I6
I5
tp317
I3
tp318
F-2.8525
s((I1
I4
I1
I4
I4
I4
I1
I4
I4
I-8
I16
tp319
I2
tp320
F-1.0
s((I1
I4
I4
I1
I1
I4
I4
I1
I1
I-2
I4
tp321
I1
tp322
F-1.0
s((I1
I1
I4
I4
I1
I2
I4
I4
I4
I13
I0
tp323
I3
tp324
F-1.0
s((I0
I4
I4
I1
I4
I4
I4
I4
I4
I-3
I5
tp325
I3
tp326
F-1.0
s((I1
I1
I1
I1
I1
I0
I1
I4
I1
I-2
I1
tp327
I2
tp328
F-1.0
s((I1
I4
I4
I1
I4
I4
I4
I4
I1
I-8
I6
tp329
I0
tp330
F-1.0
s((I1
I4
I4
I0
I4
I4
I4
I4
I4
I0
I6
tp331
I3
tp332
F-1.0
s((I1
I2
I1
I1
I1
I4
I1
I4
I4
I4
I0
tp333
I0
tp334
F-9.733158334409895
s((I0
I1
I0
I0
I1
I1
I1
I4
I0
I-1
I-1
tp335
I3
tp336
F-1.0
s((I2
I1
I1
I1
I4
I4
I1
I1
I1
I4
I1
tp337
I1
tp338
F-1.0
s((I1
I1
I1
I1
I4
I4
I1
I4
I1
I-3
I3
tp339
I1
tp340
F-1.0
s((I1
I1
I1
I1
I1
I2
I0
I1
I4
I-9
I5
tp341
I2
tp342
F-3.709875
s((I1
I1
I4
I1
I1
I1
I1
I1
I4
I14
I2
tp343
I1
tp344
F-2.8525
s((I1
I1
I1
I1
I4
I1
I1
I4
I0
I-2
I0
tp345
I1
tp346
F-1.0
s((I1
I4
I1
I4
I4
I4
I4
I4
I1
I-4
I14
tp347
I1
tp348
F-1.0
s((I1
I4
I4
I1
I1
I4
I4
I1
I4
I1
I0
tp349
I2
tp350
F-2.8525
s((I1
I1
I0
I1
I4
I0
I1
I0
I1
I13
I-2
tp351
I2
tp352
F-1.0
s((I1
I1
I4
I4
I4
I1
I4
I4
I4
I1
I-2
tp353
I1
tp354
F-1.0
s((I1
I4
I3
I1
I1
I4
I4
I3
I3
I0
I3
tp355
I1
tp356
F-1.0
s((I1
I0
I4
I4
I4
I4
I1
I4
I4
I1
I3
tp357
I3
tp358
F-1.0
s((I0
I4
I4
I1
I4
I4
I4
I4
I1
I-3
I2
tp359
I3
tp360
F-1.0
s((I1
I0
I1
I1
I1
I1
I0
I1
I1
I-2
I3
tp361
I2
tp362
F-4.524381249999999
s((I1
I4
I1
I1
I4
I4
I4
I4
I4
I-3
I3
tp363
I2
tp364
F-1.0
s((I1
I4
I1
I4
I4
I4
I4
I4
I1
I-4
I5
tp365
I1
tp366
F-1.0
s((I1
I1
I4
I1
I1
I1
I4
I4
I4
I1
I-2
tp367
I1
tp368
F-1.0
s((I1
I4
I3
I0
I1
I4
I4
I4
I3
I0
I0
tp369
I2
tp370
F-1.0
s((I3
I1
I1
I4
I1
I4
I1
I4
I4
I1
I-3
tp371
I0
tp372
F-1.0
s((I2
I1
I4
I2
I1
I4
I4
I1
I1
I-1
I6
tp373
I2
tp374
F-1.0
s((I1
I1
I1
I1
I1
I2
I4
I4
I1
I13
I0
tp375
I1
tp376
F-2.8525
s((I1
I1
I4
I4
I2
I1
I0
I1
I4
I0
I0
tp377
I3
tp378
F-1.0
s((I1
I1
I1
I1
I1
I4
I0
I1
I3
I-3
I10
tp379
I0
tp380
F-6.033254078124999
s((I2
I1
I3
I0
I1
I1
I3
I1
I1
I0
I-1
tp381
I3
tp382
F-1.0
s((I1
I1
I4
I1
I1
I1
I0
I1
I4
I4
I3
tp383
I1
tp384
F-1.0
s((I1
I1
I4
I1
I3
I1
I4
I1
I4
I9
I6
tp385
I2
tp386
F-2.8525
s((I2
I1
I1
I1
I1
I4
I0
I2
I1
I2
I6
tp387
I3
tp388
F-1.0
s((I1
I4
I1
I4
I4
I4
I4
I4
I4
I-2
I-6
tp389
I3
tp390
F-1.0
s((I1
I4
I4
I1
I0
I4
I4
I1
I4
I-2
I2
tp391
I3
tp392
F-1.0
s((I1
I1
I1
I4
I4
I1
I1
I4
I4
I13
I-1
tp393
I0
tp394
F-1.0
s((I0
I4
I0
I1
I1
I4
I4
I1
I1
I-2
I4
tp395
I2
tp396
F-11.0
s((I1
I1
I4
I4
I4
I4
I4
I4
I1
I-5
I11
tp397
I1
tp398
F-1.0
s((I1
I1
I1
I4
I1
I1
I4
I4
I1
I-2
I-3
tp399
I1
tp400
F-1.0
s((I3
I3
I4
I1
I4
I4
I1
I1
I1
I2
I1
tp401
I3
tp402
F-1.0
s((I3
I4
I4
I1
I4
I4
I4
I4
I4
I-2
I9
tp403
I1
tp404
F-1.0
s((I1
I4
I4
I4
I1
I4
I4
I1
I4
I5
I3
tp405
I0
tp406
F-1.0
s((I1
I0
I1
I4
I4
I1
I1
I4
I4
I-10
I5
tp407
I3
tp408
F-2.8525
s((I1
I1
I0
I1
I1
I1
I1
I1
I1
I7
I6
tp409
I3
tp410
F-1.0
s((I1
I0
I1
I1
I1
I4
I1
I1
I4
I14
I3
tp411
I2
tp412
F-2.8525
s((I1
I4
I4
I1
I1
I1
I4
I0
I0
I3
I10
tp413
I1
tp414
F-3.709875
s((I0
I4
I4
I0
I1
I4
I4
I3
I4
I1
I5
tp415
I3
tp416
F19.0
s((I1
I3
I1
I1
I1
I3
I1
I4
I2
I3
I2
tp417
I2
tp418
F-3.709875
s((I0
I4
I1
I4
I1
I1
I1
I4
I1
I-4
I0
tp419
I2
tp420
F-1.0
s((I1
I4
I1
I1
I4
I4
I4
I4
I1
I-4
I5
tp421
I1
tp422
F-1.0
s((I0
I4
I0
I1
I4
I4
I4
I1
I1
I7
I8
tp423
I0
tp424
F-1.0
s((I1
I4
I4
I4
I1
I4
I4
I4
I4
I3
I0
tp425
I3
tp426
F-1.0
s((I1
I1
I4
I4
I4
I4
I4
I4
I4
I-3
I-3
tp427
I1
tp428
F-1.0
s((I1
I4
I4
I1
I4
I4
I4
I3
I1
I3
I3
tp429
I0
tp430
F-1.0
s((I0
I2
I4
I4
I1
I1
I4
I4
I4
I-1
I5
tp431
I0
tp432
F19.0
s((I1
I0
I1
I0
I1
I1
I1
I1
I4
I0
I2
tp433
I2
tp434
F-2.8525
s((I0
I1
I1
I0
I0
I1
I4
I0
I1
I0
I-1
tp435
I0
tp436
F19.0
s((I1
I4
I1
I1
I4
I4
I4
I4
I4
I0
I-6
tp437
I1
tp438
F-1.0
s((I0
I4
I4
I4
I1
I4
I4
I4
I4
I1
I2
tp439
I1
tp440
F-1.0
s((I0
I4
I4
I1
I4
I1
I4
I1
I4
I-1
I2
tp441
I3
tp442
F-1.0
s((I0
I1
I4
I1
I1
I1
I1
I1
I4
I0
I1
tp443
I3
tp444
F19.0
s((I1
I0
I4
I4
I4
I0
I4
I1
I4
I3
I3
tp445
I3
tp446
F-1.0
s((I1
I4
I1
I4
I4
I4
I4
I4
I4
I-10
I8
tp447
I3
tp448
F-1.0
s((I1
I1
I2
I1
I4
I1
I1
I1
I1
I-2
I0
tp449
I1
tp450
F-1.0
s((I1
I4
I4
I4
I1
I4
I4
I1
I4
I14
I3
tp451
I2
tp452
F-1.0
s((I2
I1
I1
I1
I1
I4
I4
I1
I1
I-6
I4
tp453
I3
tp454
F-1.0
s((I1
I1
I1
I1
I0
I4
I1
I1
I1
I-3
I0
tp455
I3
tp456
F-1.0
s((I1
I1
I1
I1
I1
I1
I4
I0
I2
I-1
I0
tp457
I1
tp458
F-2.8525
s((I1
I4
I4
I4
I1
I4
I4
I1
I4
I-1
I2
tp459
I2
tp460
F-1.0
s((I0
I4
I4
I4
I1
I4
I4
I1
I4
I-2
I11
tp461
I1
tp462
F-1.0
s((I3
I2
I0
I4
I2
I2
I4
I4
I1
I5
I6
tp463
I3
tp464
F-3.709875
s((I1
I1
I4
I4
I1
I0
I4
I4
I4
I2
I2
tp465
I0
tp466
F-1.95
s((I1
I1
I1
I4
I4
I1
I1
I4
I4
I0
I-2
tp467
I3
tp468
F-1.0
s((I1
I4
I0
I0
I0
I4
I4
I1
I4
I0
I2
tp469
I1
tp470
F-1.0
s((I1
I4
I4
I1
I1
I4
I4
I1
I1
I0
I0
tp471
I3
tp472
F-1.0
s((I1
I1
I1
I1
I4
I1
I1
I1
I4
I0
I5
tp473
I1
tp474
F-1.0
s((I1
I1
I1
I4
I1
I1
I1
I1
I1
I-1
I2
tp475
I0
tp476
F-1.0
s((I1
I1
I4
I4
I4
I1
I1
I4
I4
I-2
I0
tp477
I3
tp478
F-1.0
s((I1
I1
I1
I4
I4
I4
I2
I4
I4
I-2
I-1
tp479
I1
tp480
F-1.0
s((I1
I4
I4
I0
I4
I4
I0
I4
I4
I-1
I-3
tp481
I1
tp482
F-1.0
s((I1
I4
I4
I4
I1
I0
I4
I1
I4
I4
I6
tp483
I0
tp484
F-1.0
s((I1
I1
I1
I1
I1
I1
I1
I1
I1
I0
I-1
tp485
I1
tp486
F-2.8525
s((I3
I3
I1
I1
I4
I4
I1
I1
I1
I2
I1
tp487
I3
tp488
F-2.8525
s((I1
I4
I3
I0
I3
I1
I4
I1
I4
I0
I2
tp489
I0
tp490
F-1.0
s((I1
I4
I1
I4
I4
I4
I4
I4
I4
I0
I-6
tp491
I2
tp492
F-1.0
s((I1
I1
I0
I4
I4
I4
I1
I4
I0
I-2
I-1
tp493
I3
tp494
F-1.0
s((I1
I1
I1
I4
I0
I0
I0
I4
I4
I1
I-2
tp495
I3
tp496
F-1.0
s((I1
I4
I4
I1
I1
I4
I4
I0
I0
I3
I10
tp497
I1
tp498
F-1.0
s((I1
I4
I4
I4
I1
I0
I4
I0
I4
I1
I2
tp499
I0
tp500
F-1.0
s((I1
I1
I4
I4
I1
I3
I1
I4
I4
I3
I0
tp501
I0
tp502
F-2.8525
s((I0
I4
I1
I1
I1
I4
I4
I3
I1
I4
I4
tp503
I3
tp504
F-1.0
s((I1
I4
I4
I1
I1
I4
I4
I2
I4
I11
I1
tp505
I3
tp506
F-1.0
s((I1
I4
I1
I1
I4
I4
I1
I4
I1
I-4
I10
tp507
I3
tp508
F-1.0
s((I1
I4
I1
I1
I4
I4
I4
I4
I1
I-3
I5
tp509
I1
tp510
F-1.0
s((I1
I4
I4
I4
I1
I4
I4
I4
I4
I8
I5
tp511
I0
tp512
F-1.0
s((I1
I4
I4
I1
I4
I4
I4
I4
I1
I-3
I2
tp513
I0
tp514
F-1.95
s((I0
I2
I1
I3
I1
I1
I3
I1
I1
I0
I-2
tp515
I0
tp516
F-1.0
s((I1
I4
I4
I4
I1
I4
I4
I4
I4
I-1
I-3
tp517
I2
tp518
F-1.0
s((I1
I4
I4
I1
I4
I4
I4
I1
I1
I-2
I6
tp519
I0
tp520
F-1.0
s((I1
I4
I1
I1
I1
I1
I4
I1
I1
I-2
I3
tp521
I2
tp522
F-3.709875
s((I0
I0
I4
I1
I0
I1
I4
I1
I4
I7
I-7
tp523
I0
tp524
F-1.0
s((I1
I4
I4
I1
I1
I1
I4
I1
I4
I1
I-1
tp525
I2
tp526
F-1.95
s((I1
I4
I1
I1
I1
I4
I4
I1
I1
I0
I0
tp527
I3
tp528
F-2.8525
s((I1
I4
I4
I1
I4
I4
I4
I4
I4
I2
I6
tp529
I1
tp530
F-1.0
s((I0
I4
I4
I1
I1
I4
I4
I1
I3
I0
I4
tp531
I2
tp532
F-1.0
s((I0
I4
I4
I4
I1
I1
I4
I4
I4
I5
I-1
tp533
I0
tp534
F19.0
s((I1
I2
I1
I4
I4
I1
I1
I4
I4
I-6
I3
tp535
I2
tp536
F-1.0
s((I1
I1
I4
I1
I1
I4
I4
I1
I0
I-2
I3
tp537
I2
tp538
F-4.524381249999999
s((I1
I0
I4
I4
I4
I4
I4
I4
I4
I6
I1
tp539
I3
tp540
F-1.0
s((I1
I1
I1
I4
I4
I4
I1
I4
I4
I6
I-4
tp541
I3
tp542
F-1.0
s((I1
I4
I4
I1
I4
I4
I4
I4
I4
I0
I1
tp543
I0
tp544
F-3.709875
s((I1
I1
I4
I4
I1
I4
I4
I4
I4
I3
I0
tp545
I2
tp546
F-1.0
s((I0
I1
I1
I1
I1
I1
I1
I4
I1
I-10
I6
tp547
I2
tp548
F16.290125
s((I0
I0
I4
I4
I1
I1
I4
I4
I4
I0
I-3
tp549
I1
tp550
F-1.0
s((I3
I1
I1
I1
I0
I1
I0
I1
I1
I3
I3
tp551
I1
tp552
F-4.524381249999999
s((I1
I4
I4
I1
I4
I4
I4
I1
I4
I3
I1
tp553
I2
tp554
F-1.0
s((I1
I4
I4
I2
I4
I4
I4
I4
I1
I1
I7
tp555
I3
tp556
F-1.0
s((I1
I4
I1
I1
I0
I4
I1
I0
I4
I2
I5
tp557
I1
tp558
F-1.0
s((I3
I1
I1
I4
I4
I1
I1
I4
I1
I-2
I-1
tp559
I3
tp560
F-1.0
s((I1
I1
I3
I1
I1
I1
I1
I1
I4
I-1
I-1
tp561
I1
tp562
F-2.8525
s((I1
I4
I0
I4
I4
I4
I4
I4
I4
I9
I-2
tp563
I0
tp564
F-1.0
s((I1
I4
I1
I4
I4
I4
I4
I4
I0
I-2
I0
tp565
I0
tp566
F-1.0
s((I1
I1
I1
I1
I4
I1
I1
I2
I4
I13
I2
tp567
I2
tp568
F-7.395011805507812
s((I1
I1
I1
I1
I4
I4
I4
I4
I1
I0
I-1
tp569
I1
tp570
F-1.0
s((I1
I1
I4
I4
I1
I3
I1
I4
I4
I3
I0
tp571
I1
tp572
F-1.0
s((I1
I4
I1
I4
I4
I4
I4
I4
I4
I-5
I5
tp573
I1
tp574
F-1.0
s((I1
I4
I4
I4
I0
I4
I4
I1
I4
I13
I-3
tp575
I2
tp576
F-1.0
s((I1
I1
I2
I1
I4
I4
I1
I1
I1
I3
I1
tp577
I3
tp578
F-1.0
s((I1
I1
I4
I4
I4
I1
I4
I4
I4
I7
I-5
tp579
I1
tp580
F-1.0
s((I1
I1
I3
I2
I4
I1
I1
I1
I1
I-6
I5
tp581
I3
tp582
F-3.709875
s((I1
I4
I1
I4
I1
I1
I4
I4
I1
I-2
I-3
tp583
I0
tp584
F-1.0
s((I0
I4
I4
I0
I1
I4
I4
I1
I4
I5
I0
tp585
I3
tp586
F-1.0
s((I1
I4
I1
I4
I4
I4
I1
I4
I1
I-11
I4
tp587
I3
tp588
F-1.0
s((I1
I1
I4
I1
I1
I1
I4
I1
I4
I14
I1
tp589
I0
tp590
F-1.0
s((I0
I4
I1
I1
I1
I4
I4
I1
I1
I-2
I11
tp591
I2
tp592
F-11.0
s((I1
I4
I4
I4
I1
I1
I4
I4
I4
I1
I-5
tp593
I2
tp594
F-1.0
s((I1
I0
I4
I4
I1
I1
I1
I4
I4
I10
I-3
tp595
I1
tp596
F-1.0
s((I1
I0
I4
I0
I1
I1
I4
I1
I4
I0
I2
tp597
I0
tp598
F-1.95
s((I1
I3
I4
I4
I1
I1
I1
I1
I4
I8
I5
tp599
I1
tp600
F-6.033254078124999
s((I1
I1
I4
I4
I1
I1
I4
I4
I4
I2
I-6
tp601
I0
tp602
F-1.0
s((I1
I4
I1
I4
I4
I4
I4
I4
I1
I-1
I2
tp603
I3
tp604
F-2.8525
s((I1
I1
I0
I4
I4
I4
I1
I4
I4
I6
I-6
tp605
I2
tp606
F-1.0
s((I1
I4
I4
I0
I4
I4
I4
I4
I1
I-2
I2
tp607
I3
tp608
F-1.0
s((I0
I4
I4
I1
I1
I4
I4
I1
I4
I0
I3
tp609
I2
tp610
F-2.8525
s((I1
I1
I4
I4
I4
I4
I1
I4
I4
I-3
I-2
tp611
I2
tp612
F-1.0
s((I1
I1
I1
I4
I1
I4
I0
I4
I4
I0
I0
tp613
I0
tp614
F-4.524381249999999
s((I1
I4
I4
I4
I0
I4
I4
I1
I4
I0
I2
tp615
I3
tp616
F-1.0
s((I0
I4
I1
I4
I4
I4
I4
I4
I4
I-2
I1
tp617
I2
tp618
F-1.0
s((I1
I4
I1
I4
I1
I4
I4
I4
I1
I-2
I5
tp619
I0
tp620
F-1.0
s((I1
I4
I1
I1
I4
I4
I1
I1
I1
I-2
I14
tp621
I2
tp622
F-1.0
s((I1
I4
I4
I1
I1
I1
I4
I4
I4
I1
I-5
tp623
I3
tp624
F-1.0
s((I1
I4
I4
I1
I1
I4
I4
I4
I4
I4
I0
tp625
I1
tp626
F-1.0
s((I1
I1
I1
I1
I4
I4
I1
I4
I1
I-1
I-2
tp627
I0
tp628
F-1.0
s((I0
I1
I0
I4
I1
I2
I4
I1
I4
I0
I4
tp629
I1
tp630
F-11.0
s((I1
I1
I4
I1
I0
I1
I4
I1
I1
I-6
I15
tp631
I2
tp632
F-2.8525
s((I1
I1
I4
I1
I1
I1
I1
I1
I1
I-2
I-2
tp633
I2
tp634
F-1.0
s((I2
I1
I1
I1
I4
I4
I1
I1
I1
I4
I1
tp635
I2
tp636
F-9.192798246747259
s((I1
I4
I1
I1
I1
I4
I4
I4
I1
I4
I8
tp637
I1
tp638
F-1.0
s((I2
I0
I1
I1
I0
I1
I4
I1
I1
I-1
I4
tp639
I2
tp640
F-1.0
s((I1
I1
I4
I4
I4
I4
I4
I4
I4
I0
I-1
tp641
I0
tp642
F-2.8525
s((I1
I1
I4
I1
I4
I4
I4
I1
I4
I7
I-1
tp643
I0
tp644
F-1.0
s((I1
I4
I1
I4
I1
I1
I1
I4
I4
I-2
I1
tp645
I3
tp646
F-6.033254078124999
s((I0
I0
I4
I1
I1
I1
I2
I4
I0
I9
I-1
tp647
I2
tp648
F-11.0
s((I1
I1
I4
I4
I1
I0
I4
I1
I4
I5
I3
tp649
I3
tp650
F-1.0
s((I1
I0
I4
I4
I4
I4
I0
I4
I4
I11
I-2
tp651
I1
tp652
F-1.0
s((I1
I0
I1
I1
I4
I1
I1
I4
I1
I-10
I5
tp653
I0
tp654
F-1.0
s((I2
I2
I1
I1
I1
I1
I4
I1
I4
I-1
I5
tp655
I3
tp656
F-1.0
s((I1
I4
I1
I1
I4
I4
I4
I4
I1
I-1
I5
tp657
I1
tp658
F-1.0
s((I0
I1
I3
I1
I1
I0
I1
I4
I1
I2
I3
tp659
I0
tp660
F-12.8525
s((I2
I1
I4
I4
I1
I4
I4
I1
I4
I-1
I6
tp661
I2
tp662
F-1.0
s((I1
I3
I1
I1
I4
I0
I1
I4
I2
I3
I2
tp663
I2
tp664
F-1.0
s((I1
I1
I1
I4
I1
I1
I1
I4
I4
I-2
I1
tp665
I2
tp666
F-1.0
s((I1
I4
I4
I1
I1
I4
I4
I1
I0
I-3
I5
tp667
I1
tp668
F-1.0
s((I1
I1
I1
I1
I1
I4
I4
I1
I1
I-1
I14
tp669
I1
tp670
F-1.95
s((I2
I1
I1
I1
I1
I1
I1
I4
I1
I-10
I6
tp671
I2
tp672
F-4.524381249999999
s((I1
I1
I4
I4
I4
I4
I1
I4
I4
I6
I-6
tp673
I3
tp674
F-1.0
s((I1
I1
I0
I1
I1
I1
I4
I1
I1
I-2
I2
tp675
I0
tp676
F-3.709875
s((I0
I4
I4
I0
I4
I4
I4
I0
I4
I4
I8
tp677
I3
tp678
F19.0
s((I1
I1
I4
I4
I1
I0
I4
I4
I4
I2
I2
tp679
I1
tp680
F-2.8525
s((I1
I0
I1
I0
I4
I4
I1
I4
I4
I-3
I4
tp681
I3
tp682
F-3.709875
s((I1
I1
I4
I4
I4
I1
I4
I1
I4
I3
I-1
tp683
I0
tp684
F-1.0
s((I1
I0
I4
I4
I4
I3
I4
I4
I4
I6
I5
tp685
I0
tp686
F-1.0
s((I1
I1
I1
I4
I4
I4
I1
I4
I4
I0
I-2
tp687
I0
tp688
F-1.0
s((I0
I4
I1
I1
I4
I1
I1
I1
I0
I12
I-3
tp689
I2
tp690
F-11.0
s((I1
I4
I4
I1
I4
I4
I4
I1
I4
I0
I14
tp691
I1
tp692
F-1.0
s((I1
I1
I0
I1
I4
I1
I1
I4
I4
I0
I1
tp693
I1
tp694
F-1.0
s((I1
I0
I4
I4
I4
I4
I4
I4
I4
I2
I-5
tp695
I2
tp696
F-1.0
s((I1
I4
I4
I1
I4
I4
I4
I4
I1
I-5
I4
tp697
I1
tp698
F-1.0
s((I1
I4
I1
I4
I4
I4
I1
I4
I4
I-1
I0
tp699
I3
tp700
F-10.73417539680493
s((I1
I4
I1
I4
I4
I4
I4
I4
I1
I5
I-2
tp701
I3
tp702
F-1.0
s((I3
I1
I4
I4
I4
I1
I4
I4
I4
I0
I-1
tp703
I0
tp704
F-2.8525
s((I1
I4
I4
I0
I1
I1
I4
I1
I1
I-1
I3
tp705
I2
tp706
F-1.0
s((I1
I4
I0
I1
I4
I4
I4
I1
I1
I-3
I11
tp707
I2
tp708
F-5.298162187499999
s((I1
I1
I4
I1
I1
I4
I4
I4
I4
I0
I6
tp709
I3
tp710
F-1.0
s((I1
I1
I4
I1
I1
I4
I4
I1
I1
I-9
I9
tp711
I2
tp712
F-1.0
s((I1
I1
I4
I4
I4
I1
I4
I4
I4
I3
I-1
tp713
I1
tp714
F-1.0
s((I1
I1
I1
I1
I1
I4
I4
I1
I1
I-1
I2
tp715
I1
tp716
F-1.0
s((I1
I4
I4
I4
I3
I4
I4
I3
I4
I3
I2
tp717
I3
tp718
F-1.0
s((I1
I0
I1
I1
I3
I1
I1
I4
I4
I4
I3
tp719
I0
tp720
F-1.0
s((I3
I1
I1
I1
I1
I1
I4
I1
I4
I8
I6
tp721
I2
tp722
F-1.0
s((I1
I1
I1
I2
I4
I4
I1
I4
I1
I-4
I4
tp723
I0
tp724
F-3.709875
s((I0
I1
I0
I4
I4
I4
I4
I4
I4
I4
I-7
tp725
I2
tp726
F-1.0
s((I1
I4
I4
I0
I4
I4
I4
I4
I0
I7
I9
tp727
I3
tp728
F-1.0
s((I1
I1
I4
I1
I2
I4
I1
I1
I1
I13
I1
tp729
I3
tp730
F-1.0
s((I1
I1
I1
I4
I1
I4
I1
I4
I1
I-1
I1
tp731
I1
tp732
F-5.298162187499999
s((I2
I0
I1
I1
I3
I1
I4
I1
I1
I-1
I4
tp733
I3
tp734
F-1.0
s((I0
I4
I1
I4
I4
I4
I4
I4
I4
I-8
I6
tp735
I0
tp736
F-1.0
s((I1
I1
I4
I4
I0
I0
I4
I4
I4
I6
I-1
tp737
I2
tp738
F-1.0
s((I1
I1
I1
I4
I1
I0
I0
I4
I4
I-9
I5
tp739
I1
tp740
F-1.95
s((I1
I0
I1
I4
I1
I1
I1
I1
I1
I-8
I5
tp741
I0
tp742
F-1.0
s((I3
I2
I4
I4
I2
I2
I4
I4
I4
I5
I6
tp743
I1
tp744
F-2.8525
s((I1
I1
I4
I1
I1
I1
I4
I4
I4
I1
I-2
tp745
I3
tp746
F-1.0
s((I1
I1
I1
I4
I4
I1
I0
I4
I4
I9
I-3
tp747
I0
tp748
F-3.709875
s((I1
I4
I0
I4
I0
I1
I4
I4
I1
I1
I-1
tp749
I2
tp750
F-1.0
s((I3
I1
I1
I1
I1
I1
I4
I2
I1
I-5
I5
tp751
I0
tp752
F-2.8525
s((I1
I4
I4
I1
I1
I4
I4
I1
I4
I-7
I8
tp753
I3
tp754
F-1.0
s((I1
I1
I2
I0
I0
I1
I1
I0
I4
I5
I8
tp755
I2
tp756
F-1.0
s((I1
I1
I1
I1
I4
I4
I4
I0
I2
I5
I9
tp757
I3
tp758
F-2.8525
s((I2
I1
I1
I1
I1
I4
I4
I4
I1
I-6
I4
tp759
I0
tp760
F-1.0
s((I1
I4
I4
I1
I4
I4
I4
I4
I4
I-8
I8
tp761
I1
tp762
F-1.0
s((I3
I3
I4
I4
I1
I1
I4
I0
I4
I1
I2
tp763
I2
tp764
F-1.0
s((I1
I1
I1
I1
I1
I1
I3
I1
I1
I7
I5
tp765
I0
tp766
F-1.95
s((I0
I4
I4
I4
I1
I4
I4
I1
I4
I3
I7
tp767
I3
tp768
F19.0
s((I1
I4
I4
I4
I4
I4
I4
I4
I4
I0
I0
tp769
I1
tp770
F-1.95
s((I1
I4
I1
I4
I1
I4
I4
I1
I0
I6
I9
tp771
I1
tp772
F-1.0
s((I1
I4
I3
I1
I1
I4
I4
I1
I1
I0
I3
tp773
I0
tp774
F-1.0
s((I1
I1
I2
I4
I4
I4
I1
I4
I1
I-11
I6
tp775
I3
tp776
F-4.524381249999999
s((I1
I4
I4
I4
I4
I4
I4
I4
I4
I0
I0
tp777
I2
tp778
F-1.0
s((I1
I4
I1
I4
I4
I4
I4
I4
I1
I-3
I7
tp779
I1
tp780
F-1.0
s((I1
I1
I4
I1
I4
I1
I1
I4
I4
I0
I1
tp781
I3
tp782
F-1.0
s((I1
I4
I4
I4
I0
I1
I4
I1
I4
I7
I-2
tp783
I1
tp784
F-4.524381249999999
s((I1
I1
I0
I1
I0
I1
I1
I1
I1
I-9
I6
tp785
I1
tp786
F-1.0
s((I1
I4
I1
I4
I4
I4
I1
I4
I1
I-4
I3
tp787
I1
tp788
F-1.0
s((I0
I1
I4
I1
I1
I1
I4
I2
I4
I-5
I5
tp789
I1
tp790
F-2.8525
s((I1
I4
I1
I0
I0
I4
I4
I1
I3
I2
I4
tp791
I3
tp792
F-1.95
s((I1
I4
I0
I2
I4
I4
I4
I1
I1
I1
I6
tp793
I3
tp794
F-2.8525
s((I3
I1
I1
I1
I1
I1
I1
I1
I1
I8
I6
tp795
I2
tp796
F-6.731591374218749
s((I1
I1
I2
I1
I0
I4
I2
I1
I1
I-2
I5
tp797
I1
tp798
F-1.0
s((I1
I1
I4
I4
I1
I1
I4
I4
I4
I-1
I3
tp799
I1
tp800
F-4.524381249999999
s((I1
I0
I4
I0
I1
I1
I4
I1
I4
I1
I2
tp801
I3
tp802
F-1.0
s((I1
I4
I4
I1
I0
I4
I4
I1
I4
I-1
I2
tp803
I3
tp804
F-1.0
s((I1
I1
I1
I4
I4
I2
I4
I4
I4
I-5
I3
tp805
I1
tp806
F-1.0
s((I1
I4
I2
I1
I1
I0
I1
I2
I2
I-2
I6
tp807
I3
tp808
F-1.0
s((I1
I1
I1
I1
I1
I1
I0
I1
I0
I0
I2
tp809
I3
tp810
F-1.95
s((I0
I0
I1
I4
I4
I4
I1
I4
I4
I0
I-2
tp811
I3
tp812
F-1.0
s((I1
I4
I4
I1
I0
I4
I4
I1
I0
I2
I6
tp813
I1
tp814
F-1.0
s((I1
I4
I1
I4
I2
I4
I4
I1
I4
I-3
I3
tp815
I0
tp816
F-1.0
s((I0
I1
I1
I4
I0
I4
I0
I4
I4
I5
I3
tp817
I3
tp818
F-1.95
s((I1
I1
I1
I4
I1
I1
I4
I4
I4
I3
I5
tp819
I1
tp820
F-1.0
s((I1
I4
I4
I4
I1
I1
I4
I1
I4
I3
I6
tp821
I2
tp822
F-1.0
s((I1
I4
I4
I4
I1
I4
I4
I4
I4
I5
I8
tp823
I2
tp824
F-1.0
s((I1
I4
I1
I4
I4
I4
I4
I4
I4
I5
I9
tp825
I2
tp826
F-1.0
s((I1
I4
I1
I4
I4
I4
I4
I4
I1
I-7
I16
tp827
I0
tp828
F-1.0
s((I1
I1
I4
I3
I1
I4
I4
I1
I1
I-5
I6
tp829
I2
tp830
F-1.95
s((I1
I1
I1
I1
I1
I1
I1
I1
I4
I-1
I13
tp831
I0
tp832
F-1.95
s((I1
I1
I1
I1
I1
I1
I1
I2
I0
I-9
I7
tp833
I1
tp834
F-1.0
s((I1
I3
I1
I1
I4
I0
I1
I4
I2
I3
I2
tp835
I1
tp836
F-1.0
s((I1
I1
I1
I1
I1
I1
I1
I1
I1
I-2
I0
tp837
I3
tp838
F-2.8525
s((I1
I1
I1
I1
I4
I4
I1
I4
I1
I-1
I3
tp839
I0
tp840
F-1.95
s((I1
I4
I1
I1
I1
I1
I0
I1
I4
I7
I5
tp841
I1
tp842
F-1.0
s((I0
I4
I4
I1
I4
I4
I4
I1
I4
I14
I4
tp843
I3
tp844
F-1.0
s((I1
I4
I1
I1
I4
I4
I4
I4
I1
I-3
I3
tp845
I0
tp846
F-1.0
s((I1
I4
I2
I1
I1
I4
I4
I2
I4
I2
I7
tp847
I3
tp848
F-3.709875
s((I3
I1
I4
I1
I1
I1
I4
I2
I4
I-5
I5
tp849
I3
tp850
F-1.0
s((I1
I4
I1
I4
I4
I4
I1
I4
I1
I-1
I-1
tp851
I3
tp852
F-1.0
s((I3
I3
I1
I1
I2
I1
I0
I0
I4
I1
I-1
tp853
I3
tp854
F-2.8525
s((I1
I0
I4
I1
I2
I1
I4
I1
I4
I3
I6
tp855
I3
tp856
F-1.0
s((I1
I2
I4
I4
I4
I1
I1
I4
I4
I-1
I4
tp857
I0
tp858
F-2.8525
s((I1
I2
I1
I4
I1
I1
I1
I4
I1
I12
I0
tp859
I2
tp860
F-1.0
s((I1
I4
I4
I1
I1
I4
I4
I4
I4
I-2
I7
tp861
I1
tp862
F-1.95
s((I1
I1
I1
I4
I4
I4
I1
I4
I3
I-3
I4
tp863
I2
tp864
F-1.0
s((I1
I1
I1
I4
I4
I4
I1
I4
I1
I-3
I0
tp865
I2
tp866
F-1.0
s((I1
I4
I0
I4
I1
I1
I4
I1
I4
I0
I-4
tp867
I0
tp868
F-1.0
s((I1
I0
I4
I4
I4
I3
I4
I4
I4
I2
I-1
tp869
I1
tp870
F-1.0
s((I1
I4
I4
I4
I1
I1
I4
I4
I4
I-2
I-3
tp871
I3
tp872
F-1.0
s((I1
I1
I1
I4
I4
I4
I1
I4
I4
I-1
I-5
tp873
I0
tp874
F-1.0
s((I1
I4
I4
I1
I1
I4
I4
I1
I4
I0
I2
tp875
I2
tp876
F-1.0
s((I0
I1
I4
I4
I4
I4
I4
I4
I4
I0
I-1
tp877
I3
tp878
F-1.0
s((I1
I1
I1
I1
I4
I4
I2
I1
I1
I-3
I1
tp879
I2
tp880
F-2.8525
s((I1
I4
I1
I1
I1
I4
I0
I4
I4
I0
I2
tp881
I0
tp882
F-1.0
s((I1
I1
I3
I4
I4
I4
I1
I4
I1
I-3
I3
tp883
I0
tp884
F-1.0
s((I0
I4
I4
I1
I4
I4
I4
I4
I1
I0
I4
tp885
I0
tp886
F-1.0
s((I1
I4
I1
I0
I4
I4
I1
I4
I1
I-4
I0
tp887
I2
tp888
F-6.731591374218749
s((I1
I2
I1
I1
I4
I1
I1
I1
I1
I-10
I5
tp889
I3
tp890
F-3.709875
s((I0
I1
I1
I1
I4
I4
I1
I4
I1
I-1
I1
tp891
I0
tp892
F-1.0
s((I1
I1
I4
I1
I1
I1
I1
I1
I1
I0
I-4
tp893
I3
tp894
F-1.0
s((I1
I1
I4
I4
I4
I4
I1
I4
I1
I-8
I15
tp895
I3
tp896
F-1.0
s((I1
I1
I4
I4
I1
I0
I4
I4
I4
I7
I-3
tp897
I2
tp898
F-1.0
s((I1
I4
I4
I1
I4
I4
I4
I4
I4
I4
I3
tp899
I3
tp900
F-1.0
s((I1
I4
I1
I4
I1
I1
I4
I4
I4
I-5
I14
tp901
I2
tp902
F-1.0
s((I1
I4
I2
I1
I4
I1
I1
I1
I1
I-7
I4
tp903
I2
tp904
F-3.709875
s((I1
I1
I4
I1
I4
I4
I4
I4
I1
I5
I10
tp905
I3
tp906
F-1.0
s((I1
I1
I1
I1
I1
I4
I1
I4
I1
I-3
I0
tp907
I3
tp908
F-3.709875
s((I1
I1
I4
I1
I1
I1
I4
I1
I1
I1
I-4
tp909
I0
tp910
F-1.0
s((I1
I1
I4
I4
I1
I1
I4
I4
I4
I4
I-1
tp911
I3
tp912
F-1.0
s((I1
I4
I4
I1
I4
I4
I4
I1
I4
I-2
I8
tp913
I0
tp914
F-1.0
s((I1
I4
I1
I4
I4
I4
I4
I4
I0
I7
I7
tp915
I1
tp916
F-1.0
s((I1
I4
I4
I4
I1
I1
I4
I4
I4
I5
I6
tp917
I2
tp918
F-1.0
s((I1
I4
I4
I4
I2
I4
I4
I1
I4
I5
I1
tp919
I2
tp920
F-1.0
s((I1
I1
I4
I4
I4
I1
I1
I4
I4
I6
I4
tp921
I3
tp922
F-1.0
s((I1
I4
I4
I0
I4
I4
I4
I4
I4
I0
I9
tp923
I3
tp924
F-1.0
s((I0
I4
I1
I1
I4
I4
I4
I1
I4
I8
I6
tp925
I0
tp926
F-11.0
s((I1
I1
I1
I2
I1
I3
I1
I1
I1
I4
I2
tp927
I0
tp928
F-1.95
s((I1
I4
I1
I1
I1
I4
I4
I1
I1
I-2
I3
tp929
I1
tp930
F-1.0
s((I1
I4
I4
I1
I4
I4
I4
I4
I4
I5
I11
tp931
I2
tp932
F-1.0
s((I1
I1
I4
I1
I1
I1
I1
I1
I1
I-9
I4
tp933
I0
tp934
F-3.709875
s((I3
I2
I4
I4
I2
I2
I4
I4
I4
I5
I6
tp935
I3
tp936
F-1.0
s((I1
I0
I4
I4
I4
I4
I1
I4
I4
I-2
I0
tp937
I0
tp938
F-1.0
s((I1
I4
I1
I4
I1
I4
I1
I4
I1
I-2
I5
tp939
I2
tp940
F-1.0
s((I1
I1
I1
I4
I1
I0
I2
I0
I4
I-2
I4
tp941
I1
tp942
F-2.8525
s((I1
I1
I4
I1
I1
I4
I4
I1
I0
I-2
I3
tp943
I0
tp944
F-2.8525
s((I1
I4
I4
I4
I1
I4
I4
I4
I4
I0
I13
tp945
I0
tp946
F-1.0
s((I1
I4
I0
I4
I4
I4
I4
I4
I1
I3
I4
tp947
I1
tp948
F-1.0
s((I2
I1
I1
I2
I2
I4
I1
I2
I2
I4
I8
tp949
I2
tp950
F-4.524381249999999
s((I1
I1
I1
I1
I1
I1
I1
I4
I1
I5
I6
tp951
I3
tp952
F-1.0
s((I1
I0
I0
I1
I1
I1
I4
I4
I1
I9
I-2
tp953
I3
tp954
F-2.8525
s((I0
I4
I1
I4
I4
I4
I4
I4
I1
I-2
I5
tp955
I3
tp956
F-1.0
s((I1
I4
I1
I1
I1
I4
I0
I4
I1
I13
I3
tp957
I2
tp958
F-2.8525
s((I1
I4
I4
I4
I1
I1
I4
I4
I4
I11
I-4
tp959
I3
tp960
F-1.0
s((I1
I4
I4
I1
I4
I4
I4
I4
I1
I-1
I1
tp961
I1
tp962
F-3.709875
s((I1
I1
I4
I1
I1
I1
I1
I3
I4
I-1
I12
tp963
I0
tp964
F-1.0
s((I1
I1
I1
I1
I1
I1
I0
I4
I4
I0
I2
tp965
I2
tp966
F-1.0
s((I2
I2
I4
I4
I1
I1
I4
I4
I4
I-1
I5
tp967
I3
tp968
F-1.0
s((I1
I0
I4
I4
I1
I4
I4
I1
I4
I1
I2
tp969
I1
tp970
F-1.0
s((I1
I1
I4
I4
I1
I4
I0
I4
I4
I0
I0
tp971
I0
tp972
F-1.0
s((I1
I1
I4
I4
I4
I1
I1
I4
I4
I-5
I13
tp973
I2
tp974
F-1.0
s((I2
I4
I1
I0
I1
I4
I4
I3
I1
I1
I5
tp975
I3
tp976
F-1.0
s((I1
I1
I0
I4
I4
I0
I2
I4
I4
I-1
I-2
tp977
I2
tp978
F-1.0
s((I1
I4
I4
I0
I4
I4
I4
I1
I4
I1
I3
tp979
I1
tp980
F-1.0
s((I1
I4
I4
I4
I0
I1
I4
I4
I4
I3
I-7
tp981
I1
tp982
F-1.0
s((I1
I1
I1
I1
I1
I1
I2
I1
I3
I-1
I0
tp983
I2
tp984
F-2.8525
s((I2
I1
I4
I0
I1
I4
I4
I1
I4
I-1
I6
tp985
I2
tp986
F-1.0
s((I1
I0
I4
I4
I4
I1
I1
I4
I1
I-8
I5
tp987
I1
tp988
F-1.0
s((I1
I3
I4
I1
I0
I2
I1
I3
I4
I1
I-2
tp989
I1
tp990
F-1.0
s((I1
I4
I4
I4
I1
I4
I4
I4
I4
I-1
I13
tp991
I3
tp992
F-1.0
s((I2
I1
I3
I4
I4
I1
I3
I4
I4
I0
I-1
tp993
I3
tp994
F-2.8525
s((I1
I4
I2
I0
I0
I4
I1
I0
I4
I5
I8
tp995
I0
tp996
F-1.0
s((I1
I4
I4
I1
I4
I4
I4
I1
I4
I4
I10
tp997
I3
tp998
F-1.0
s((I3
I1
I1
I1
I1
I1
I4
I1
I1
I8
I6
tp999
I3
tp1000
F-9.733158334409895
s((I1
I4
I4
I1
I1
I4
I4
I4
I4
I-5
I8
tp1001
I2
tp1002
F-1.0
s((I1
I1
I0
I1
I4
I3
I2
I4
I0
I-1
I-2
tp1003
I1
tp1004
F-1.0
s((I1
I1
I4
I4
I4
I4
I1
I4
I4
I-6
I10
tp1005
I0
tp1006
F-1.0
s((I1
I1
I1
I4
I2
I4
I4
I1
I4
I-3
I3
tp1007
I1
tp1008
F-1.0
s((I1
I4
I4
I0
I4
I4
I4
I1
I4
I6
I9
tp1009
I2
tp1010
F-1.0
s((I1
I1
I4
I4
I1
I3
I1
I4
I4
I3
I0
tp1011
I2
tp1012
F-1.0
s((I1
I1
I0
I0
I1
I0
I4
I1
I4
I2
I5
tp1013
I0
tp1014
F-1.0
s((I1
I1
I4
I4
I1
I1
I1
I4
I4
I7
I4
tp1015
I3
tp1016
F-1.0
s((I1
I2
I1
I1
I4
I1
I1
I4
I4
I-6
I3
tp1017
I0
tp1018
F-1.0
s((I1
I4
I4
I4
I1
I1
I1
I4
I4
I-8
I3
tp1019
I2
tp1020
F-1.0
s((I1
I0
I1
I1
I1
I4
I1
I1
I1
I-2
I1
tp1021
I0
tp1022
F-1.0
s((I1
I4
I1
I1
I4
I4
I0
I4
I1
I13
I3
tp1023
I1
tp1024
F-1.0
s((I1
I4
I4
I4
I1
I4
I4
I2
I4
I2
I0
tp1025
I3
tp1026
F-1.95
s((I1
I2
I1
I1
I1
I1
I1
I1
I1
I-2
I1
tp1027
I1
tp1028
F-3.709875
s((I0
I1
I4
I0
I1
I1
I4
I0
I4
I7
I-6
tp1029
I1
tp1030
F-1.0
s((I0
I4
I4
I4
I3
I1
I4
I4
I4
I1
I4
tp1031
I0
tp1032
F-1.0
s((I1
I4
I4
I1
I3
I4
I4
I1
I4
I-1
I3
tp1033
I1
tp1034
F-1.0
s((I1
I4
I4
I1
I4
I4
I4
I4
I1
I-3
I5
tp1035
I2
tp1036
F-1.0
s((I1
I4
I4
I3
I1
I4
I4
I1
I1
I8
I7
tp1037
I0
tp1038
F-1.0
s((I1
I1
I2
I1
I0
I1
I1
I4
I0
I-1
I-1
tp1039
I1
tp1040
F-1.0
s((I1
I1
I4
I4
I1
I4
I4
I1
I4
I3
I5
tp1041
I1
tp1042
F-1.0
s((I1
I1
I1
I1
I4
I4
I1
I4
I4
I-10
I4
tp1043
I0
tp1044
F-1.0
s((I1
I4
I1
I4
I4
I4
I1
I4
I4
I-11
I7
tp1045
I2
tp1046
F-1.0
s((I1
I1
I1
I4
I4
I4
I4
I4
I4
I-3
I1
tp1047
I3
tp1048
F-1.0
s((I1
I4
I4
I4
I0
I4
I4
I0
I4
I5
I8
tp1049
I2
tp1050
F-1.0
s((I1
I1
I4
I1
I1
I3
I4
I1
I4
I9
I5
tp1051
I1
tp1052
F-4.524381249999999
s((I1
I1
I1
I1
I3
I3
I1
I1
I4
I3
I1
tp1053
I2
tp1054
F-1.0
s((I1
I1
I2
I1
I1
I1
I1
I1
I1
I-2
I0
tp1055
I3
tp1056
F-1.0
s((I1
I1
I4
I4
I4
I1
I4
I4
I4
I-3
I1
tp1057
I3
tp1058
F-1.0
s((I1
I0
I1
I1
I3
I1
I1
I1
I1
I4
I3
tp1059
I2
tp1060
F-1.0
s((I1
I4
I4
I2
I4
I4
I4
I4
I1
I4
I2
tp1061
I0
tp1062
F-1.0
s((I0
I1
I4
I4
I1
I1
I4
I0
I4
I6
I4
tp1063
I2
tp1064
F-11.0
s((I1
I4
I4
I4
I1
I4
I4
I4
I4
I12
I-4
tp1065
I0
tp1066
F-1.0
s((I1
I1
I3
I0
I3
I1
I3
I1
I1
I0
I2
tp1067
I3
tp1068
F-2.8525
s((I3
I3
I4
I1
I1
I1
I4
I0
I4
I1
I2
tp1069
I1
tp1070
F-2.8525
s((I1
I0
I1
I4
I1
I4
I1
I1
I4
I1
I2
tp1071
I3
tp1072
F-1.95
s((I0
I1
I1
I4
I1
I0
I1
I4
I4
I13
I-4
tp1073
I3
tp1074
F-2.8525
s((I1
I1
I1
I4
I2
I1
I0
I1
I4
I0
I0
tp1075
I1
tp1076
F-6.731591374218749
s((I1
I4
I4
I1
I4
I4
I4
I4
I1
I-1
I5
tp1077
I3
tp1078
F-1.0
s((I0
I4
I4
I4
I3
I2
I4
I4
I4
I6
I6
tp1079
I2
tp1080
F-1.0
s((I1
I0
I4
I4
I4
I4
I4
I4
I4
I6
I-8
tp1081
I3
tp1082
F-1.0
s((I1
I4
I4
I4
I1
I4
I4
I1
I4
I0
I4
tp1083
I0
tp1084
F-1.0
s((I1
I4
I4
I0
I4
I4
I4
I4
I4
I-3
I13
tp1085
I3
tp1086
F-1.0
s((I0
I4
I4
I1
I3
I2
I4
I4
I4
I6
I6
tp1087
I1
tp1088
F-2.8525
s((I0
I1
I0
I1
I4
I1
I0
I1
I1
I7
I8
tp1089
I0
tp1090
F-1.0
s((I1
I1
I4
I4
I0
I1
I4
I4
I4
I2
I-3
tp1091
I1
tp1092
F-1.0
s((I0
I4
I4
I0
I1
I4
I4
I0
I4
I8
I9
tp1093
I1
tp1094
F-11.0
s((I1
I4
I1
I4
I4
I4
I4
I4
I4
I2
I4
tp1095
I1
tp1096
F-1.0
s((I3
I1
I1
I1
I4
I1
I1
I4
I1
I-2
I-1
tp1097
I3
tp1098
F-1.0
s((I1
I1
I4
I4
I4
I4
I1
I4
I4
I-3
I0
tp1099
I3
tp1100
F-1.0
s((I1
I1
I1
I4
I1
I0
I1
I4
I4
I-3
I-1
tp1101
I0
tp1102
F-1.0
s((I0
I1
I4
I4
I1
I1
I4
I4
I4
I7
I-6
tp1103
I1
tp1104
F-1.0
s((I1
I1
I1
I1
I1
I2
I0
I1
I4
I-9
I5
tp1105
I1
tp1106
F-3.709875
s((I1
I4
I1
I1
I2
I0
I1
I1
I3
I0
I4
tp1107
I3
tp1108
F-4.524381249999999
s((I1
I4
I0
I1
I4
I4
I4
I4
I4
I-3
I11
tp1109
I2
tp1110
F-1.0
s((I1
I0
I1
I1
I2
I1
I4
I1
I4
I3
I6
tp1111
I3
tp1112
F-3.709875
s((I1
I4
I4
I1
I4
I4
I4
I1
I4
I3
I6
tp1113
I2
tp1114
F-1.0
s((I1
I1
I1
I4
I4
I1
I1
I4
I1
I-1
I0
tp1115
I2
tp1116
F-1.0
s((I1
I1
I1
I1
I1
I4
I1
I0
I1
I-3
I0
tp1117
I2
tp1118
F-3.709875
s((I1
I1
I1
I0
I4
I4
I4
I4
I1
I2
I10
tp1119
I3
tp1120
F-4.524381249999999
s((I1
I1
I4
I4
I4
I1
I4
I4
I4
I5
I5
tp1121
I3
tp1122
F-1.0
s((I2
I1
I1
I1
I1
I1
I1
I1
I4
I-1
I0
tp1123
I3
tp1124
F-7.395011805507812
s((I1
I4
I4
I0
I4
I4
I4
I4
I1
I2
I10
tp1125
I3
tp1126
F-1.0
s((I1
I1
I4
I4
I0
I1
I4
I4
I4
I14
I-4
tp1127
I1
tp1128
F-1.95
s((I1
I4
I4
I1
I4
I4
I4
I4
I4
I3
I4
tp1129
I0
tp1130
F-1.0
s((I0
I1
I4
I4
I4
I4
I4
I4
I4
I1
I-3
tp1131
I0
tp1132
F-1.0
s((I1
I4
I4
I1
I4
I4
I4
I4
I4
I0
I0
tp1133
I0
tp1134
F-1.95
s((I1
I1
I1
I2
I4
I4
I1
I4
I1
I-4
I4
tp1135
I2
tp1136
F-2.8525
s((I1
I4
I1
I4
I4
I4
I4
I4
I4
I-3
I5
tp1137
I3
tp1138
F-1.0
s((I0
I4
I1
I4
I4
I4
I4
I4
I4
I1
I4
tp1139
I2
tp1140
F-1.0
s((I1
I4
I1
I1
I4
I4
I1
I4
I1
I-3
I3
tp1141
I3
tp1142
F-3.709875
s((I2
I4
I1
I1
I1
I4
I1
I4
I1
I-3
I5
tp1143
I0
tp1144
F-1.0
s((I1
I3
I1
I1
I1
I1
I1
I1
I1
I8
I5
tp1145
I3
tp1146
F-5.298162187499999
s((I0
I4
I1
I0
I4
I4
I4
I4
I4
I2
I9
tp1147
I0
tp1148
F-1.0
s((I1
I4
I1
I4
I1
I4
I4
I4
I1
I-3
I7
tp1149
I3
tp1150
F-2.8525
s((I1
I4
I1
I1
I4
I4
I0
I1
I1
I-3
I1
tp1151
I2
tp1152
F-1.0
s((I1
I4
I4
I1
I1
I4
I4
I1
I1
I-1
I1
tp1153
I0
tp1154
F-1.0
s((I1
I0
I1
I4
I1
I4
I1
I1
I4
I1
I2
tp1155
I2
tp1156
F-1.0
s((I1
I4
I4
I2
I4
I4
I4
I1
I1
I-6
I5
tp1157
I0
tp1158
F-1.0
s((I1
I1
I1
I1
I1
I4
I1
I4
I4
I-10
I4
tp1159
I0
tp1160
F-1.0
s((I1
I1
I1
I1
I1
I2
I4
I0
I1
I13
I0
tp1161
I0
tp1162
F-1.0
s((I1
I1
I3
I4
I4
I1
I1
I4
I4
I-1
I-1
tp1163
I1
tp1164
F-1.0
s((I1
I1
I1
I4
I4
I4
I1
I4
I4
I-3
I-1
tp1165
I0
tp1166
F-1.95
s((I1
I0
I4
I4
I4
I3
I4
I4
I4
I6
I5
tp1167
I1
tp1168
F-1.0
s((I1
I4
I4
I1
I1
I4
I4
I4
I4
I4
I2
tp1169
I2
tp1170
F-5.298162187499999
s((I1
I0
I4
I3
I1
I1
I4
I1
I4
I-2
I10
tp1171
I0
tp1172
F-2.8525
s((I3
I1
I1
I1
I1
I0
I1
I1
I1
I-2
I11
tp1173
I1
tp1174
F-5.298162187499999
s((I1
I4
I1
I1
I4
I4
I1
I1
I3
I0
I4
tp1175
I1
tp1176
F-1.0
s((I1
I1
I4
I0
I1
I1
I4
I1
I1
I2
I9
tp1177
I3
tp1178
F-1.0
s((I1
I4
I4
I4
I4
I4
I4
I4
I4
I0
I0
tp1179
I3
tp1180
F-1.0
s((I1
I4
I4
I1
I1
I1
I4
I1
I1
I1
I-1
tp1181
I2
tp1182
F-5.298162187499999
s((I0
I4
I4
I1
I1
I0
I4
I0
I4
I3
I7
tp1183
I2
tp1184
F-1.0
s((I1
I4
I4
I1
I4
I4
I4
I2
I4
I13
I2
tp1185
I0
tp1186
F-1.0
s((I0
I1
I4
I4
I1
I1
I1
I1
I4
I1
I1
tp1187
I1
tp1188
F-1.95
s((I0
I4
I4
I1
I4
I4
I4
I4
I4
I-8
I7
tp1189
I1
tp1190
F-1.0
s((I1
I0
I0
I4
I4
I4
I4
I4
I1
I-9
I7
tp1191
I1
tp1192
F-1.0
s((I1
I1
I4
I1
I1
I1
I3
I1
I1
I-1
I-2
tp1193
I0
tp1194
F-1.0
s((I1
I1
I4
I4
I1
I0
I4
I4
I4
I7
I1
tp1195
I2
tp1196
F-1.0
s((I0
I1
I4
I4
I1
I1
I1
I4
I4
I-10
I6
tp1197
I3
tp1198
F-1.0
s((I1
I4
I4
I1
I1
I4
I4
I1
I4
I1
I7
tp1199
I3
tp1200
F-1.0
s((I0
I4
I4
I1
I4
I4
I4
I4
I1
I-1
I1
tp1201
I0
tp1202
F-1.0
s((I0
I1
I4
I4
I0
I1
I4
I1
I4
I1
I1
tp1203
I1
tp1204
F-1.0
s((I1
I4
I0
I4
I4
I4
I4
I4
I1
I-9
I7
tp1205
I0
tp1206
F-1.0
s((I1
I1
I1
I4
I4
I4
I1
I4
I4
I-1
I-2
tp1207
I2
tp1208
F-1.0
s((I1
I4
I1
I1
I1
I4
I4
I1
I1
I-1
I3
tp1209
I2
tp1210
F-1.95
s((I0
I1
I0
I4
I4
I4
I4
I4
I4
I4
I-7
tp1211
I3
tp1212
F-1.0
s((I0
I0
I4
I4
I4
I4
I4
I4
I4
I2
I-4
tp1213
I2
tp1214
F19.0
s((I0
I4
I4
I1
I4
I4
I4
I1
I4
I1
I3
tp1215
I3
tp1216
F-1.0
s((I1
I4
I4
I1
I1
I1
I4
I1
I1
I1
I-1
tp1217
I1
tp1218
F-1.95
s((I1
I4
I4
I4
I2
I1
I4
I4
I4
I11
I0
tp1219
I0
tp1220
F-1.0
s((I1
I4
I1
I4
I4
I4
I4
I4
I1
I-1
I-6
tp1221
I1
tp1222
F-1.0
s((I1
I0
I4
I4
I0
I1
I4
I4
I4
I6
I3
tp1223
I2
tp1224
F-1.0
s((I0
I4
I1
I4
I4
I4
I1
I4
I1
I-4
I0
tp1225
I1
tp1226
F-1.0
s((I1
I4
I1
I1
I1
I1
I0
I1
I4
I7
I5
tp1227
I0
tp1228
F-1.0
s((I1
I1
I4
I4
I1
I2
I1
I4
I4
I-3
I2
tp1229
I2
tp1230
F-1.0
s((I2
I1
I1
I4
I1
I1
I1
I4
I4
I-1
I0
tp1231
I2
tp1232
F-1.0
s((I0
I4
I4
I1
I4
I4
I4
I1
I4
I0
I8
tp1233
I0
tp1234
F-1.0
s((I1
I1
I4
I4
I4
I1
I4
I4
I4
I-8
I2
tp1235
I3
tp1236
F-1.0
s((I1
I1
I1
I1
I1
I1
I1
I1
I1
I-2
I2
tp1237
I0
tp1238
F-6.033254078124999
s((I1
I1
I4
I3
I1
I4
I4
I1
I4
I-5
I6
tp1239
I1
tp1240
F-1.0
s((I1
I2
I1
I4
I0
I0
I3
I4
I4
I4
I5
tp1241
I1
tp1242
F-1.0
s((I1
I4
I4
I4
I0
I1
I4
I4
I4
I14
I-4
tp1243
I0
tp1244
F-1.0
s((I1
I4
I4
I0
I4
I4
I4
I4
I1
I-8
I7
tp1245
I0
tp1246
F-1.0
s((I0
I4
I1
I1
I4
I4
I4
I4
I1
I-2
I2
tp1247
I3
tp1248
F19.0
s((I1
I0
I4
I4
I1
I1
I4
I4
I4
I2
I-2
tp1249
I2
tp1250
F-1.0
s((I1
I4
I0
I4
I4
I4
I4
I0
I4
I3
I9
tp1251
I1
tp1252
F-1.0
s((I1
I1
I1
I1
I1
I1
I1
I1
I1
I0
I-2
tp1253
I1
tp1254
F-1.0
s((I1
I4
I4
I4
I0
I4
I4
I1
I4
I9
I6
tp1255
I1
tp1256
F-1.0
s((I1
I1
I1
I1
I4
I4
I1
I1
I2
I11
I2
tp1257
I0
tp1258
F-1.0
s((I2
I4
I0
I2
I1
I4
I1
I1
I2
I3
I8
tp1259
I3
tp1260
F-1.0
s((I1
I1
I1
I1
I1
I1
I3
I1
I4
I7
I5
tp1261
I0
tp1262
F-1.0
s((I1
I1
I1
I1
I1
I1
I1
I1
I4
I-2
I2
tp1263
I3
tp1264
F-1.0
s((I1
I4
I4
I1
I0
I4
I4
I0
I4
I2
I5
tp1265
I3
tp1266
F-1.0
s((I1
I4
I4
I1
I4
I4
I4
I1
I1
I0
I1
tp1267
I3
tp1268
F-1.0
s((I1
I4
I1
I4
I4
I4
I4
I4
I4
I-8
I5
tp1269
I0
tp1270
F-1.0
s((I0
I4
I4
I4
I1
I1
I4
I4
I4
I5
I4
tp1271
I1
tp1272
F-1.0
s((I0
I0
I4
I4
I1
I1
I4
I1
I4
I1
I1
tp1273
I2
tp1274
F-1.95
s((I1
I1
I1
I1
I4
I0
I0
I4
I1
I-1
I4
tp1275
I3
tp1276
F-1.0
s((I1
I4
I0
I1
I4
I4
I4
I2
I1
I-3
I4
tp1277
I1
tp1278
F-1.0
s((I1
I2
I0
I1
I1
I1
I1
I1
I4
I-1
I4
tp1279
I3
tp1280
F-1.0
s((I1
I1
I1
I4
I1
I1
I1
I4
I1
I-1
I1
tp1281
I1
tp1282
F-2.8525
s((I3
I1
I0
I3
I1
I0
I4
I2
I1
I1
I0
tp1283
I2
tp1284
F-3.709875
s((I1
I4
I1
I1
I4
I4
I4
I1
I1
I-2
I1
tp1285
I3
tp1286
F-1.95
s((I0
I1
I4
I1
I1
I0
I0
I1
I3
I0
I1
tp1287
I0
tp1288
F-1.0
s((I1
I0
I4
I1
I0
I4
I4
I1
I4
I3
I6
tp1289
I1
tp1290
F-1.0
s((I2
I4
I1
I1
I4
I4
I4
I4
I1
I1
I6
tp1291
I0
tp1292
F-1.0
s((I1
I1
I0
I1
I1
I3
I2
I4
I3
I-1
I-2
tp1293
I3
tp1294
F-1.95
s((I1
I1
I0
I3
I1
I4
I1
I1
I4
I1
I4
tp1295
I1
tp1296
F-3.709875
s((I1
I4
I2
I1
I4
I4
I1
I4
I1
I-3
I2
tp1297
I2
tp1298
F-1.0
s((I1
I4
I1
I1
I1
I4
I1
I4
I1
I-3
I0
tp1299
I0
tp1300
F-1.0
s((I1
I4
I1
I4
I1
I4
I4
I4
I4
I2
I0
tp1301
I0
tp1302
F-1.0
s((I2
I1
I4
I3
I2
I2
I2
I2
I4
I5
I7
tp1303
I2
tp1304
F-2.8525
s((I0
I4
I1
I1
I1
I4
I0
I2
I1
I2
I6
tp1305
I0
tp1306
F19.0
s((I1
I1
I1
I4
I4
I4
I1
I4
I4
I6
I-5
tp1307
I2
tp1308
F-1.0
s((I1
I4
I1
I4
I4
I4
I1
I4
I4
I-2
I1
tp1309
I1
tp1310
F-1.0
s((I1
I4
I0
I3
I1
I4
I4
I0
I1
I3
I4
tp1311
I1
tp1312
F-1.95
s((I1
I4
I4
I1
I4
I4
I4
I4
I1
I0
I7
tp1313
I1
tp1314
F-1.0
s((I0
I4
I4
I4
I1
I4
I4
I3
I4
I2
I4
tp1315
I0
tp1316
F-1.0
s((I1
I1
I3
I0
I3
I1
I3
I1
I4
I0
I2
tp1317
I1
tp1318
F-13.188767474237693
s((I1
I1
I1
I4
I1
I4
I1
I4
I4
I-2
I0
tp1319
I0
tp1320
F-2.8525
s((I1
I1
I0
I1
I2
I1
I1
I1
I1
I-9
I6
tp1321
I0
tp1322
F-1.0
s((I1
I4
I1
I4
I4
I4
I1
I4
I4
I-3
I0
tp1323
I1
tp1324
F-1.0
s((I1
I1
I4
I4
I4
I1
I4
I4
I4
I7
I0
tp1325
I2
tp1326
F-1.0
s((I1
I0
I4
I4
I4
I4
I0
I4
I4
I4
I-8
tp1327
I2
tp1328
F-1.0
s((I1
I4
I4
I1
I1
I4
I4
I1
I4
I2
I-5
tp1329
I1
tp1330
F-1.0
s((I2
I2
I2
I2
I2
I2
I1
I4
I0
I4
I7
tp1331
I1
tp1332
F-1.0
s((I1
I4
I4
I1
I0
I4
I4
I1
I4
I-1
I11
tp1333
I1
tp1334
F-1.0
s((I1
I4
I1
I4
I4
I4
I4
I4
I1
I-1
I7
tp1335
I3
tp1336
F-1.0
s((I1
I4
I4
I1
I1
I4
I4
I1
I1
I-1
I1
tp1337
I1
tp1338
F-2.8525
s((I1
I1
I1
I0
I1
I1
I4
I4
I0
I-1
I0
tp1339
I0
tp1340
F-3.709875
s((I1
I4
I1
I1
I4
I4
I4
I4
I1
I-1
I3
tp1341
I1
tp1342
F-1.0
s((I1
I4
I4
I4
I0
I4
I4
I1
I4
I4
I5
tp1343
I2
tp1344
F-1.0
s((I1
I1
I4
I1
I4
I1
I4
I4
I4
I7
I0
tp1345
I3
tp1346
F-1.0
s((I0
I4
I0
I0
I4
I4
I1
I4
I0
I-1
I-1
tp1347
I0
tp1348
F-1.0
s((I1
I4
I1
I4
I4
I4
I4
I4
I4
I2
I-9
tp1349
I1
tp1350
F-1.0
s((I1
I4
I4
I2
I1
I1
I4
I1
I4
I6
I9
tp1351
I1
tp1352
F-2.8525
s((I0
I4
I4
I1
I1
I4
I4
I1
I4
I0
I5
tp1353
I1
tp1354
F-1.0
s((I1
I4
I4
I1
I1
I4
I4
I4
I4
I-2
I7
tp1355
I0
tp1356
F-1.0
s((I1
I4
I4
I1
I1
I4
I4
I3
I3
I0
I3
tp1357
I3
tp1358
F-1.0
s((I1
I4
I4
I1
I1
I4
I4
I4
I4
I0
I2
tp1359
I3
tp1360
F-1.0
s((I1
I4
I4
I1
I4
I4
I4
I4
I4
I-3
I11
tp1361
I3
tp1362
F-1.0
s((I1
I4
I1
I1
I4
I4
I1
I1
I1
I-2
I14
tp1363
I1
tp1364
F-1.0
s((I1
I1
I4
I4
I4
I1
I4
I4
I4
I4
I-1
tp1365
I0
tp1366
F-1.0
s((I1
I1
I4
I4
I1
I1
I4
I4
I4
I7
I-4
tp1367
I2
tp1368
F-1.0
s((I0
I4
I4
I4
I1
I4
I4
I1
I4
I12
I1
tp1369
I3
tp1370
F19.0
s((I1
I1
I4
I1
I1
I4
I1
I1
I1
I6
I6
tp1371
I1
tp1372
F-1.0
s((I1
I1
I4
I1
I1
I1
I1
I1
I1
I-2
I-2
tp1373
I1
tp1374
F-1.0
s((I3
I3
I1
I4
I2
I1
I0
I4
I4
I1
I-1
tp1375
I0
tp1376
F-1.95
s((I2
I4
I1
I1
I4
I4
I4
I4
I4
I-4
I3
tp1377
I3
tp1378
F-1.0
s((I0
I4
I4
I1
I4
I1
I4
I1
I4
I12
I-3
tp1379
I3
tp1380
F-1.0
s((I1
I1
I1
I1
I4
I4
I1
I4
I1
I-1
I-1
tp1381
I0
tp1382
F-3.709875
s((I1
I1
I4
I1
I4
I4
I1
I4
I1
I-3
I2
tp1383
I2
tp1384
F-1.95
s((I1
I1
I4
I1
I1
I1
I1
I1
I4
I1
I-3
tp1385
I0
tp1386
F-1.0
s((I1
I4
I4
I1
I1
I4
I4
I1
I1
I-1
I4
tp1387
I3
tp1388
F-1.0
s((I1
I1
I4
I4
I1
I1
I1
I1
I4
I-9
I4
tp1389
I1
tp1390
F-2.8525
s((I3
I4
I4
I1
I4
I4
I4
I4
I1
I-5
I6
tp1391
I0
tp1392
F-1.0
s((I1
I4
I2
I1
I4
I4
I1
I1
I1
I3
I1
tp1393
I0
tp1394
F-1.0
s((I1
I4
I1
I2
I4
I4
I4
I1
I1
I-3
I6
tp1395
I0
tp1396
F-1.0
s((I1
I4
I4
I4
I1
I1
I4
I1
I4
I2
I0
tp1397
I3
tp1398
F-1.0
s((I1
I0
I4
I4
I4
I4
I1
I4
I4
I-4
I2
tp1399
I0
tp1400
F-1.0
s((I1
I1
I4
I4
I4
I1
I4
I1
I4
I4
I1
tp1401
I0
tp1402
F-6.033254078124999
s((I1
I4
I1
I1
I1
I1
I0
I4
I1
I-4
I11
tp1403
I3
tp1404
F-1.0
s((I1
I1
I4
I4
I1
I1
I4
I4
I4
I2
I6
tp1405
I2
tp1406
F-1.0
s((I1
I4
I1
I4
I4
I4
I4
I4
I4
I-5
I3
tp1407
I0
tp1408
F-1.0
s((I1
I4
I4
I1
I0
I4
I4
I1
I4
I5
I4
tp1409
I2
tp1410
F-2.8525
s((I1
I4
I1
I4
I4
I4
I4
I4
I0
I6
I9
tp1411
I1
tp1412
F-1.0
s((I1
I1
I4
I1
I4
I1
I4
I1
I0
I0
I3
tp1413
I1
tp1414
F-1.95
s((I1
I1
I0
I1
I1
I3
I2
I4
I0
I-1
I-2
tp1415
I2
tp1416
F-1.0
s((I1
I3
I1
I1
I1
I1
I1
I1
I1
I8
I5
tp1417
I0
tp1418
F-3.709875
s((I1
I1
I1
I1
I1
I1
I1
I4
I1
I6
I5
tp1419
I2
tp1420
F-2.8525
s((I1
I4
I4
I1
I0
I4
I4
I1
I4
I4
I7
tp1421
I2
tp1422
F-1.0
s((I1
I1
I1
I2
I1
I3
I1
I1
I1
I4
I2
tp1423
I1
tp1424
F-5.298162187499999
s((I1
I4
I4
I1
I1
I4
I4
I0
I4
I14
I-3
tp1425
I0
tp1426
F-1.0
s((I1
I4
I4
I4
I1
I0
I4
I4
I4
I7
I-8
tp1427
I0
tp1428
F-1.0
s((I1
I1
I1
I0
I1
I4
I1
I1
I1
I-4
I1
tp1429
I1
tp1430
F-1.0
s((I1
I4
I1
I4
I4
I4
I4
I4
I1
I-1
I1
tp1431
I1
tp1432
F-1.0
s((I1
I1
I4
I2
I4
I4
I4
I4
I1
I2
I-6
tp1433
I1
tp1434
F-1.0
s((I1
I1
I4
I4
I1
I0
I4
I1
I4
I15
I3
tp1435
I1
tp1436
F-1.0
s((I1
I4
I4
I1
I3
I1
I4
I1
I4
I9
I6
tp1437
I0
tp1438
F-1.0
s((I1
I4
I4
I1
I1
I4
I4
I1
I4
I2
I10
tp1439
I2
tp1440
F-1.0
s((I0
I1
I4
I4
I1
I1
I4
I1
I4
I1
I1
tp1441
I1
tp1442
F-1.0
s((I1
I4
I1
I1
I1
I4
I4
I1
I1
I12
I3
tp1443
I3
tp1444
F-6.033254078124999
s((I1
I1
I1
I1
I1
I2
I0
I1
I4
I-9
I5
tp1445
I3
tp1446
F-4.524381249999999
s((I1
I4
I4
I4
I1
I1
I1
I4
I4
I0
I-4
tp1447
I0
tp1448
F-1.0
s((I1
I4
I4
I3
I1
I4
I4
I1
I4
I-5
I6
tp1449
I0
tp1450
F-1.0
s((I1
I4
I3
I0
I3
I1
I4
I1
I4
I0
I2
tp1451
I1
tp1452
F-1.95
s((I1
I4
I1
I1
I4
I4
I4
I4
I1
I-3
I4
tp1453
I0
tp1454
F-1.0
s((I1
I4
I1
I3
I1
I1
I4
I1
I1
I-1
I3
tp1455
I0
tp1456
F-1.0
s((I1
I1
I1
I4
I3
I4
I1
I3
I1
I3
I2
tp1457
I1
tp1458
F-1.0
s((I1
I3
I1
I4
I1
I4
I1
I4
I4
I2
I0
tp1459
I0
tp1460
F-1.0
s((I1
I4
I1
I4
I1
I1
I1
I4
I4
I-7
I2
tp1461
I0
tp1462
F-1.0
s((I3
I1
I1
I1
I3
I1
I0
I1
I1
I3
I3
tp1463
I3
tp1464
F-1.0
s((I1
I4
I4
I2
I1
I4
I4
I1
I4
I1
I0
tp1465
I3
tp1466
F-1.0
s((I1
I1
I4
I4
I4
I4
I1
I4
I4
I0
I-7
tp1467
I0
tp1468
F-1.0
s((I1
I4
I1
I1
I1
I4
I1
I4
I1
I6
I-2
tp1469
I3
tp1470
F-1.0
s((I1
I1
I1
I4
I1
I1
I0
I1
I1
I8
I-2
tp1471
I3
tp1472
F-1.0
s((I1
I4
I1
I1
I4
I4
I4
I4
I4
I-2
I1
tp1473
I1
tp1474
F-1.0
s((I1
I4
I4
I4
I1
I4
I4
I1
I4
I2
I-5
tp1475
I2
tp1476
F-1.0
s((I1
I4
I4
I4
I1
I1
I4
I1
I4
I4
I0
tp1477
I2
tp1478
F-1.0
s((I0
I4
I4
I1
I4
I4
I4
I4
I1
I4
I11
tp1479
I0
tp1480
F-1.0
s((I1
I1
I1
I4
I4
I1
I0
I4
I4
I9
I-3
tp1481
I3
tp1482
F-1.95
s((I1
I4
I1
I4
I4
I4
I4
I4
I4
I-4
I7
tp1483
I3
tp1484
F-1.0
s((I1
I1
I3
I0
I3
I1
I3
I1
I4
I0
I2
tp1485
I3
tp1486
F-1.0
s((I1
I1
I1
I4
I1
I1
I1
I4
I1
I-2
I0
tp1487
I2
tp1488
F-1.0
s((I1
I1
I0
I4
I4
I4
I0
I4
I4
I-1
I-3
tp1489
I0
tp1490
F-1.0
s((I1
I4
I4
I1
I4
I4
I4
I1
I0
I0
I3
tp1491
I0
tp1492
F-1.95
s((I1
I4
I4
I4
I1
I4
I4
I4
I4
I4
I8
tp1493
I3
tp1494
F-1.0
s((I1
I4
I4
I1
I4
I4
I4
I3
I4
I-1
I4
tp1495
I3
tp1496
F-1.0
s((I1
I1
I4
I4
I4
I1
I4
I4
I4
I7
I-4
tp1497
I1
tp1498
F-1.0
s((I2
I2
I1
I1
I1
I1
I4
I4
I4
I-1
I5
tp1499
I2
tp1500
F-3.709875
s((I2
I1
I1
I1
I1
I4
I0
I2
I1
I2
I6
tp1501
I2
tp1502
F-1.0
s((I1
I4
I1
I4
I1
I4
I4
I4
I1
I-2
I3
tp1503
I1
tp1504
F-1.95
s((I0
I1
I4
I4
I4
I4
I0
I4
I4
I6
I-7
tp1505
I2
tp1506
F-1.0
s((I0
I4
I4
I1
I4
I4
I4
I1
I4
I8
I8
tp1507
I1
tp1508
F-1.0
s((I1
I1
I1
I1
I4
I4
I1
I4
I1
I-1
I-4
tp1509
I3
tp1510
F-1.0
s((I1
I4
I1
I1
I1
I4
I1
I4
I3
I-6
I6
tp1511
I1
tp1512
F-1.0
s((I3
I4
I1
I1
I4
I4
I4
I4
I1
I-2
I3
tp1513
I3
tp1514
F-1.95
s((I1
I0
I0
I0
I4
I4
I4
I1
I1
I2
I7
tp1515
I3
tp1516
F-1.0
s((I0
I4
I1
I1
I1
I4
I4
I2
I1
I2
I6
tp1517
I3
tp1518
F-1.0
s((I1
I0
I1
I4
I4
I1
I1
I4
I4
I-10
I5
tp1519
I2
tp1520
F-1.0
s((I2
I0
I2
I2
I0
I4
I1
I4
I0
I4
I7
tp1521
I2
tp1522
F-1.95
s((I1
I0
I1
I1
I1
I4
I1
I1
I4
I14
I3
tp1523
I1
tp1524
F-1.0
s((I3
I4
I4
I4
I1
I4
I4
I0
I4
I1
I2
tp1525
I1
tp1526
F-1.0
s((I1
I1
I4
I4
I1
I0
I4
I1
I4
I4
I4
tp1527
I3
tp1528
F-1.0
s((I1
I2
I1
I3
I4
I1
I4
I1
I1
I1
I-2
tp1529
I0
tp1530
F-1.0
s((I1
I1
I1
I4
I4
I1
I1
I4
I4
I4
I7
tp1531
I0
tp1532
F-1.0
s((I1
I4
I1
I0
I4
I4
I4
I4
I1
I-2
I3
tp1533
I3
tp1534
F-1.0
s((I1
I4
I1
I4
I4
I4
I4
I4
I1
I-2
I1
tp1535
I1
tp1536
F-2.8525
s((I1
I4
I1
I4
I0
I1
I4
I4
I1
I3
I8
tp1537
I1
tp1538
F-1.0
s((I1
I4
I4
I1
I4
I4
I4
I4
I1
I-4
I5
tp1539
I3
tp1540
F-1.0
s((I1
I1
I4
I4
I4
I1
I1
I4
I4
I-3
I-4
tp1541
I3
tp1542
F-1.0
s((I0
I4
I4
I0
I4
I4
I4
I4
I4
I4
I12
tp1543
I3
tp1544
F-1.0
s((I1
I4
I1
I4
I1
I4
I4
I4
I1
I-1
I-6
tp1545
I0
tp1546
F-1.0
s((I0
I0
I1
I4
I1
I1
I2
I0
I4
I3
I5
tp1547
I2
tp1548
F19.0
s((I1
I4
I4
I1
I1
I1
I4
I0
I1
I-7
I7
tp1549
I0
tp1550
F-1.0
s((I1
I1
I1
I1
I1
I0
I2
I0
I4
I-2
I4
tp1551
I3
tp1552
F-1.0
s((I1
I1
I0
I4
I0
I1
I1
I1
I4
I1
I8
tp1553
I0
tp1554
F-6.731591374218749
s((I1
I1
I1
I4
I4
I1
I1
I4
I4
I-3
I-1
tp1555
I2
tp1556
F-1.0
s((I2
I1
I3
I4
I1
I1
I3
I4
I4
I0
I-1
tp1557
I0
tp1558
F-11.197466626964683
s((I0
I4
I4
I4
I1
I0
I4
I4
I4
I4
I3
tp1559
I3
tp1560
F-1.0
s((I1
I1
I1
I3
I4
I1
I1
I4
I1
I-2
I4
tp1561
I1
tp1562
F-1.0
s((I1
I4
I1
I1
I4
I4
I4
I4
I4
I-3
I3
tp1563
I3
tp1564
F-3.709875
s((I1
I1
I1
I1
I2
I1
I0
I1
I1
I-3
I3
tp1565
I2
tp1566
F-1.0
s((I1
I4
I1
I1
I0
I1
I4
I1
I1
I-7
I6
tp1567
I0
tp1568
F-1.0
s((I2
I1
I1
I1
I4
I4
I1
I1
I1
I-2
I2
tp1569
I1
tp1570
F-1.0
s((I1
I4
I4
I1
I1
I1
I4
I1
I4
I14
I0
tp1571
I1
tp1572
F-1.0
s((I3
I1
I4
I1
I1
I1
I4
I2
I4
I-5
I5
tp1573
I0
tp1574
F-1.0
s((I1
I0
I4
I1
I2
I1
I4
I1
I1
I-5
I4
tp1575
I0
tp1576
F-1.0
s((I1
I1
I0
I2
I4
I1
I1
I1
I1
I-6
I5
tp1577
I3
tp1578
F-3.709875
s((I1
I1
I4
I4
I4
I4
I4
I4
I4
I4
I-9
tp1579
I1
tp1580
F-1.0
s((I1
I4
I4
I1
I0
I1
I4
I1
I4
I7
I2
tp1581
I2
tp1582
F-1.0
s((I3
I1
I1
I1
I1
I0
I1
I1
I1
I-2
I11
tp1583
I3
tp1584
F-1.0
s((I2
I4
I2
I4
I1
I4
I0
I1
I2
I3
I7
tp1585
I0
tp1586
F-1.0
s((I1
I4
I1
I1
I1
I4
I4
I1
I3
I7
I7
tp1587
I3
tp1588
F-1.0
s((I1
I1
I4
I0
I1
I1
I4
I1
I1
I2
I9
tp1589
I1
tp1590
F-2.8525
s((I1
I4
I4
I1
I4
I4
I4
I1
I3
I0
I4
tp1591
I3
tp1592
F-1.0
s((I1
I1
I4
I1
I1
I1
I1
I1
I4
I14
I2
tp1593
I0
tp1594
F-1.95
s((I1
I1
I4
I4
I4
I1
I4
I4
I4
I10
I-4
tp1595
I3
tp1596
F-1.0
s((I0
I1
I1
I4
I1
I1
I1
I4
I1
I-2
I-4
tp1597
I3
tp1598
F-11.0
s((I1
I4
I0
I4
I4
I4
I4
I4
I4
I-5
I0
tp1599
I0
tp1600
F-1.0
s((I1
I0
I3
I2
I1
I1
I1
I1
I3
I0
I0
tp1601
I2
tp1602
F-5.298162187499999
s((I1
I3
I4
I3
I0
I1
I4
I1
I0
I1
I1
tp1603
I2
tp1604
F-1.0
s((I0
I1
I3
I4
I4
I1
I3
I4
I4
I0
I-1
tp1605
I3
tp1606
F19.0
s((I1
I4
I4
I3
I1
I4
I4
I1
I4
I1
I4
tp1607
I3
tp1608
F-1.0
s((I1
I4
I4
I4
I1
I4
I4
I4
I4
I4
I0
tp1609
I2
tp1610
F-1.0
s((I1
I1
I4
I4
I1
I1
I4
I4
I4
I8
I4
tp1611
I3
tp1612
F-1.0
s((I1
I1
I1
I4
I4
I1
I1
I4
I4
I-2
I-1
tp1613
I1
tp1614
F-1.0
s((I0
I4
I1
I4
I4
I4
I4
I4
I4
I1
I-9
tp1615
I2
tp1616
F-1.0
s((I1
I4
I1
I4
I4
I4
I4
I4
I4
I-2
I1
tp1617
I2
tp1618
F-1.0
s((I1
I4
I4
I4
I1
I4
I4
I1
I4
I1
I2
tp1619
I0
tp1620
F-11.45
s((I0
I1
I3
I4
I4
I4
I3
I4
I4
I0
I-1
tp1621
I0
tp1622
F-1.0
s((I1
I4
I4
I4
I0
I4
I4
I1
I4
I15
I4
tp1623
I2
tp1624
F-1.0
s((I0
I4
I1
I1
I4
I4
I4
I4
I1
I4
I4
tp1625
I1
tp1626
F-1.0
s((I1
I4
I4
I1
I1
I4
I4
I4
I4
I4
I0
tp1627
I0
tp1628
F-1.0
s((I1
I4
I4
I4
I1
I4
I4
I4
I4
I3
I0
tp1629
I0
tp1630
F-1.0
s((I1
I1
I4
I1
I0
I1
I4
I4
I4
I-1
I-4
tp1631
I3
tp1632
F-1.0
s((I1
I0
I1
I1
I1
I1
I2
I1
I1
I-2
I3
tp1633
I3
tp1634
F-3.709875
s((I1
I1
I1
I1
I4
I4
I1
I4
I1
I-3
I0
tp1635
I1
tp1636
F-1.0
s((I1
I4
I4
I0
I4
I4
I4
I4
I4
I-1
I2
tp1637
I3
tp1638
F-1.0
s((I1
I4
I1
I1
I1
I4
I4
I1
I1
I0
I0
tp1639
I0
tp1640
F-1.0
s((I1
I1
I1
I1
I1
I1
I4
I1
I1
I-1
I1
tp1641
I0
tp1642
F-6.033254078124999
s((I1
I4
I1
I4
I4
I4
I4
I1
I4
I6
I7
tp1643
I2
tp1644
F-1.0
s((I1
I4
I4
I0
I4
I4
I4
I0
I4
I10
I1
tp1645
I2
tp1646
F-1.0
s((I1
I1
I4
I4
I1
I1
I1
I4
I4
I0
I-4
tp1647
I2
tp1648
F-1.0
s((I1
I4
I1
I4
I4
I4
I4
I4
I0
I-1
I0
tp1649
I3
tp1650
F-2.8525
s((I2
I2
I0
I4
I0
I2
I2
I0
I4
I4
I6
tp1651
I3
tp1652
F-1.0
s((I1
I1
I1
I1
I4
I1
I1
I2
I1
I13
I2
tp1653
I0
tp1654
F-1.95
s((I1
I4
I4
I4
I0
I4
I4
I1
I4
I2
I3
tp1655
I2
tp1656
F-1.0
s((I1
I1
I4
I1
I1
I1
I4
I1
I1
I-1
I1
tp1657
I2
tp1658
F-2.8525
s((I1
I1
I0
I4
I0
I1
I1
I4
I4
I-9
I6
tp1659
I3
tp1660
F-1.0
s((I1
I1
I0
I4
I4
I1
I0
I4
I4
I-1
I-3
tp1661
I3
tp1662
F-1.0
s((I1
I4
I1
I1
I1
I4
I4
I1
I1
I-1
I2
tp1663
I0
tp1664
F-1.0
s((I0
I1
I0
I1
I4
I4
I0
I4
I1
I6
I-7
tp1665
I3
tp1666
F-11.95
s((I1
I1
I4
I4
I1
I0
I4
I1
I4
I4
I6
tp1667
I3
tp1668
F-1.0
s((I3
I1
I1
I1
I1
I1
I4
I1
I0
I-1
I2
tp1669
I3
tp1670
F-2.8525
s((I1
I4
I4
I1
I4
I4
I4
I1
I4
I5
I4
tp1671
I1
tp1672
F-1.0
s((I1
I4
I4
I4
I1
I0
I4
I1
I4
I4
I6
tp1673
I1
tp1674
F-2.8525
s((I1
I4
I4
I4
I1
I0
I4
I0
I4
I2
I2
tp1675
I1
tp1676
F-1.0
s((I1
I0
I3
I1
I1
I4
I1
I1
I1
I-3
I11
tp1677
I3
tp1678
F-5.298162187499999
s((I1
I1
I4
I4
I4
I4
I4
I4
I4
I-1
I-4
tp1679
I3
tp1680
F-1.0
s((I1
I1
I4
I1
I4
I4
I4
I1
I1
I-9
I9
tp1681
I1
tp1682
F-1.0
s((I1
I1
I1
I4
I4
I1
I1
I4
I4
I6
I4
tp1683
I3
tp1684
F-2.8525
s((I1
I1
I4
I4
I1
I4
I4
I4
I4
I-3
I-3
tp1685
I3
tp1686
F-1.0
s((I0
I4
I4
I4
I1
I4
I4
I4
I4
I9
I0
tp1687
I3
tp1688
F-1.0
s((I0
I4
I4
I0
I4
I4
I4
I4
I4
I0
I5
tp1689
I0
tp1690
F-1.0
s((I1
I1
I3
I2
I4
I1
I1
I1
I1
I-6
I5
tp1691
I0
tp1692
F-5.298162187499999
s((I0
I1
I1
I1
I4
I0
I4
I4
I4
I6
I-2
tp1693
I3
tp1694
F-5.298162187499999
s((I0
I4
I4
I4
I1
I1
I4
I1
I4
I0
I11
tp1695
I1
tp1696
F-11.0
s((I1
I1
I1
I1
I1
I1
I0
I1
I0
I0
I2
tp1697
I0
tp1698
F-1.0
s((I1
I4
I1
I1
I4
I4
I1
I4
I1
I-3
I3
tp1699
I2
tp1700
F-3.709875
s((I1
I0
I4
I4
I1
I1
I4
I4
I4
I1
I0
tp1701
I1
tp1702
F-1.0
s((I0
I4
I1
I4
I4
I4
I4
I4
I1
I-6
I4
tp1703
I1
tp1704
F-1.0
s((I1
I1
I4
I4
I4
I1
I4
I4
I4
I2
I5
tp1705
I0
tp1706
F-1.0
s((I1
I1
I4
I1
I1
I4
I4
I1
I4
I7
I-2
tp1707
I0
tp1708
F-1.0
s((I1
I2
I4
I4
I4
I1
I4
I4
I4
I1
I-2
tp1709
I2
tp1710
F-1.0
s((I1
I1
I4
I4
I1
I4
I4
I0
I4
I1
I9
tp1711
I3
tp1712
F-1.0
s((I1
I4
I1
I4
I1
I4
I4
I4
I1
I-9
I8
tp1713
I0
tp1714
F-1.0
s((I1
I4
I4
I4
I2
I4
I4
I3
I4
I-4
I7
tp1715
I3
tp1716
F-1.0
s((I1
I4
I4
I4
I1
I2
I4
I0
I4
I2
I-2
tp1717
I2
tp1718
F-1.0
s((I1
I4
I1
I1
I4
I4
I4
I4
I1
I-1
I0
tp1719
I3
tp1720
F-3.709875
s((I1
I1
I1
I1
I1
I3
I1
I1
I1
I-4
I4
tp1721
I1
tp1722
F-1.0
s((I1
I1
I1
I4
I0
I1
I1
I1
I4
I-2
I3
tp1723
I3
tp1724
F-3.709875
s((I0
I1
I0
I4
I4
I2
I1
I4
I4
I11
I-1
tp1725
I2
tp1726
F-1.0
s((I1
I4
I4
I4
I0
I1
I4
I4
I4
I3
I8
tp1727
I3
tp1728
F-1.0
s((I1
I1
I1
I4
I1
I4
I0
I4
I4
I0
I0
tp1729
I1
tp1730
F-10.2465004176894
s((I1
I0
I4
I1
I1
I1
I4
I1
I4
I0
I4
tp1731
I2
tp1732
F-1.0
s((I3
I3
I1
I4
I0
I1
I0
I4
I4
I1
I-1
tp1733
I1
tp1734
F-1.0
s((I1
I4
I4
I1
I4
I4
I4
I1
I1
I-1
I-5
tp1735
I0
tp1736
F-1.0
s((I0
I4
I4
I1
I4
I4
I4
I4
I4
I3
I5
tp1737
I3
tp1738
F-1.0
s((I1
I4
I4
I4
I1
I4
I4
I1
I4
I-2
I3
tp1739
I1
tp1740
F-4.524381249999999
s((I1
I1
I4
I4
I4
I4
I1
I4
I4
I-6
I2
tp1741
I0
tp1742
F-1.0
s((I1
I4
I1
I4
I4
I4
I1
I4
I4
I6
I-3
tp1743
I0
tp1744
F-1.0
s((I1
I1
I4
I4
I4
I4
I4
I4
I4
I-5
I12
tp1745
I2
tp1746
F-1.0
s((I0
I4
I0
I2
I4
I4
I1
I1
I2
I3
I8
tp1747
I1
tp1748
F19.0
s((I1
I4
I1
I1
I1
I1
I4
I4
I1
I1
I-5
tp1749
I1
tp1750
F-1.0
s((I1
I1
I4
I4
I1
I0
I4
I1
I4
I5
I3
tp1751
I0
tp1752
F-1.95
s((I1
I4
I1
I4
I4
I4
I4
I4
I4
I-6
I14
tp1753
I1
tp1754
F-1.0
s((I0
I4
I4
I1
I4
I4
I4
I4
I4
I-2
I9
tp1755
I2
tp1756
F-11.0
s((I1
I1
I1
I1
I1
I1
I1
I1
I1
I-1
I1
tp1757
I1
tp1758
F-5.298162187499999
s((I1
I1
I4
I1
I1
I1
I4
I4
I4
I2
I6
tp1759
I3
tp1760
F-1.0
s((I1
I3
I1
I4
I4
I4
I1
I4
I1
I-2
I-2
tp1761
I0
tp1762
F-1.0
s((I1
I4
I4
I4
I1
I1
I4
I4
I4
I1
I-1
tp1763
I2
tp1764
F-1.0
s((I1
I1
I4
I1
I3
I1
I4
I1
I4
I-1
I11
tp1765
I3
tp1766
F-1.0
s((I2
I4
I1
I3
I4
I4
I4
I4
I4
I-5
I7
tp1767
I3
tp1768
F-1.0
s((I2
I1
I1
I1
I1
I1
I1
I1
I1
I4
I1
tp1769
I1
tp1770
F-1.95
s((I1
I4
I4
I1
I4
I4
I4
I1
I4
I-5
I7
tp1771
I2
tp1772
F-1.0
s((I3
I4
I1
I3
I4
I4
I1
I4
I1
I2
I2
tp1773
I2
tp1774
F-5.298162187499999
s((I2
I1
I1
I4
I1
I4
I4
I4
I1
I-6
I4
tp1775
I3
tp1776
F-1.0
s((I1
I4
I4
I1
I1
I4
I4
I0
I1
I-1
I2
tp1777
I1
tp1778
F-1.0
s((I1
I4
I4
I4
I1
I4
I4
I1
I1
I-6
I8
tp1779
I3
tp1780
F-1.0
s((I1
I0
I3
I1
I1
I1
I4
I3
I3
I0
I3
tp1781
I2
tp1782
F-9.733158334409895
s((I0
I4
I4
I4
I1
I4
I4
I4
I4
I2
I-1
tp1783
I2
tp1784
F-1.0
s((I1
I0
I0
I4
I1
I4
I1
I4
I4
I12
I-4
tp1785
I3
tp1786
F-1.0
s((I1
I1
I1
I1
I1
I4
I4
I1
I1
I5
I7
tp1787
I2
tp1788
F-1.0
s((I1
I4
I3
I0
I4
I4
I4
I4
I3
I0
I0
tp1789
I1
tp1790
F-1.0
s((I1
I1
I1
I2
I4
I3
I1
I4
I1
I4
I2
tp1791
I2
tp1792
F-1.0
s((I1
I4
I1
I1
I4
I4
I4
I4
I4
I5
I9
tp1793
I1
tp1794
F-1.0
s((I1
I1
I4
I4
I4
I1
I4
I4
I4
I0
I-5
tp1795
I3
tp1796
F-1.0
s((I1
I1
I1
I4
I4
I4
I4
I4
I1
I-7
I16
tp1797
I1
tp1798
F-1.0
s((I1
I1
I1
I4
I4
I4
I1
I4
I4
I-4
I9
tp1799
I0
tp1800
F-1.0
s((I1
I4
I4
I1
I1
I4
I4
I0
I1
I-1
I3
tp1801
I3
tp1802
F-1.0
s((I1
I1
I1
I4
I0
I1
I4
I4
I1
I3
I8
tp1803
I3
tp1804
F-4.524381249999999
s((I1
I1
I1
I1
I4
I0
I0
I4
I1
I-1
I4
tp1805
I0
tp1806
F-1.95
s((I0
I4
I1
I1
I4
I4
I4
I2
I1
I2
I6
tp1807
I1
tp1808
F-1.0
s((I1
I1
I4
I0
I1
I0
I4
I1
I4
I2
I5
tp1809
I3
tp1810
F-1.0
s((I1
I1
I0
I1
I1
I1
I1
I2
I1
I0
I1
tp1811
I3
tp1812
F-1.0
s((I1
I3
I1
I4
I4
I2
I0
I4
I4
I5
I5
tp1813
I1
tp1814
F-1.0
s((I1
I1
I1
I2
I1
I4
I1
I1
I1
I-10
I7
tp1815
I2
tp1816
F-3.709875
s((I1
I1
I3
I4
I1
I0
I4
I1
I4
I5
I3
tp1817
I3
tp1818
F-3.709875
s((I1
I1
I4
I0
I1
I4
I4
I1
I0
I-2
I5
tp1819
I3
tp1820
F-1.0
s((I1
I4
I1
I1
I4
I4
I4
I4
I2
I-1
I0
tp1821
I0
tp1822
F-1.0
s((I0
I4
I4
I4
I0
I1
I4
I4
I4
I1
I4
tp1823
I1
tp1824
F-1.0
s((I1
I4
I0
I1
I4
I4
I4
I1
I1
I-3
I11
tp1825
I3
tp1826
F-1.0
s((I1
I1
I4
I4
I4
I1
I4
I1
I4
I-2
I6
tp1827
I2
tp1828
F-1.0
s((I0
I2
I2
I0
I1
I1
I2
I1
I4
I3
I6
tp1829
I3
tp1830
F19.0
s((I1
I4
I4
I1
I4
I4
I4
I1
I4
I0
I5
tp1831
I0
tp1832
F-1.0
s((I0
I1
I1
I4
I4
I1
I1
I4
I4
I12
I-1
tp1833
I1
tp1834
F-11.0
s((I1
I1
I1
I1
I1
I0
I2
I0
I1
I-2
I4
tp1835
I0
tp1836
F-1.0
s((I1
I4
I0
I3
I1
I4
I4
I0
I1
I3
I4
tp1837
I2
tp1838
F-2.8525
s((I1
I1
I4
I0
I1
I1
I4
I0
I1
I0
I0
tp1839
I0
tp1840
F-1.95
s((I1
I4
I4
I4
I1
I1
I4
I4
I4
I6
I5
tp1841
I3
tp1842
F-1.0
s((I1
I1
I2
I4
I4
I4
I1
I4
I4
I-1
I-1
tp1843
I0
tp1844
F-1.0
s((I3
I3
I1
I1
I4
I4
I1
I1
I1
I2
I1
tp1845
I0
tp1846
F-4.524381249999999
s((I1
I1
I3
I0
I3
I1
I3
I1
I4
I0
I2
tp1847
I0
tp1848
F-3.709875
s((I1
I4
I4
I1
I4
I4
I4
I1
I1
I-6
I15
tp1849
I0
tp1850
F-1.0
s((I1
I1
I1
I4
I1
I0
I4
I4
I4
I-6
I14
tp1851
I0
tp1852
F-1.95
s((I1
I4
I4
I1
I1
I1
I4
I0
I1
I3
I9
tp1853
I2
tp1854
F-2.8525
s((I1
I0
I1
I1
I1
I1
I0
I1
I1
I-2
I3
tp1855
I1
tp1856
F-1.0
s((I2
I2
I3
I4
I0
I2
I2
I0
I4
I4
I6
tp1857
I0
tp1858
F-3.709875
s((I1
I0
I1
I4
I1
I1
I1
I1
I1
I-8
I5
tp1859
I1
tp1860
F-3.709875
s((I1
I1
I1
I1
I4
I1
I1
I2
I1
I13
I2
tp1861
I3
tp1862
F-1.95
s((I2
I2
I0
I4
I4
I0
I2
I0
I4
I4
I6
tp1863
I0
tp1864
F-2.8525
s((I1
I4
I1
I1
I4
I4
I4
I1
I4
I4
I10
tp1865
I0
tp1866
F-1.0
s((I3
I4
I0
I3
I1
I4
I4
I2
I1
I1
I0
tp1867
I2
tp1868
F-1.0
s((I1
I4
I1
I4
I1
I4
I1
I4
I4
I-3
I0
tp1869
I3
tp1870
F-1.95
s((I0
I4
I2
I0
I1
I4
I1
I1
I4
I9
I0
tp1871
I2
tp1872
F19.0
s((I1
I1
I4
I4
I4
I1
I4
I4
I4
I-1
I-4
tp1873
I2
tp1874
F-1.0
s((I1
I4
I4
I1
I4
I4
I4
I4
I1
I-2
I1
tp1875
I1
tp1876
F-1.95
s((I1
I4
I4
I4
I1
I4
I4
I4
I4
I-3
I7
tp1877
I3
tp1878
F-1.0
s((I1
I1
I1
I1
I1
I4
I0
I1
I3
I-3
I10
tp1879
I3
tp1880
F-7.395011805507812
s((I1
I1
I1
I1
I1
I1
I0
I0
I2
I5
I9
tp1881
I2
tp1882
F-1.0
s((I1
I1
I1
I1
I1
I1
I3
I1
I1
I7
I5
tp1883
I3
tp1884
F-3.709875
s((I1
I4
I4
I4
I4
I4
I4
I4
I4
I0
I0
tp1885
I0
tp1886
F-2.8525
s((I1
I4
I4
I1
I4
I4
I4
I4
I1
I5
I10
tp1887
I0
tp1888
F-1.0
s((I1
I0
I0
I1
I4
I1
I4
I4
I1
I9
I-2
tp1889
I1
tp1890
F-1.0
s((I1
I1
I1
I4
I4
I4
I0
I4
I4
I9
I-3
tp1891
I0
tp1892
F-2.8525
s((I0
I4
I1
I4
I4
I4
I0
I4
I4
I10
I-2
tp1893
I1
tp1894
F-1.0
s((I1
I1
I4
I4
I4
I4
I1
I4
I4
I-11
I6
tp1895
I3
tp1896
F-1.0
s((I1
I4
I4
I1
I4
I4
I4
I1
I1
I-9
I9
tp1897
I0
tp1898
F-1.0
s((I1
I3
I4
I3
I0
I1
I4
I1
I0
I1
I1
tp1899
I1
tp1900
F-1.0
s((I1
I0
I1
I4
I4
I1
I3
I1
I1
I2
I2
tp1901
I0
tp1902
F-1.0
s((I2
I1
I1
I4
I4
I4
I4
I4
I4
I2
I-7
tp1903
I0
tp1904
F-2.8525
s((I0
I1
I4
I4
I1
I2
I4
I1
I4
I0
I4
tp1905
I3
tp1906
F-1.0
s((I1
I4
I4
I1
I1
I4
I4
I1
I1
I4
I9
tp1907
I0
tp1908
F-1.0
s((I0
I0
I4
I1
I0
I1
I4
I1
I4
I7
I-7
tp1909
I1
tp1910
F-1.0
s((I1
I2
I1
I1
I1
I0
I1
I1
I1
I-1
I3
tp1911
I2
tp1912
F-6.731591374218749
s((I1
I1
I4
I4
I1
I1
I4
I4
I4
I2
I9
tp1913
I2
tp1914
F-1.0
s((I1
I0
I1
I1
I4
I4
I1
I1
I0
I1
I5
tp1915
I3
tp1916
F-1.0
s((I1
I4
I1
I1
I4
I4
I4
I4
I1
I-4
I5
tp1917
I2
tp1918
F-2.8525
s((I1
I2
I1
I1
I4
I1
I1
I4
I1
I-10
I5
tp1919
I2
tp1920
F-1.95
s((I1
I4
I4
I1
I1
I4
I4
I1
I4
I1
I1
tp1921
I2
tp1922
F-1.0
s((I3
I0
I4
I4
I1
I1
I4
I4
I4
I0
I-3
tp1923
I3
tp1924
F-1.0
s((I1
I1
I0
I0
I4
I4
I1
I4
I0
I6
I-6
tp1925
I2
tp1926
F-1.0
s((I1
I4
I1
I4
I4
I4
I1
I4
I4
I-3
I-1
tp1927
I3
tp1928
F-1.0
s((I1
I1
I0
I4
I1
I0
I4
I1
I4
I4
I4
tp1929
I2
tp1930
F-1.0
s((I1
I4
I1
I4
I4
I4
I4
I4
I4
I-5
I-3
tp1931
I3
tp1932
F-1.0
s((I1
I4
I1
I4
I2
I4
I4
I1
I4
I-3
I3
tp1933
I3
tp1934
F-1.0
s((I3
I1
I2
I1
I1
I1
I0
I1
I1
I-2
I4
tp1935
I3
tp1936
F-1.0
s((I1
I4
I4
I1
I4
I4
I4
I4
I4
I13
I3
tp1937
I3
tp1938
F-1.0
s((I1
I1
I1
I4
I4
I1
I1
I4
I1
I5
I5
tp1939
I3
tp1940
F-1.95
s((I1
I4
I1
I1
I4
I4
I1
I4
I1
I6
I-2
tp1941
I1
tp1942
F-1.0
s((I2
I1
I3
I4
I1
I1
I3
I4
I4
I0
I-1
tp1943
I2
tp1944
F-1.0
s((I1
I4
I1
I4
I4
I4
I1
I4
I2
I1
I-6
tp1945
I1
tp1946
F-1.0
s((I0
I1
I4
I1
I1
I1
I1
I1
I4
I0
I1
tp1947
I0
tp1948
F-1.95
s((I1
I1
I1
I0
I1
I1
I1
I4
I1
I-2
I0
tp1949
I3
tp1950
F-3.709875
s((I3
I4
I0
I3
I1
I4
I4
I4
I1
I1
I0
tp1951
I1
tp1952
F-1.0
s((I1
I4
I4
I4
I1
I1
I1
I4
I4
I-2
I1
tp1953
I0
tp1954
F-1.0
s((I1
I1
I1
I1
I4
I4
I1
I4
I1
I-1
I3
tp1955
I3
tp1956
F-3.709875
s((I1
I1
I1
I0
I1
I1
I1
I4
I0
I-1
I0
tp1957
I0
tp1958
F-3.709875
s((I1
I4
I0
I1
I1
I4
I4
I1
I1
I0
I3
tp1959
I3
tp1960
F-1.0
s((I1
I1
I1
I1
I1
I1
I4
I0
I2
I-1
I0
tp1961
I0
tp1962
F-1.0
s((I1
I4
I1
I0
I4
I4
I4
I4
I4
I0
I6
tp1963
I0
tp1964
F-1.0
s((I1
I0
I1
I4
I4
I1
I1
I4
I4
I-4
I-1
tp1965
I3
tp1966
F-1.0
s((I1
I4
I4
I1
I0
I4
I4
I1
I4
I1
I3
tp1967
I1
tp1968
F-1.0
s((I1
I4
I4
I4
I1
I4
I4
I1
I4
I2
I7
tp1969
I2
tp1970
F-1.0
s((I1
I1
I1
I1
I1
I1
I1
I1
I4
I-2
I2
tp1971
I0
tp1972
F-2.8525
s((I1
I4
I1
I1
I1
I4
I1
I4
I3
I-6
I6
tp1973
I2
tp1974
F-4.524381249999999
s((I1
I4
I4
I1
I4
I4
I1
I4
I0
I-5
I1
tp1975
I2
tp1976
F-1.0
s((I1
I4
I3
I0
I1
I4
I4
I4
I3
I0
I0
tp1977
I1
tp1978
F-1.95
s((I1
I1
I4
I4
I4
I1
I4
I4
I4
I1
I-6
tp1979
I0
tp1980
F-1.0
s((I1
I1
I1
I4
I1
I1
I1
I1
I1
I-1
I2
tp1981
I3
tp1982
F-1.0
s((I3
I1
I1
I1
I1
I1
I1
I4
I1
I-2
I3
tp1983
I1
tp1984
F-3.709875
s((I3
I1
I0
I3
I1
I0
I4
I2
I1
I1
I0
tp1985
I1
tp1986
F-11.197466626964683
s((I3
I4
I4
I4
I1
I1
I4
I4
I4
I6
I3
tp1987
I1
tp1988
F-4.524381249999999
s((I1
I1
I1
I4
I4
I4
I1
I4
I4
I-10
I7
tp1989
I1
tp1990
F-1.0
s((I1
I1
I2
I1
I3
I1
I1
I4
I0
I-1
I-1
tp1991
I2
tp1992
F-1.0
s((I1
I4
I4
I4
I1
I1
I4
I1
I4
I8
I0
tp1993
I3
tp1994
F-1.0
s((I0
I1
I1
I1
I1
I3
I3
I1
I3
I0
I1
tp1995
I3
tp1996
F-1.95
s((I0
I4
I1
I1
I4
I4
I1
I4
I1
I-3
I5
tp1997
I1
tp1998
F19.0
s((I2
I4
I1
I1
I4
I4
I1
I4
I4
I-4
I3
tp1999
I2
tp2000
F-1.0
s((I1
I4
I4
I1
I4
I4
I4
I1
I4
I-1
I2
tp2001
I1
tp2002
F-1.0
s((I1
I4
I4
I1
I4
I4
I4
I1
I4
I-2
I4
tp2003
I2
tp2004
F-3.709875
s((I1
I2
I1
I4
I1
I1
I1
I4
I1
I12
I0
tp2005
I3
tp2006
F-1.95
s((I1
I1
I4
I1
I4
I4
I0
I4
I3
I-3
I10
tp2007
I3
tp2008
F-1.0
s((I1
I2
I4
I4
I1
I1
I1
I1
I4
I-1
I4
tp2009
I2
tp2010
F-1.0
s((I0
I0
I4
I1
I4
I1
I2
I4
I0
I9
I-1
tp2011
I1
tp2012
F-1.0
s((I0
I1
I1
I1
I1
I1
I4
I1
I1
I-8
I6
tp2013
I3
tp2014
F-1.0
s((I1
I1
I4
I1
I4
I4
I4
I4
I1
I5
I10
tp2015
I2
tp2016
F-1.95
s((I1
I4
I4
I4
I1
I4
I4
I4
I4
I1
I0
tp2017
I3
tp2018
F-1.0
s((I1
I1
I1
I4
I1
I4
I1
I4
I4
I-3
I-3
tp2019
I2
tp2020
F-1.0
s((I1
I4
I1
I4
I4
I4
I1
I4
I1
I4
I10
tp2021
I2
tp2022
F-1.0
s((I0
I2
I1
I3
I1
I1
I3
I1
I1
I0
I-2
tp2023
I1
tp2024
F-1.0
s((I1
I4
I1
I1
I2
I4
I1
I0
I4
I2
I5
tp2025
I0
tp2026
F-1.0
s((I1
I0
I4
I3
I1
I1
I4
I1
I4
I-2
I10
tp2027
I1
tp2028
F-6.731591374218749
s((I1
I1
I1
I1
I4
I1
I1
I4
I1
I-1
I0
tp2029
I0
tp2030
F-1.0
s((I0
I4
I4
I4
I0
I4
I4
I4
I4
I10
I0
tp2031
I0
tp2032
F19.0
s((I1
I1
I4
I4
I0
I0
I4
I4
I4
I2
I4
tp2033
I0
tp2034
F-1.0
s((I1
I4
I2
I1
I4
I1
I1
I1
I1
I-7
I4
tp2035
I3
tp2036
F-1.0
s((I1
I2
I4
I0
I4
I1
I4
I4
I4
I1
I-2
tp2037
I3
tp2038
F-1.0
s((I1
I1
I1
I4
I4
I4
I1
I4
I1
I-1
I1
tp2039
I1
tp2040
F-1.0
s((I1
I4
I0
I1
I1
I1
I4
I1
I0
I8
I0
tp2041
I3
tp2042
F-1.0
s((I1
I1
I2
I4
I0
I1
I1
I4
I4
I-1
I-1
tp2043
I1
tp2044
F-1.95
s((I1
I1
I0
I1
I4
I1
I0
I1
I1
I0
I1
tp2045
I2
tp2046
F-3.709875
s((I3
I2
I4
I4
I2
I2
I4
I4
I4
I5
I6
tp2047
I0
tp2048
F-1.95
s((I1
I1
I1
I1
I2
I4
I0
I1
I1
I-3
I3
tp2049
I0
tp2050
F-1.0
s((I1
I1
I1
I4
I1
I0
I2
I0
I4
I-2
I4
tp2051
I2
tp2052
F-1.0
s((I1
I1
I4
I1
I1
I4
I4
I1
I0
I-2
I3
tp2053
I1
tp2054
F-3.709875
s((I1
I1
I1
I1
I1
I1
I1
I1
I4
I0
I-3
tp2055
I2
tp2056
F-1.0
s((I1
I1
I4
I1
I1
I4
I1
I1
I1
I6
I6
tp2057
I2
tp2058
F-1.0
s((I2
I1
I1
I2
I2
I4
I1
I2
I2
I4
I8
tp2059
I1
tp2060
F-1.0
s((I1
I1
I1
I1
I1
I1
I1
I4
I1
I5
I6
tp2061
I2
tp2062
F-1.95
s((I1
I0
I4
I4
I3
I3
I4
I1
I4
I2
I-1
tp2063
I1
tp2064
F-3.709875
s((I1
I0
I4
I1
I0
I1
I4
I1
I4
I3
I6
tp2065
I1
tp2066
F-1.0
s((I1
I4
I1
I1
I4
I4
I4
I4
I0
I0
I3
tp2067
I0
tp2068
F-1.0
s((I1
I4
I1
I4
I4
I4
I1
I4
I1
I-1
I-1
tp2069
I2
tp2070
F-1.0
s((I1
I4
I4
I1
I4
I4
I4
I4
I4
I0
I7
tp2071
I2
tp2072
F-1.0
s((I2
I2
I2
I2
I2
I2
I1
I0
I3
I4
I7
tp2073
I2
tp2074
F-2.8525
s((I1
I4
I4
I1
I4
I4
I4
I1
I1
I-1
I15
tp2075
I2
tp2076
F-1.0
s((I1
I4
I4
I1
I0
I4
I4
I1
I4
I2
I3
tp2077
I2
tp2078
F-1.95
s((I1
I0
I1
I2
I4
I4
I4
I1
I1
I-3
I6
tp2079
I3
tp2080
F-1.0
s((I0
I4
I0
I1
I4
I4
I0
I0
I4
I-1
I-2
tp2081
I0
tp2082
F-1.0
s((I0
I1
I4
I4
I4
I1
I4
I4
I4
I2
I8
tp2083
I3
tp2084
F-1.0
s((I1
I1
I4
I1
I1
I1
I4
I1
I1
I1
I-1
tp2085
I1
tp2086
F-3.709875
s((I1
I4
I3
I1
I4
I4
I4
I1
I1
I-3
I11
tp2087
I0
tp2088
F-1.0
s((I1
I4
I4
I1
I4
I4
I4
I4
I4
I-3
I3
tp2089
I3
tp2090
F-1.0
s((I0
I4
I1
I4
I4
I4
I4
I4
I0
I-2
I-3
tp2091
I3
tp2092
F-11.0
s((I0
I1
I4
I1
I1
I1
I4
I1
I4
I1
I1
tp2093
I0
tp2094
F-1.0
s((I1
I0
I4
I4
I0
I1
I4
I4
I4
I6
I3
tp2095
I1
tp2096
F-1.0
s((I1
I4
I4
I1
I1
I4
I4
I1
I4
I14
I3
tp2097
I0
tp2098
F-1.0
s((I1
I2
I1
I4
I4
I4
I1
I1
I1
I-4
I2
tp2099
I2
tp2100
F-1.0
s((I1
I1
I1
I4
I4
I4
I1
I4
I4
I-1
I-1
tp2101
I0
tp2102
F-1.0
s((I0
I1
I4
I4
I0
I0
I4
I4
I4
I5
I7
tp2103
I0
tp2104
F-1.0
s((I1
I1
I1
I4
I1
I4
I2
I4
I4
I-2
I-1
tp2105
I0
tp2106
F-1.0
s((I1
I4
I1
I2
I4
I4
I4
I4
I1
I-4
I4
tp2107
I0
tp2108
F-1.0
s((I1
I1
I2
I1
I0
I1
I1
I4
I0
I-1
I-1
tp2109
I2
tp2110
F-1.95
s((I3
I4
I4
I1
I4
I4
I4
I1
I1
I2
I1
tp2111
I0
tp2112
F-1.0
s((I1
I1
I4
I1
I4
I4
I1
I4
I4
I-10
I4
tp2113
I3
tp2114
F-1.0
s((I0
I4
I4
I1
I4
I4
I4
I4
I4
I-1
I-4
tp2115
I0
tp2116
F-1.0
s((I0
I4
I3
I4
I4
I4
I1
I4
I1
I5
I-7
tp2117
I1
tp2118
F-1.0
s((I0
I0
I0
I4
I4
I0
I2
I0
I4
I4
I6
tp2119
I0
tp2120
F19.0
s((I1
I1
I4
I4
I1
I1
I4
I1
I4
I14
I2
tp2121
I0
tp2122
F-1.0
s((I1
I4
I4
I1
I4
I4
I4
I4
I4
I0
I2
tp2123
I1
tp2124
F-2.8525
s((I1
I0
I4
I4
I1
I1
I1
I4
I4
I10
I-3
tp2125
I2
tp2126
F-1.0
s((I1
I1
I4
I4
I4
I4
I4
I4
I4
I-1
I-5
tp2127
I0
tp2128
F-1.0
s((I1
I1
I4
I4
I1
I1
I1
I4
I4
I7
I4
tp2129
I0
tp2130
F-1.0
s((I1
I0
I4
I0
I1
I1
I4
I1
I4
I0
I2
tp2131
I3
tp2132
F-1.0
s((I1
I4
I4
I1
I1
I4
I4
I1
I4
I1
I7
tp2133
I2
tp2134
F-1.0
s((I1
I1
I1
I1
I4
I4
I0
I4
I3
I-3
I10
tp2135
I1
tp2136
F-1.0
s((I1
I4
I4
I1
I4
I4
I4
I4
I3
I-3
I10
tp2137
I0
tp2138
F-1.0
s((I1
I4
I4
I4
I1
I1
I4
I1
I4
I0
I-4
tp2139
I3
tp2140
F-1.0
s((I1
I4
I4
I0
I0
I4
I0
I4
I4
I-1
I-3
tp2141
I0
tp2142
F-1.0
s((I2
I2
I1
I4
I1
I1
I4
I4
I4
I-1
I5
tp2143
I2
tp2144
F-1.0
s((I1
I4
I1
I1
I1
I1
I4
I0
I1
I-1
I-3
tp2145
I0
tp2146
F-1.0
s((I0
I4
I4
I4
I0
I4
I4
I4
I4
I5
I3
tp2147
I0
tp2148
F-1.0
s((I1
I4
I4
I1
I3
I4
I4
I1
I4
I-1
I3
tp2149
I0
tp2150
F-1.0
s((I0
I1
I4
I4
I1
I0
I4
I4
I4
I13
I-4
tp2151
I3
tp2152
F-1.0
s((I1
I4
I4
I4
I2
I2
I4
I1
I4
I0
I5
tp2153
I2
tp2154
F-1.0
s((I1
I1
I4
I1
I1
I1
I4
I1
I1
I-1
I1
tp2155
I3
tp2156
F-1.0
s((I1
I4
I1
I1
I1
I4
I0
I1
I1
I13
I3
tp2157
I1
tp2158
F-5.298162187499999
s((I1
I1
I4
I1
I1
I4
I4
I4
I4
I3
I0
tp2159
I3
tp2160
F-1.0
s((I0
I1
I1
I4
I1
I1
I4
I4
I4
I2
I8
tp2161
I1
tp2162
F-1.95
s((I1
I1
I1
I1
I1
I1
I4
I1
I4
I1
I-2
tp2163
I1
tp2164
F-1.0
s((I3
I1
I3
I1
I1
I0
I1
I4
I1
I2
I3
tp2165
I3
tp2166
F-1.0
s((I1
I4
I4
I4
I0
I4
I4
I0
I4
I2
I5
tp2167
I2
tp2168
F-1.0
s((I1
I4
I1
I1
I1
I4
I4
I1
I1
I-1
I14
tp2169
I0
tp2170
F-1.0
s((I0
I4
I4
I1
I4
I4
I4
I4
I0
I-9
I8
tp2171
I2
tp2172
F-1.0
s((I1
I1
I4
I4
I4
I4
I4
I4
I4
I0
I-1
tp2173
I3
tp2174
F-1.0
s((I1
I4
I4
I0
I1
I4
I4
I1
I4
I-5
I6
tp2175
I2
tp2176
F-1.0
s((I1
I1
I4
I1
I1
I1
I1
I3
I0
I-1
I12
tp2177
I2
tp2178
F-1.95
s((I1
I4
I3
I2
I1
I4
I4
I4
I3
I0
I0
tp2179
I3
tp2180
F-1.0
s((I1
I4
I1
I0
I4
I4
I4
I4
I0
I-1
I0
tp2181
I1
tp2182
F-1.0
s((I1
I1
I4
I0
I4
I1
I1
I0
I4
I5
I4
tp2183
I3
tp2184
F-1.0
s((I1
I4
I1
I4
I4
I4
I4
I4
I4
I-4
I0
tp2185
I3
tp2186
F-1.0
s((I0
I1
I1
I1
I1
I1
I1
I4
I1
I-7
I15
tp2187
I3
tp2188
F-1.0
s((I1
I4
I1
I0
I4
I4
I4
I4
I1
I2
I10
tp2189
I0
tp2190
F-1.0
s((I1
I1
I3
I0
I3
I1
I3
I1
I1
I0
I2
tp2191
I0
tp2192
F-9.192798246747259
s((I1
I1
I4
I4
I4
I4
I1
I4
I4
I-1
I-3
tp2193
I2
tp2194
F-1.0
s((I2
I1
I3
I4
I4
I1
I3
I4
I4
I0
I-1
tp2195
I0
tp2196
F-1.0
s((I1
I1
I1
I4
I4
I1
I1
I4
I4
I2
I-1
tp2197
I0
tp2198
F-1.0
s((I2
I0
I2
I0
I0
I4
I1
I4
I0
I4
I7
tp2199
I2
tp2200
F-1.0
s((I1
I1
I2
I1
I3
I1
I1
I1
I0
I-1
I-1
tp2201
I2
tp2202
F-1.0
s((I2
I1
I0
I1
I1
I1
I1
I1
I4
I0
I1
tp2203
I2
tp2204
F-1.0
s((I1
I1
I1
I4
I1
I1
I1
I4
I4
I-2
I1
tp2205
I3
tp2206
F-1.95
s((I1
I4
I0
I1
I1
I4
I4
I0
I0
I0
I2
tp2207
I0
tp2208
F-1.0
s((I1
I1
I4
I4
I1
I4
I4
I1
I1
I-5
I11
tp2209
I3
tp2210
F-1.0
s((I1
I1
I1
I1
I1
I0
I1
I4
I2
I-7
I5
tp2211
I1
tp2212
F-1.0
s((I3
I4
I4
I4
I1
I4
I4
I4
I4
I1
I0
tp2213
I3
tp2214
F-1.0
s((I1
I4
I3
I4
I4
I4
I1
I4
I4
I0
I-3
tp2215
I3
tp2216
F-1.0
s((I1
I1
I1
I1
I1
I1
I3
I1
I4
I7
I5
tp2217
I3
tp2218
F-5.298162187499999
s((I1
I1
I0
I1
I1
I1
I4
I1
I1
I-2
I2
tp2219
I1
tp2220
F-5.298162187499999
s((I1
I1
I0
I1
I4
I4
I4
I4
I1
I5
I10
tp2221
I1
tp2222
F-1.0
s((I1
I4
I1
I4
I4
I4
I4
I4
I1
I-5
I5
tp2223
I0
tp2224
F-1.0
s((I1
I0
I4
I1
I4
I4
I4
I1
I4
I-2
I8
tp2225
I0
tp2226
F-1.0
s((I1
I1
I1
I1
I1
I4
I4
I4
I1
I0
I-1
tp2227
I2
tp2228
F-1.0
s((I1
I1
I4
I1
I1
I4
I4
I1
I0
I-2
I3
tp2229
I3
tp2230
F-1.0
s((I1
I1
I1
I4
I4
I1
I4
I4
I1
I0
I-5
tp2231
I1
tp2232
F-1.0
s((I1
I4
I0
I4
I4
I4
I4
I4
I4
I-7
I5
tp2233
I1
tp2234
F-1.0
s((I1
I1
I1
I4
I4
I1
I1
I4
I4
I2
I5
tp2235
I1
tp2236
F-1.0
s((I1
I4
I4
I4
I1
I4
I4
I4
I4
I2
I0
tp2237
I3
tp2238
F-1.95
s((I1
I4
I1
I4
I4
I4
I4
I4
I1
I12
I3
tp2239
I1
tp2240
F-1.0
s((I1
I1
I3
I0
I3
I1
I3
I1
I1
I0
I2
tp2241
I1
tp2242
F-9.192798246747259
s((I1
I1
I0
I3
I1
I4
I1
I1
I4
I1
I4
tp2243
I0
tp2244
F-6.033254078124999
s((I1
I1
I1
I4
I1
I1
I4
I4
I4
I6
I5
tp2245
I2
tp2246
F-1.0
s((I0
I4
I4
I1
I1
I1
I4
I2
I4
I-5
I5
tp2247
I0
tp2248
F-1.0
s((I0
I4
I1
I4
I4
I4
I4
I4
I1
I4
I9
tp2249
I1
tp2250
F19.0
s((I1
I4
I4
I4
I1
I1
I4
I1
I4
I1
I6
tp2251
I0
tp2252
F-1.0
s((I1
I1
I1
I1
I4
I4
I4
I4
I1
I-3
I4
tp2253
I2
tp2254
F-1.0
s((I1
I1
I4
I4
I4
I4
I4
I4
I4
I7
I-1
tp2255
I2
tp2256
F-1.0
s((I1
I4
I1
I1
I4
I4
I1
I4
I1
I-1
I-1
tp2257
I0
tp2258
F-1.0
s((I1
I4
I4
I1
I4
I4
I4
I4
I4
I0
I2
tp2259
I3
tp2260
F-1.95
s((I1
I1
I4
I4
I0
I1
I4
I4
I4
I14
I-4
tp2261
I0
tp2262
F-1.0
s((I1
I4
I1
I4
I4
I4
I1
I4
I1
I-4
I0
tp2263
I2
tp2264
F-1.0
s((I1
I1
I4
I4
I4
I4
I0
I4
I4
I0
I0
tp2265
I1
tp2266
F-1.0
s((I1
I4
I1
I4
I1
I4
I4
I4
I1
I12
I3
tp2267
I3
tp2268
F-1.0
s((I1
I1
I1
I1
I4
I1
I1
I4
I1
I-3
I-1
tp2269
I0
tp2270
F-2.8525
s((I1
I4
I1
I4
I3
I1
I4
I1
I1
I-4
I5
tp2271
I2
tp2272
F-1.0
s((I1
I4
I1
I4
I4
I4
I4
I4
I4
I-3
I3
tp2273
I1
tp2274
F-1.0
s((I1
I1
I4
I4
I1
I1
I4
I1
I4
I1
I6
tp2275
I0
tp2276
F-1.95
s((I1
I4
I4
I1
I1
I4
I4
I4
I4
I-1
I-3
tp2277
I1
tp2278
F-1.0
s((I0
I1
I4
I4
I4
I1
I4
I4
I4
I2
I-3
tp2279
I2
tp2280
F-1.0
s((I1
I1
I1
I1
I1
I1
I1
I1
I1
I-2
I-1
tp2281
I1
tp2282
F-1.95
s((I1
I4
I4
I1
I0
I4
I4
I1
I4
I3
I6
tp2283
I0
tp2284
F-1.0
s((I0
I4
I4
I4
I3
I4
I4
I4
I4
I2
I0
tp2285
I2
tp2286
F19.0
s((I1
I4
I1
I4
I4
I4
I4
I4
I4
I-3
I1
tp2287
I0
tp2288
F-1.95
s((I1
I1
I1
I1
I4
I1
I1
I2
I1
I13
I2
tp2289
I1
tp2290
F-1.0
s((I1
I1
I4
I4
I4
I4
I1
I4
I4
I-2
I0
tp2291
I0
tp2292
F-1.0
s((I1
I4
I4
I4
I1
I4
I4
I1
I4
I3
I5
tp2293
I0
tp2294
F-1.0
s((I1
I4
I4
I1
I2
I4
I4
I1
I1
I13
I1
tp2295
I0
tp2296
F-1.0
s((I1
I1
I3
I4
I4
I1
I1
I4
I4
I-1
I-1
tp2297
I0
tp2298
F-4.524381249999999
s((I1
I4
I1
I4
I1
I4
I4
I4
I4
I-6
I14
tp2299
I0
tp2300
F-1.0
s((I1
I3
I4
I3
I0
I1
I4
I1
I0
I1
I1
tp2301
I0
tp2302
F-3.709875
s((I1
I4
I1
I4
I4
I4
I4
I4
I4
I-5
I14
tp2303
I1
tp2304
F-1.0
s((I1
I1
I1
I4
I4
I1
I1
I4
I0
I-2
I0
tp2305
I2
tp2306
F-1.0
s((I1
I1
I4
I4
I4
I4
I4
I4
I4
I-10
I3
tp2307
I0
tp2308
F-1.0
s((I3
I1
I1
I1
I1
I0
I1
I1
I1
I-2
I11
tp2309
I0
tp2310
F-4.524381249999999
s((I1
I1
I1
I1
I1
I1
I3
I1
I1
I7
I5
tp2311
I1
tp2312
F-3.709875
s((I1
I1
I4
I0
I1
I1
I4
I1
I1
I2
I9
tp2313
I2
tp2314
F-1.0
s((I0
I4
I1
I4
I4
I4
I4
I4
I4
I-4
I3
tp2315
I2
tp2316
F19.0
s((I1
I1
I0
I1
I4
I1
I0
I4
I4
I0
I1
tp2317
I2
tp2318
F-2.8525
s((I1
I4
I0
I4
I4
I4
I4
I4
I1
I-4
I5
tp2319
I3
tp2320
F-1.0
s((I1
I4
I4
I4
I1
I1
I4
I4
I4
I4
I5
tp2321
I1
tp2322
F-1.0
s((I1
I1
I3
I4
I1
I0
I4
I1
I4
I5
I3
tp2323
I2
tp2324
F-1.0
s((I1
I1
I4
I4
I4
I4
I0
I4
I4
I-1
I-3
tp2325
I3
tp2326
F-1.0
s((I1
I1
I1
I1
I4
I4
I1
I3
I1
I3
I3
tp2327
I2
tp2328
F-1.0
s((I1
I1
I0
I1
I4
I1
I0
I1
I1
I0
I1
tp2329
I1
tp2330
F-1.0
s((I1
I4
I1
I0
I4
I4
I1
I4
I1
I-4
I0
tp2331
I3
tp2332
F-6.731591374218749
s((I2
I1
I4
I4
I1
I4
I4
I0
I4
I6
I8
tp2333
I1
tp2334
F-1.0
s((I1
I4
I4
I1
I4
I4
I4
I4
I4
I-2
I7
tp2335
I1
tp2336
F-1.0
s((I1
I1
I4
I4
I4
I4
I1
I4
I4
I-10
I4
tp2337
I2
tp2338
F-1.0
s((I2
I1
I4
I4
I1
I1
I4
I4
I4
I1
I-1
tp2339
I2
tp2340
F-1.0
s((I0
I1
I4
I1
I4
I0
I4
I4
I4
I6
I-2
tp2341
I3
tp2342
F-1.0
s((I1
I4
I4
I4
I1
I4
I4
I1
I4
I0
I2
tp2343
I2
tp2344
F-1.0
s((I1
I4
I4
I1
I1
I4
I4
I4
I1
I0
I7
tp2345
I0
tp2346
F-1.0
s((I1
I4
I1
I0
I0
I4
I4
I1
I3
I2
I4
tp2347
I2
tp2348
F-1.0
s((I2
I2
I2
I4
I1
I1
I2
I1
I2
I3
I7
tp2349
I2
tp2350
F-1.0
s((I1
I4
I0
I0
I3
I1
I4
I1
I4
I0
I2
tp2351
I3
tp2352
F-1.0
s((I1
I1
I1
I1
I4
I4
I1
I4
I3
I-3
I4
tp2353
I0
tp2354
F-1.0
s((I3
I1
I1
I1
I1
I1
I1
I1
I1
I8
I6
tp2355
I3
tp2356
F-2.8525
s((I1
I4
I0
I4
I4
I4
I4
I4
I4
I-7
I4
tp2357
I3
tp2358
F-1.0
s((I1
I1
I3
I1
I1
I1
I1
I1
I1
I7
I6
tp2359
I0
tp2360
F-1.0
s((I3
I3
I4
I1
I1
I1
I4
I0
I4
I1
I2
tp2361
I2
tp2362
F-4.524381249999999
s((I1
I1
I4
I1
I4
I1
I4
I4
I4
I-1
I-4
tp2363
I0
tp2364
F-1.0
s((I1
I0
I1
I3
I1
I1
I1
I1
I4
I-2
I10
tp2365
I0
tp2366
F-1.0
s((I1
I1
I1
I4
I1
I4
I1
I4
I1
I-1
I1
tp2367
I2
tp2368
F-1.0
s((I0
I0
I4
I4
I1
I1
I4
I1
I4
I1
I1
tp2369
I1
tp2370
F-2.8525
s((I3
I1
I1
I1
I1
I1
I1
I1
I0
I-1
I2
tp2371
I3
tp2372
F-8.623998154470799
s((I1
I1
I0
I1
I3
I1
I4
I1
I4
I-1
I11
tp2373
I0
tp2374
F-1.0
s((I1
I1
I4
I1
I1
I1
I4
I1
I0
I0
I3
tp2375
I1
tp2376
F-2.8525
s((I0
I4
I1
I1
I4
I1
I4
I1
I0
I-1
I2
tp2377
I1
tp2378
F-11.0
s((I3
I4
I4
I1
I4
I4
I4
I4
I1
I-2
I3
tp2379
I3
tp2380
F-1.0
s((I1
I4
I1
I1
I1
I1
I1
I1
I1
I-2
I2
tp2381
I0
tp2382
F-1.0
s((I1
I4
I4
I4
I0
I4
I4
I0
I4
I6
I0
tp2383
I2
tp2384
F-1.0
s((I1
I4
I4
I4
I1
I4
I4
I4
I4
I-2
I7
tp2385
I2
tp2386
F-1.0
s((I1
I2
I1
I1
I1
I0
I1
I1
I1
I-1
I3
tp2387
I0
tp2388
F-1.95
s((I1
I1
I2
I1
I4
I4
I1
I1
I1
I3
I1
tp2389
I0
tp2390
F-1.95
s((I0
I4
I4
I4
I1
I1
I4
I0
I4
I3
I5
tp2391
I1
tp2392
F-1.0
s((I1
I4
I4
I1
I4
I4
I4
I2
I1
I-3
I4
tp2393
I2
tp2394
F-1.0
s((I1
I1
I1
I1
I1
I4
I2
I1
I1
I-7
I3
tp2395
I0
tp2396
F-4.524381249999999
s((I1
I4
I4
I1
I1
I4
I4
I1
I0
I0
I-3
tp2397
I1
tp2398
F-1.0
s((I0
I4
I4
I1
I1
I1
I4
I1
I4
I6
I10
tp2399
I1
tp2400
F-1.0
s((I2
I0
I2
I2
I0
I4
I1
I4
I0
I4
I7
tp2401
I1
tp2402
F-1.0
s((I1
I1
I1
I1
I1
I1
I1
I1
I1
I-2
I0
tp2403
I0
tp2404
F-3.709875
s((I0
I4
I4
I1
I1
I4
I4
I4
I4
I2
I-1
tp2405
I1
tp2406
F-1.0
s((I1
I1
I1
I1
I4
I4
I1
I4
I1
I-3
I2
tp2407
I3
tp2408
F-4.524381249999999
s((I0
I4
I4
I1
I4
I4
I4
I4
I1
I-3
I7
tp2409
I2
tp2410
F-11.0
s((I1
I4
I1
I1
I4
I4
I4
I4
I1
I-1
I4
tp2411
I0
tp2412
F-1.95
s((I1
I4
I4
I1
I4
I4
I4
I4
I4
I-6
I16
tp2413
I1
tp2414
F-1.0
s((I1
I1
I4
I4
I1
I2
I4
I1
I4
I5
I0
tp2415
I1
tp2416
F-1.0
s((I1
I4
I1
I4
I4
I4
I4
I4
I1
I-2
I5
tp2417
I1
tp2418
F-1.0
s((I1
I4
I1
I4
I3
I4
I4
I3
I1
I3
I2
tp2419
I0
tp2420
F-1.0
s((I1
I4
I1
I1
I4
I4
I4
I1
I1
I-2
I1
tp2421
I2
tp2422
F-1.95
s((I3
I3
I1
I1
I2
I1
I0
I0
I4
I1
I-1
tp2423
I2
tp2424
F-1.95
s((I1
I4
I1
I4
I4
I4
I4
I4
I1
I-9
I8
tp2425
I1
tp2426
F-1.0
s((I1
I2
I4
I4
I4
I1
I1
I4
I4
I-1
I4
tp2427
I1
tp2428
F-1.0
s((I1
I1
I3
I1
I1
I1
I1
I1
I1
I7
I6
tp2429
I1
tp2430
F-2.8525
s((I1
I4
I0
I1
I0
I4
I4
I4
I1
I-1
I5
tp2431
I2
tp2432
F-2.8525
s((I1
I1
I3
I1
I1
I1
I1
I1
I4
I-1
I-1
tp2433
I0
tp2434
F-3.709875
s((I3
I4
I4
I3
I1
I4
I4
I1
I4
I1
I3
tp2435
I1
tp2436
F-1.0
s((I1
I4
I1
I4
I4
I4
I1
I4
I1
I-1
I6
tp2437
I3
tp2438
F-1.0
s((I0
I4
I1
I4
I1
I4
I4
I4
I1
I-6
I4
tp2439
I0
tp2440
F19.0
s((I1
I4
I1
I1
I4
I4
I4
I4
I1
I-3
I14
tp2441
I1
tp2442
F-1.0
s((I1
I3
I1
I1
I1
I1
I1
I1
I1
I8
I5
tp2443
I1
tp2444
F-2.8525
s((I1
I4
I1
I0
I4
I4
I4
I4
I1
I-1
I2
tp2445
I3
tp2446
F-1.0
s((I1
I1
I4
I4
I4
I1
I4
I4
I4
I14
I-1
tp2447
I1
tp2448
F-1.0
s((I1
I4
I1
I1
I4
I4
I1
I4
I0
I-5
I1
tp2449
I0
tp2450
F-1.0
s((I1
I4
I4
I4
I2
I2
I4
I4
I4
I0
I5
tp2451
I1
tp2452
F-1.0
s((I1
I4
I4
I0
I4
I4
I4
I1
I1
I-6
I5
tp2453
I2
tp2454
F-1.0
s((I0
I4
I1
I1
I1
I4
I0
I2
I1
I2
I6
tp2455
I1
tp2456
F-1.95
s((I1
I1
I1
I4
I1
I1
I1
I1
I4
I1
I5
tp2457
I1
tp2458
F-1.0
s((I1
I1
I1
I4
I1
I0
I4
I4
I4
I-6
I14
tp2459
I3
tp2460
F-1.0
s((I1
I4
I3
I4
I4
I4
I4
I4
I1
I-3
I9
tp2461
I0
tp2462
F-1.0
s((I1
I4
I1
I4
I4
I4
I1
I4
I4
I-6
I11
tp2463
I2
tp2464
F-1.0
s((I0
I4
I4
I4
I1
I4
I4
I1
I4
I1
I2
tp2465
I0
tp2466
F-1.0
s((I2
I4
I1
I4
I1
I4
I4
I1
I4
I12
I1
tp2467
I2
tp2468
F-1.0
s((I0
I1
I4
I1
I1
I1
I4
I1
I4
I0
I1
tp2469
I1
tp2470
F-1.0
s((I1
I4
I4
I1
I4
I4
I4
I1
I4
I1
I10
tp2471
I2
tp2472
F-1.0
s((I1
I1
I0
I1
I2
I1
I1
I1
I1
I-9
I6
tp2473
I1
tp2474
F-4.524381249999999
s((I1
I4
I1
I1
I1
I4
I4
I1
I1
I-2
I3
tp2475
I2
tp2476
F-5.298162187499999
s((I2
I4
I4
I1
I4
I4
I4
I1
I4
I4
I1
tp2477
I3
tp2478
F-1.0
s((I1
I4
I4
I1
I4
I4
I4
I4
I4
I-3
I3
tp2479
I2
tp2480
F-1.0
s((I1
I1
I1
I1
I4
I4
I1
I1
I1
I-3
I-2
tp2481
I3
tp2482
F-1.95
s((I1
I4
I0
I0
I4
I4
I4
I4
I0
I7
I9
tp2483
I1
tp2484
F-1.0
s((I0
I4
I1
I1
I4
I4
I4
I1
I1
I1
I3
tp2485
I2
tp2486
F-2.8525
s((I1
I4
I4
I4
I1
I4
I4
I0
I4
I1
I9
tp2487
I0
tp2488
F-1.0
s((I1
I4
I1
I1
I4
I4
I4
I1
I4
I4
I10
tp2489
I3
tp2490
F-5.298162187499999
s((I1
I1
I1
I1
I1
I4
I1
I4
I1
I-1
I1
tp2491
I0
tp2492
F-1.0
s((I2
I1
I4
I1
I1
I1
I4
I1
I4
I14
I-2
tp2493
I0
tp2494
F-1.0
s((I1
I4
I4
I1
I1
I4
I4
I2
I4
I2
I7
tp2495
I3
tp2496
F-1.0
s((I1
I4
I1
I1
I4
I4
I4
I1
I1
I-1
I14
tp2497
I1
tp2498
F-1.0
s((I1
I1
I1
I0
I4
I4
I1
I4
I1
I4
I9
tp2499
I3
tp2500
F-1.0
s((I0
I0
I4
I4
I0
I1
I1
I4
I4
I3
I4
tp2501
I2
tp2502
F-1.0
s((I1
I4
I1
I1
I1
I1
I4
I1
I1
I-2
I2
tp2503
I3
tp2504
F-1.0
s((I1
I1
I1
I4
I4
I0
I0
I4
I4
I1
I-2
tp2505
I1
tp2506
F-1.0
s((I1
I4
I4
I1
I4
I4
I4
I1
I4
I0
I3
tp2507
I0
tp2508
F-1.0
s((I1
I1
I1
I4
I0
I1
I1
I1
I4
I-2
I3
tp2509
I0
tp2510
F-1.0
s((I1
I1
I4
I1
I1
I1
I4
I1
I4
I1
I0
tp2511
I3
tp2512
F-1.0
s((I1
I4
I1
I1
I4
I4
I2
I4
I1
I-5
I2
tp2513
I3
tp2514
F-1.0
s((I1
I1
I4
I4
I4
I1
I4
I4
I4
I1
I-3
tp2515
I0
tp2516
F-1.0
s((I1
I1
I4
I4
I0
I1
I1
I1
I4
I-2
I3
tp2517
I0
tp2518
F-1.0
s((I0
I4
I4
I4
I1
I4
I4
I1
I4
I1
I2
tp2519
I2
tp2520
F-1.0
s((I1
I1
I1
I4
I4
I0
I0
I4
I4
I-9
I5
tp2521
I1
tp2522
F-1.0
s((I1
I4
I4
I1
I4
I4
I4
I0
I1
I-1
I3
tp2523
I1
tp2524
F-1.0
s((I0
I1
I1
I4
I1
I1
I4
I4
I4
I-8
I6
tp2525
I2
tp2526
F-1.0
s((I1
I4
I1
I4
I4
I4
I1
I4
I1
I-2
I5
tp2527
I1
tp2528
F-1.95
s((I1
I1
I4
I1
I4
I4
I4
I4
I4
I0
I6
tp2529
I1
tp2530
F-1.0
s((I1
I4
I4
I4
I1
I4
I4
I0
I4
I1
I6
tp2531
I1
tp2532
F-1.0
s((I1
I2
I4
I4
I4
I4
I1
I4
I4
I-4
I2
tp2533
I3
tp2534
F-1.0
s((I0
I4
I4
I0
I1
I1
I4
I0
I1
I-1
I5
tp2535
I2
tp2536
F-1.0
s((I3
I1
I4
I4
I4
I1
I4
I4
I4
I0
I-1
tp2537
I1
tp2538
F-1.0
s((I1
I0
I0
I1
I1
I1
I4
I4
I1
I9
I-2
tp2539
I2
tp2540
F-4.524381249999999
s((I1
I4
I4
I1
I1
I4
I4
I1
I1
I-1
I2
tp2541
I2
tp2542
F-5.298162187499999
s((I3
I4
I1
I1
I1
I4
I4
I1
I1
I-2
I11
tp2543
I1
tp2544
F-1.0
s((I1
I1
I2
I4
I0
I1
I1
I4
I4
I-1
I-1
tp2545
I0
tp2546
F-1.0
s((I1
I4
I4
I1
I4
I4
I4
I4
I4
I-9
I10
tp2547
I2
tp2548
F-1.0
s((I1
I1
I4
I1
I1
I1
I4
I4
I4
I1
I-2
tp2549
I0
tp2550
F-1.0
s((I1
I4
I0
I1
I4
I4
I4
I4
I1
I-1
I5
tp2551
I1
tp2552
F-1.0
s((I0
I4
I4
I3
I4
I4
I4
I4
I4
I-5
I7
tp2553
I3
tp2554
F19.0
s((I1
I1
I1
I1
I1
I4
I1
I0
I0
I1
I9
tp2555
I3
tp2556
F-1.95
s((I1
I1
I4
I4
I1
I4
I0
I4
I4
I0
I0
tp2557
I1
tp2558
F-8.02526121523242
s((I1
I1
I1
I1
I1
I2
I1
I4
I1
I-3
I2
tp2559
I1
tp2560
F-1.0
s((I2
I4
I1
I0
I1
I4
I4
I3
I1
I1
I5
tp2561
I2
tp2562
F-1.0
s((I0
I1
I1
I4
I4
I1
I4
I4
I4
I2
I8
tp2563
I1
tp2564
F-1.0
s((I1
I4
I1
I1
I0
I4
I4
I1
I0
I-1
I2
tp2565
I0
tp2566
F-1.0
s((I1
I1
I1
I1
I4
I4
I1
I4
I1
I-1
I5
tp2567
I1
tp2568
F-1.0
s((I1
I0
I4
I3
I1
I1
I4
I1
I4
I-2
I10
tp2569
I3
tp2570
F-1.0
s((I1
I4
I1
I4
I4
I4
I4
I4
I4
I11
I3
tp2571
I3
tp2572
F-1.0
s((I1
I1
I1
I1
I1
I1
I2
I1
I3
I-1
I0
tp2573
I1
tp2574
F-3.709875
s((I0
I4
I4
I1
I4
I4
I4
I1
I4
I8
I6
tp2575
I3
tp2576
F-1.0
s((I0
I1
I4
I4
I4
I0
I4
I4
I4
I6
I-2
tp2577
I2
tp2578
F-1.0
s((I1
I1
I1
I4
I4
I4
I1
I4
I4
I-2
I0
tp2579
I1
tp2580
F-1.0
s((I0
I1
I1
I4
I4
I1
I1
I4
I4
I-2
I-1
tp2581
I3
tp2582
F-2.8525
s((I0
I1
I1
I4
I4
I4
I1
I4
I4
I-4
I-1
tp2583
I0
tp2584
F-6.033254078124999
s((I1
I1
I1
I1
I4
I4
I1
I4
I4
I-10
I4
tp2585
I1
tp2586
F-1.0
s((I0
I4
I4
I1
I3
I2
I4
I4
I4
I6
I6
tp2587
I2
tp2588
F-1.95
s((I3
I3
I1
I4
I4
I1
I0
I4
I4
I1
I-1
tp2589
I0
tp2590
F-1.0
s((I1
I1
I1
I2
I4
I1
I1
I1
I1
I12
I2
tp2591
I1
tp2592
F-1.0
s((I1
I1
I4
I4
I1
I1
I4
I4
I4
I3
I5
tp2593
I3
tp2594
F-1.0
s((I0
I1
I4
I4
I4
I0
I4
I4
I4
I6
I2
tp2595
I2
tp2596
F-1.0
s((I1
I1
I0
I1
I4
I1
I0
I1
I4
I0
I1
tp2597
I3
tp2598
F-3.709875
s((I1
I4
I1
I4
I4
I4
I4
I4
I4
I-7
I14
tp2599
I3
tp2600
F-1.0
s((I1
I2
I1
I1
I1
I0
I1
I1
I1
I-1
I3
tp2601
I1
tp2602
F-2.8525
s((I1
I4
I1
I1
I4
I4
I1
I4
I4
I-6
I11
tp2603
I3
tp2604
F-1.0
s((I1
I4
I4
I0
I4
I4
I4
I1
I4
I2
I5
tp2605
I0
tp2606
F-1.0
s((I1
I1
I4
I4
I4
I4
I0
I4
I4
I0
I0
tp2607
I0
tp2608
F-1.95
s((I1
I1
I4
I4
I4
I4
I4
I4
I4
I7
I-2
tp2609
I2
tp2610
F-1.0
s((I1
I4
I4
I1
I0
I4
I4
I1
I4
I2
I3
tp2611
I1
tp2612
F-1.0
s((I1
I4
I1
I0
I4
I4
I4
I4
I1
I-2
I2
tp2613
I0
tp2614
F-1.0
s((I1
I2
I4
I4
I1
I1
I0
I4
I4
I0
I0
tp2615
I2
tp2616
F-1.0
s((I1
I4
I4
I1
I3
I1
I4
I1
I4
I9
I6
tp2617
I1
tp2618
F-9.192798246747259
s((I1
I4
I4
I1
I1
I4
I4
I1
I4
I0
I5
tp2619
I1
tp2620
F-1.0
s((I0
I1
I4
I1
I1
I1
I4
I2
I4
I-5
I5
tp2621
I2
tp2622
F-12.8525
s((I1
I4
I1
I4
I4
I4
I4
I4
I1
I-1
I4
tp2623
I3
tp2624
F-1.0
s((I1
I1
I1
I1
I1
I2
I0
I1
I4
I-9
I5
tp2625
I0
tp2626
F-5.298162187499999
s((I1
I1
I4
I4
I1
I1
I4
I4
I4
I1
I-2
tp2627
I2
tp2628
F-1.0
s((I1
I1
I1
I4
I1
I1
I1
I4
I4
I7
I4
tp2629
I3
tp2630
F-1.95
s((I1
I1
I1
I4
I4
I4
I4
I4
I4
I-3
I1
tp2631
I2
tp2632
F-1.0
s((I1
I1
I1
I4
I4
I1
I1
I4
I1
I0
I-2
tp2633
I3
tp2634
F-1.95
s((I1
I1
I4
I4
I4
I1
I4
I4
I4
I5
I7
tp2635
I1
tp2636
F-1.0
s((I1
I4
I1
I4
I4
I4
I1
I4
I4
I3
I-9
tp2637
I1
tp2638
F-1.0
s((I1
I4
I1
I1
I1
I1
I1
I4
I1
I5
I6
tp2639
I3
tp2640
F-1.95
s((I2
I1
I3
I4
I1
I1
I3
I4
I4
I0
I-1
tp2641
I3
tp2642
F-4.524381249999999
s((I0
I4
I1
I1
I4
I4
I4
I1
I1
I-1
I4
tp2643
I1
tp2644
F19.0
s((I1
I1
I4
I4
I4
I4
I4
I4
I4
I2
I-6
tp2645
I2
tp2646
F-1.0
s((I2
I0
I1
I1
I0
I1
I4
I1
I1
I-1
I4
tp2647
I1
tp2648
F-1.0
s((I1
I4
I1
I4
I4
I4
I4
I4
I1
I-1
I4
tp2649
I2
tp2650
F-1.0
s((I1
I4
I0
I4
I0
I4
I4
I1
I4
I0
I2
tp2651
I2
tp2652
F-1.0
s((I1
I4
I0
I1
I4
I4
I4
I1
I2
I2
I8
tp2653
I3
tp2654
F-1.0
s((I1
I1
I2
I1
I4
I1
I1
I1
I1
I3
I1
tp2655
I0
tp2656
F-3.709875
s((I2
I1
I3
I4
I4
I1
I3
I4
I4
I0
I-1
tp2657
I1
tp2658
F-1.0
s((I3
I4
I4
I3
I4
I4
I4
I4
I4
I2
I2
tp2659
I3
tp2660
F-1.0
s((I1
I4
I4
I0
I4
I4
I4
I1
I4
I-1
I7
tp2661
I2
tp2662
F-1.0
s((I1
I4
I4
I1
I1
I4
I4
I1
I1
I-1
I2
tp2663
I3
tp2664
F-1.0
s((I1
I4
I4
I1
I4
I4
I4
I0
I4
I-2
I6
tp2665
I3
tp2666
F-1.0
s((I1
I4
I1
I1
I1
I1
I4
I4
I1
I4
I8
tp2667
I1
tp2668
F-5.298162187499999
s((I1
I1
I1
I3
I0
I1
I1
I1
I1
I-2
I12
tp2669
I2
tp2670
F-4.524381249999999
s((I1
I4
I3
I4
I4
I4
I4
I4
I3
I0
I0
tp2671
I2
tp2672
F-1.0
s((I1
I4
I4
I4
I0
I1
I4
I4
I4
I1
I-1
tp2673
I3
tp2674
F-1.0
s((I1
I4
I4
I1
I4
I4
I4
I1
I1
I-1
I3
tp2675
I2
tp2676
F-1.0
s((I1
I1
I4
I4
I1
I1
I4
I4
I4
I-9
I3
tp2677
I3
tp2678
F-1.0
s((I1
I4
I4
I1
I1
I1
I4
I0
I1
I3
I9
tp2679
I3
tp2680
F-1.0
s((I1
I2
I4
I4
I4
I1
I1
I4
I4
I-1
I-1
tp2681
I1
tp2682
F-1.0
s((I1
I1
I4
I1
I3
I1
I4
I1
I4
I9
I6
tp2683
I1
tp2684
F-3.709875
s.