(dp0
((I2
I4
I1
I4
I4
I4
I4
I4
I4
I-6
I5
tp1
I0
tp2
F-1.0
s((I0
I4
I1
I1
I4
I4
I4
I4
I1
I0
I1
tp3
I1
tp4
F19.0
s((I1
I2
I1
I4
I4
I1
I1
I4
I1
I-4
I4
tp5
I1
tp6
F-1.0
s((I1
I1
I4
I0
I1
I1
I4
I4
I4
I-5
I-4
tp7
I3
tp8
F-1.0
s((I1
I4
I4
I1
I1
I4
I4
I1
I4
I-7
I9
tp9
I3
tp10
F-1.0
s((I1
I1
I0
I4
I4
I4
I1
I4
I4
I-6
I0
tp11
I2
tp12
F-1.0
s((I1
I4
I1
I1
I3
I1
I4
I1
I4
I-6
I-3
tp13
I3
tp14
F-1.95
s((I1
I4
I1
I2
I0
I4
I4
I1
I1
I-4
I6
tp15
I3
tp16
F-1.0
s((I1
I4
I4
I4
I1
I4
I4
I4
I4
I0
I0
tp17
I0
tp18
F-1.0
s((I1
I4
I1
I4
I4
I4
I0
I4
I0
I0
I4
tp19
I3
tp20
F-1.0
s((I1
I1
I4
I0
I1
I1
I4
I4
I4
I-5
I-4
tp21
I1
tp22
F-4.524381249999999
s((I3
I4
I3
I1
I1
I4
I4
I4
I0
I-3
I1
tp23
I0
tp24
F-1.0
s((I1
I4
I4
I1
I4
I4
I4
I4
I0
I-2
I6
tp25
I3
tp26
F-1.0
s((I1
I4
I1
I4
I4
I4
I4
I4
I1
I-1
I1
tp27
I2
tp28
F-1.0
s((I1
I1
I3
I1
I4
I4
I2
I4
I0
I-2
I5
tp29
I3
tp30
F-3.709875
s((I3
I0
I4
I0
I1
I1
I4
I1
I0
I-1
I5
tp31
I0
tp32
F-1.0
s((I1
I4
I4
I1
I4
I4
I4
I1
I4
I0
I1
tp33
I3
tp34
F-1.0
s((I1
I1
I4
I4
I1
I1
I1
I4
I4
I-1
I-1
tp35
I0
tp36
F-1.0
s((I1
I1
I0
I1
I4
I4
I4
I4
I0
I-2
I5
tp37
I0
tp38
F-6.731591374218749
s((I3
I4
I0
I1
I1
I4
I4
I4
I0
I-3
I1
tp39
I3
tp40
F-1.0
s((I0
I1
I4
I4
I4
I4
I1
I4
I4
I-5
I3
tp41
I2
tp42
F-11.0
s((I1
I4
I1
I4
I4
I4
I1
I4
I4
I-8
I3
tp43
I2
tp44
F-1.0
s((I2
I4
I0
I4
I3
I4
I4
I0
I1
I-1
I1
tp45
I1
tp46
F-1.0
s((I2
I4
I4
I3
I1
I4
I4
I1
I4
I-1
I6
tp47
I3
tp48
F-1.0
s((I0
I4
I1
I4
I4
I4
I4
I4
I4
I-2
I0
tp49
I2
tp50
F19.0
s((I1
I4
I1
I1
I4
I4
I0
I4
I1
I-6
I7
tp51
I1
tp52
F-1.0
s((I1
I4
I4
I0
I4
I4
I4
I4
I1
I-6
I5
tp53
I0
tp54
F-1.0
s((I0
I4
I1
I4
I4
I4
I1
I4
I1
I-4
I5
tp55
I1
tp56
F19.0
s((I1
I4
I1
I4
I2
I4
I4
I1
I4
I-1
I0
tp57
I3
tp58
F-1.0
s((I1
I4
I1
I1
I1
I1
I4
I4
I0
I-8
I8
tp59
I0
tp60
F-1.0
s((I1
I4
I4
I1
I4
I4
I4
I1
I1
I-7
I10
tp61
I0
tp62
F-1.0
s((I1
I4
I0
I1
I4
I4
I4
I4
I0
I-2
I6
tp63
I2
tp64
F-5.298162187499999
s((I1
I4
I1
I0
I4
I4
I4
I4
I1
I1
I4
tp65
I0
tp66
F-1.0
s((I1
I4
I4
I2
I4
I4
I4
I4
I1
I-6
I6
tp67
I3
tp68
F-1.0
s((I1
I4
I1
I1
I4
I4
I4
I0
I1
I2
I4
tp69
I1
tp70
F-1.0
s((I1
I4
I4
I0
I4
I4
I4
I4
I4
I-3
I3
tp71
I0
tp72
F-1.0
s((I1
I4
I4
I1
I4
I4
I4
I4
I0
I-8
I8
tp73
I1
tp74
F-1.0
s((I0
I4
I1
I4
I4
I4
I4
I4
I1
I-7
I7
tp75
I1
tp76
F-1.0
s((I0
I4
I1
I4
I4
I4
I1
I4
I4
I-3
I4
tp77
I1
tp78
F-1.0
s((I1
I4
I1
I1
I4
I4
I4
I1
I4
I-7
I4
tp79
I2
tp80
F-8.02526121523242
s((I1
I4
I4
I1
I4
I4
I4
I1
I4
I-5
I7
tp81
I0
tp82
F-1.0
s((I1
I1
I0
I4
I4
I4
I4
I4
I0
I-2
I5
tp83
I2
tp84
F-1.0
s((I1
I0
I4
I1
I4
I4
I4
I1
I4
I-5
I7
tp85
I1
tp86
F-1.0
s((I0
I1
I4
I4
I4
I4
I1
I4
I4
I-8
I2
tp87
I1
tp88
F-1.0
s((I1
I4
I4
I1
I4
I4
I4
I4
I1
I-1
I7
tp89
I3
tp90
F-1.0
s((I1
I1
I1
I4
I4
I4
I1
I4
I4
I-1
I0
tp91
I1
tp92
F-1.0
s((I0
I1
I4
I4
I4
I1
I1
I4
I4
I-5
I0
tp93
I3
tp94
F-11.0
s((I1
I4
I4
I1
I1
I4
I4
I2
I4
I-3
I6
tp95
I0
tp96
F-1.0
s((I0
I4
I0
I4
I4
I4
I4
I4
I4
I-4
I4
tp97
I1
tp98
F19.0
s((I1
I4
I4
I1
I1
I4
I4
I1
I4
I0
I7
tp99
I2
tp100
F-1.0
s((I1
I1
I1
I0
I0
I1
I1
I1
I1
I2
I3
tp101
I0
tp102
F-2.8525
s((I1
I4
I1
I1
I1
I4
I4
I1
I4
I-7
I9
tp103
I0
tp104
F-1.0
s((I1
I0
I1
I4
I4
I4
I1
I4
I0
I-6
I1
tp105
I2
tp106
F-1.0
s((I1
I4
I4
I4
I1
I4
I4
I4
I4
I-1
I6
tp107
I2
tp108
F-1.0
s((I1
I4
I1
I4
I4
I4
I4
I4
I4
I-1
I0
tp109
I1
tp110
F-1.0
s((I1
I4
I4
I4
I4
I4
I4
I4
I4
I0
I0
tp111
I1
tp112
F-1.0
s((I1
I4
I1
I4
I4
I4
I4
I4
I0
I-6
I4
tp113
I1
tp114
F-1.0
s((I2
I4
I1
I1
I4
I4
I1
I4
I1
I-9
I5
tp115
I0
tp116
F-1.0
s((I1
I1
I4
I1
I4
I2
I0
I4
I4
I-3
I4
tp117
I1
tp118
F-1.0
s((I0
I4
I4
I1
I4
I4
I4
I4
I1
I1
I5
tp119
I3
tp120
F-1.0
s((I1
I1
I1
I4
I0
I1
I3
I4
I4
I-4
I0
tp121
I3
tp122
F-7.395011805507812
s((I0
I4
I4
I1
I1
I4
I4
I2
I0
I-5
I6
tp123
I2
tp124
F-11.0
s((I1
I4
I4
I1
I4
I4
I4
I4
I1
I-9
I4
tp125
I3
tp126
F-1.0
s((I0
I4
I0
I1
I4
I4
I4
I4
I0
I-3
I1
tp127
I1
tp128
F-11.0
s((I1
I0
I1
I0
I4
I4
I1
I4
I1
I1
I4
tp129
I0
tp130
F-5.298162187499999
s((I1
I4
I4
I1
I4
I4
I4
I1
I4
I-3
I7
tp131
I2
tp132
F-1.0
s((I1
I1
I4
I4
I4
I4
I0
I4
I4
I-6
I-1
tp133
I1
tp134
F-1.0
s((I0
I4
I1
I4
I4
I4
I4
I4
I4
I-5
I3
tp135
I0
tp136
F-1.0
s((I1
I1
I4
I4
I4
I1
I4
I4
I4
I2
I0
tp137
I1
tp138
F-1.0
s((I0
I4
I1
I4
I4
I4
I0
I4
I4
I-6
I2
tp139
I2
tp140
F-11.0
s((I1
I4
I0
I4
I4
I4
I1
I4
I4
I-8
I-3
tp141
I1
tp142
F-1.0
s((I0
I1
I1
I1
I4
I4
I1
I4
I0
I1
I3
tp143
I3
tp144
F-2.8525
s((I1
I4
I4
I4
I1
I4
I4
I1
I4
I1
I1
tp145
I3
tp146
F-1.95
s((I1
I4
I4
I1
I4
I4
I4
I4
I4
I-3
I5
tp147
I0
tp148
F-1.0
s((I1
I4
I1
I4
I4
I4
I4
I4
I1
I-9
I8
tp149
I0
tp150
F-1.0
s((I1
I4
I4
I1
I4
I4
I4
I4
I0
I-2
I6
tp151
I2
tp152
F-6.033254078124999
s((I1
I1
I1
I4
I4
I4
I4
I4
I1
I-9
I8
tp153
I3
tp154
F-10.73417539680493
s((I0
I1
I4
I1
I1
I0
I4
I1
I4
I-6
I10
tp155
I2
tp156
F-1.0
s((I0
I4
I0
I4
I4
I4
I4
I4
I4
I-2
I1
tp157
I2
tp158
F-11.0
s((I1
I1
I0
I1
I4
I4
I0
I4
I0
I-2
I5
tp159
I3
tp160
F-1.0
s((I1
I4
I1
I4
I4
I4
I1
I4
I4
I-4
I3
tp161
I1
tp162
F-1.0
s((I0
I1
I0
I4
I1
I1
I1
I1
I4
I-2
I5
tp163
I1
tp164
F19.0
s((I1
I4
I4
I1
I1
I4
I4
I1
I4
I-5
I-3
tp165
I2
tp166
F-3.709875
s((I0
I4
I1
I1
I4
I4
I4
I1
I1
I1
I5
tp167
I3
tp168
F-1.95
s((I3
I4
I1
I1
I4
I4
I4
I1
I1
I1
I5
tp169
I1
tp170
F-1.0
s((I1
I4
I1
I1
I1
I4
I4
I1
I1
I1
I1
tp171
I0
tp172
F-1.95
s((I1
I4
I4
I1
I4
I4
I4
I1
I1
I1
I2
tp173
I0
tp174
F-1.0
s((I1
I1
I1
I4
I4
I4
I1
I4
I1
I-1
I5
tp175
I1
tp176
F-1.0
s((I1
I4
I4
I1
I4
I4
I4
I4
I1
I-9
I9
tp177
I2
tp178
F-1.0
s((I1
I4
I4
I0
I1
I4
I4
I1
I1
I-7
I8
tp179
I1
tp180
F-1.0
s((I1
I4
I1
I1
I4
I4
I4
I4
I4
I0
I1
tp181
I1
tp182
F-1.0
s((I1
I4
I0
I4
I0
I4
I4
I4
I4
I-5
I5
tp183
I1
tp184
F-1.0
s((I1
I1
I4
I4
I4
I4
I1
I4
I4
I-7
I3
tp185
I0
tp186
F-1.0
s((I0
I4
I4
I1
I4
I4
I4
I4
I4
I-7
I11
tp187
I3
tp188
F-1.0
s((I1
I1
I0
I4
I4
I4
I3
I4
I4
I-2
I4
tp189
I1
tp190
F-1.0
s((I1
I1
I4
I4
I1
I1
I4
I4
I4
I2
I0
tp191
I1
tp192
F-1.95
s((I1
I4
I4
I4
I1
I4
I4
I1
I0
I-6
I9
tp193
I1
tp194
F-1.0
s((I3
I4
I2
I0
I3
I4
I4
I1
I4
I-2
I1
tp195
I1
tp196
F-1.0
s((I0
I4
I4
I1
I4
I4
I4
I4
I1
I0
I4
tp197
I1
tp198
F-11.0
s((I1
I4
I1
I1
I1
I1
I4
I4
I0
I-8
I8
tp199
I1
tp200
F-10.2465004176894
s((I1
I4
I1
I4
I4
I4
I4
I4
I1
I0
I3
tp201
I0
tp202
F-1.0
s((I0
I4
I0
I4
I4
I4
I4
I4
I1
I-1
I4
tp203
I0
tp204
F-1.0
s((I1
I0
I4
I4
I4
I4
I1
I4
I4
I-6
I1
tp205
I3
tp206
F-1.0
s((I1
I4
I1
I4
I1
I4
I4
I1
I4
I1
I1
tp207
I1
tp208
F-1.0
s((I1
I4
I4
I4
I1
I4
I4
I4
I4
I1
I0
tp209
I0
tp210
F-1.0
s((I1
I4
I4
I1
I3
I1
I4
I1
I4
I-6
I-3
tp211
I3
tp212
F-1.0
s((I0
I4
I4
I3
I4
I4
I4
I1
I3
I-3
I2
tp213
I0
tp214
F-11.0
s((I1
I1
I1
I4
I1
I3
I1
I4
I0
I-6
I-4
tp215
I3
tp216
F-3.709875
s((I1
I0
I1
I0
I1
I4
I1
I4
I1
I1
I4
tp217
I0
tp218
F-1.0
s((I3
I2
I1
I0
I1
I1
I1
I1
I0
I-1
I5
tp219
I1
tp220
F-4.524381249999999
s((I1
I1
I4
I4
I4
I4
I4
I4
I4
I-3
I3
tp221
I1
tp222
F-1.0
s((I1
I1
I4
I1
I1
I4
I4
I2
I4
I-3
I6
tp223
I3
tp224
F-1.0
s((I1
I1
I4
I0
I1
I1
I4
I4
I4
I-5
I-4
tp225
I0
tp226
F-2.8525
s((I1
I1
I4
I4
I1
I4
I1
I4
I4
I-7
I3
tp227
I1
tp228
F-1.95
s((I1
I4
I4
I4
I1
I4
I4
I1
I4
I-5
I6
tp229
I0
tp230
F-1.0
s((I1
I1
I4
I4
I1
I1
I1
I1
I4
I0
I0
tp231
I3
tp232
F-1.0
s((I1
I1
I3
I1
I4
I1
I4
I4
I1
I0
I5
tp233
I1
tp234
F-1.0
s((I1
I4
I0
I4
I4
I4
I4
I4
I4
I-8
I7
tp235
I0
tp236
F-1.0
s((I1
I3
I0
I4
I1
I1
I3
I4
I4
I-3
I0
tp237
I1
tp238
F-8.02526121523242
s((I1
I1
I1
I4
I1
I0
I4
I4
I4
I-5
I1
tp239
I2
tp240
F-1.0
s((I1
I3
I4
I4
I4
I1
I4
I4
I4
I-7
I-4
tp241
I3
tp242
F-1.0
s((I1
I1
I1
I0
I1
I0
I4
I4
I1
I-5
I1
tp243
I1
tp244
F-1.0
s((I1
I1
I0
I4
I4
I4
I0
I4
I4
I-2
I4
tp245
I0
tp246
F-1.0
s((I1
I4
I1
I1
I4
I4
I4
I4
I0
I-9
I3
tp247
I0
tp248
F-1.0
s((I1
I4
I4
I1
I4
I4
I4
I1
I4
I3
I4
tp249
I1
tp250
F-1.0
s((I1
I1
I1
I4
I0
I1
I3
I4
I4
I-4
I0
tp251
I0
tp252
F-4.524381249999999
s((I0
I4
I4
I1
I4
I4
I4
I4
I4
I1
I3
tp253
I3
tp254
F-1.0
s((I1
I4
I4
I4
I4
I4
I4
I4
I4
I0
I0
tp255
I0
tp256
F-1.0
s((I1
I1
I4
I1
I4
I4
I4
I1
I1
I-8
I5
tp257
I1
tp258
F-1.0
s((I0
I4
I1
I1
I4
I4
I1
I4
I1
I-9
I5
tp259
I2
tp260
F19.0
s((I1
I4
I4
I4
I0
I4
I4
I1
I4
I2
I3
tp261
I2
tp262
F-1.0
s((I1
I0
I1
I0
I4
I4
I1
I4
I1
I1
I4
tp263
I1
tp264
F-1.0
s((I1
I0
I4
I4
I4
I4
I1
I4
I4
I-2
I-1
tp265
I0
tp266
F-1.0
s((I1
I1
I4
I4
I4
I4
I0
I4
I4
I-3
I4
tp267
I2
tp268
F-1.0
s((I1
I4
I0
I4
I4
I4
I4
I4
I4
I-5
I4
tp269
I3
tp270
F-1.0
s((I1
I1
I4
I0
I3
I2
I4
I0
I4
I0
I5
tp271
I1
tp272
F-1.0
s((I0
I0
I4
I4
I4
I4
I0
I4
I4
I-2
I0
tp273
I1
tp274
F19.0
s((I1
I1
I4
I4
I1
I4
I1
I4
I4
I-7
I3
tp275
I0
tp276
F-7.395011805507812
s((I3
I4
I0
I0
I3
I4
I4
I1
I4
I-2
I1
tp277
I3
tp278
F-1.0
s((I1
I4
I4
I4
I0
I1
I4
I1
I4
I3
I2
tp279
I0
tp280
F-1.0
s((I1
I1
I1
I4
I4
I2
I2
I4
I4
I-5
I4
tp281
I2
tp282
F-1.0
s((I1
I1
I1
I1
I1
I4
I1
I1
I4
I-1
I0
tp283
I3
tp284
F-1.0
s((I0
I4
I1
I4
I4
I4
I4
I4
I4
I-6
I5
tp285
I3
tp286
F19.0
s((I1
I4
I4
I1
I1
I4
I4
I4
I4
I2
I1
tp287
I2
tp288
F-3.709875
s((I1
I0
I4
I4
I4
I4
I1
I4
I4
I-7
I-2
tp289
I2
tp290
F-1.0
s((I1
I4
I1
I4
I4
I4
I4
I4
I4
I-9
I-3
tp291
I3
tp292
F-1.0
s((I0
I1
I4
I4
I4
I1
I4
I4
I4
I-1
I5
tp293
I1
tp294
F19.0
s((I1
I4
I4
I4
I1
I4
I4
I1
I4
I-5
I-3
tp295
I1
tp296
F-1.0
s((I1
I4
I0
I4
I4
I4
I4
I4
I0
I-2
I5
tp297
I0
tp298
F-1.0
s((I1
I0
I1
I0
I4
I4
I1
I4
I1
I1
I4
tp299
I2
tp300
F-1.0
s((I1
I1
I4
I1
I4
I4
I4
I4
I4
I-3
I5
tp301
I1
tp302
F-1.0
s((I1
I0
I0
I4
I2
I1
I4
I4
I4
I-5
I5
tp303
I3
tp304
F-1.0
s((I1
I4
I4
I1
I4
I4
I4
I1
I4
I1
I1
tp305
I1
tp306
F-1.0
s((I1
I4
I4
I4
I0
I4
I4
I1
I4
I-6
I11
tp307
I2
tp308
F-1.0
s((I0
I4
I1
I4
I4
I4
I1
I4
I4
I-2
I5
tp309
I1
tp310
F19.0
s((I1
I4
I4
I1
I4
I4
I4
I4
I4
I1
I3
tp311
I1
tp312
F-1.0
s((I1
I4
I4
I1
I4
I4
I4
I4
I4
I-6
I6
tp313
I3
tp314
F-1.0
s((I1
I1
I4
I4
I4
I4
I1
I4
I4
I-7
I3
tp315
I1
tp316
F-1.0
s((I1
I2
I1
I4
I4
I1
I1
I4
I1
I-4
I4
tp317
I0
tp318
F-2.8525
s((I1
I4
I4
I4
I1
I3
I4
I4
I4
I-6
I-4
tp319
I0
tp320
F-1.0
s((I1
I4
I0
I4
I4
I4
I1
I4
I4
I-9
I2
tp321
I0
tp322
F-1.0
s((I1
I0
I4
I4
I4
I4
I4
I4
I1
I-5
I2
tp323
I1
tp324
F-1.0
s((I0
I4
I1
I1
I4
I4
I4
I4
I1
I1
I5
tp325
I2
tp326
F-6.033254078124999
s((I1
I4
I0
I4
I4
I4
I4
I4
I4
I-3
I5
tp327
I2
tp328
F-1.0
s((I1
I4
I4
I0
I4
I4
I4
I4
I1
I-5
I4
tp329
I1
tp330
F-1.0
s((I0
I4
I4
I0
I4
I4
I4
I4
I0
I-1
I5
tp331
I1
tp332
F-1.0
s((I1
I4
I4
I1
I4
I4
I4
I4
I4
I-3
I4
tp333
I0
tp334
F-1.0
s((I1
I4
I4
I1
I0
I4
I4
I1
I1
I2
I5
tp335
I1
tp336
F-2.8525
s((I0
I1
I4
I1
I1
I0
I4
I1
I4
I2
I2
tp337
I3
tp338
F-11.0
s((I1
I4
I3
I1
I4
I4
I4
I4
I1
I0
I5
tp339
I0
tp340
F-1.0
s((I2
I4
I1
I1
I4
I4
I4
I4
I4
I-2
I0
tp341
I3
tp342
F-1.0
s((I1
I4
I0
I4
I4
I4
I4
I4
I1
I-4
I1
tp343
I3
tp344
F-1.0
s((I1
I1
I4
I4
I1
I1
I1
I4
I4
I1
I0
tp345
I3
tp346
F-1.0
s((I1
I1
I1
I4
I1
I1
I1
I4
I4
I1
I0
tp347
I0
tp348
F-1.95
s((I1
I4
I4
I4
I1
I4
I4
I4
I4
I2
I1
tp349
I1
tp350
F-1.0
s((I1
I4
I4
I4
I1
I1
I4
I1
I4
I-2
I6
tp351
I3
tp352
F-1.0
s((I1
I4
I0
I4
I1
I4
I1
I4
I4
I-8
I-3
tp353
I3
tp354
F-1.0
s((I0
I1
I4
I4
I4
I1
I4
I4
I4
I-5
I-5
tp355
I0
tp356
F-11.0
s((I1
I0
I1
I1
I4
I4
I1
I4
I1
I-9
I4
tp357
I0
tp358
F-1.0
s((I1
I1
I0
I1
I2
I1
I1
I4
I4
I-3
I5
tp359
I2
tp360
F-1.0
s((I1
I4
I4
I1
I4
I4
I4
I4
I4
I-8
I6
tp361
I2
tp362
F-1.0
s((I1
I1
I4
I1
I1
I1
I4
I4
I3
I0
I6
tp363
I2
tp364
F-1.0
s((I0
I4
I1
I4
I4
I4
I4
I4
I4
I-6
I4
tp365
I0
tp366
F-11.0
s((I1
I4
I1
I4
I4
I4
I1
I4
I4
I-8
I3
tp367
I3
tp368
F-1.0
s((I1
I1
I4
I4
I4
I4
I1
I4
I4
I-2
I-1
tp369
I3
tp370
F-1.0
s((I0
I4
I0
I4
I4
I4
I4
I4
I1
I-1
I1
tp371
I1
tp372
F19.0
s((I0
I4
I4
I1
I4
I4
I4
I4
I4
I-5
I8
tp373
I2
tp374
F19.0
s((I2
I1
I1
I1
I1
I0
I1
I4
I1
I-4
I5
tp375
I2
tp376
F-3.709875
s((I1
I1
I1
I1
I1
I0
I4
I0
I1
I2
I4
tp377
I2
tp378
F-2.8525
s((I3
I1
I4
I4
I1
I4
I4
I4
I4
I-7
I-3
tp379
I2
tp380
F-1.0
s((I0
I0
I4
I0
I1
I1
I4
I1
I0
I-1
I5
tp381
I1
tp382
F-11.0
s((I1
I4
I1
I4
I4
I4
I1
I4
I4
I-2
I0
tp383
I2
tp384
F-1.0
s((I1
I1
I0
I1
I4
I4
I0
I4
I0
I-2
I5
tp385
I0
tp386
F-4.524381249999999
s((I1
I4
I4
I4
I2
I4
I4
I3
I4
I0
I6
tp387
I2
tp388
F-1.0
s((I1
I4
I4
I4
I1
I4
I4
I4
I4
I2
I1
tp389
I2
tp390
F-1.0
s((I1
I4
I4
I4
I4
I4
I4
I4
I4
I0
I0
tp391
I3
tp392
F-1.0
s((I0
I1
I4
I4
I4
I4
I4
I4
I4
I-7
I-3
tp393
I1
tp394
F-11.0
s((I1
I4
I4
I1
I4
I4
I4
I4
I4
I-3
I6
tp395
I2
tp396
F-1.0
s((I1
I4
I1
I4
I4
I4
I4
I4
I1
I-1
I6
tp397
I0
tp398
F-1.0
s((I1
I4
I0
I4
I4
I4
I0
I4
I4
I-3
I0
tp399
I0
tp400
F-1.0
s((I1
I4
I4
I1
I1
I4
I4
I0
I4
I3
I3
tp401
I0
tp402
F-1.0
s((I0
I4
I4
I0
I1
I4
I4
I1
I4
I-1
I6
tp403
I2
tp404
F19.0
s((I1
I4
I2
I4
I4
I4
I4
I4
I4
I-5
I4
tp405
I1
tp406
F-1.0
s((I1
I4
I4
I1
I4
I4
I4
I4
I4
I0
I1
tp407
I3
tp408
F-1.95
s((I1
I1
I1
I1
I1
I0
I4
I0
I1
I2
I4
tp409
I1
tp410
F-1.95
s((I1
I4
I4
I1
I4
I4
I4
I4
I3
I0
I6
tp411
I1
tp412
F-1.0
s((I1
I4
I3
I1
I1
I1
I0
I0
I1
I-4
I1
tp413
I1
tp414
F-1.0
s((I2
I4
I0
I4
I1
I4
I4
I4
I4
I-4
I4
tp415
I1
tp416
F-1.0
s((I2
I4
I1
I4
I1
I0
I1
I4
I1
I-4
I5
tp417
I0
tp418
F-1.0
s((I1
I4
I1
I1
I4
I4
I4
I4
I4
I-7
I4
tp419
I2
tp420
F-1.95
s((I1
I4
I4
I1
I1
I4
I4
I1
I1
I-8
I9
tp421
I3
tp422
F-1.0
s((I1
I4
I1
I4
I4
I4
I4
I4
I4
I-7
I4
tp423
I2
tp424
F-1.0
s((I0
I4
I1
I1
I4
I4
I4
I1
I1
I1
I5
tp425
I2
tp426
F-11.95
s((I1
I4
I4
I1
I1
I1
I4
I4
I0
I-8
I8
tp427
I3
tp428
F-1.0
s((I0
I4
I1
I4
I4
I4
I1
I4
I4
I-7
I-1
tp429
I2
tp430
F-11.0
s((I1
I1
I3
I1
I4
I4
I2
I4
I0
I-2
I5
tp431
I2
tp432
F-1.0
s((I1
I4
I3
I1
I1
I1
I0
I0
I1
I-4
I1
tp433
I2
tp434
F-3.709875
s((I1
I4
I0
I4
I4
I4
I4
I4
I4
I-5
I5
tp435
I1
tp436
F-1.0
s((I1
I4
I4
I4
I1
I4
I4
I1
I4
I-5
I-3
tp437
I2
tp438
F-1.0
s((I1
I0
I1
I0
I4
I4
I1
I4
I1
I1
I4
tp439
I3
tp440
F-1.95
s((I1
I1
I4
I4
I1
I1
I4
I4
I4
I-5
I-4
tp441
I2
tp442
F-1.0
s((I1
I4
I4
I1
I4
I4
I4
I1
I1
I-8
I5
tp443
I0
tp444
F-1.0
s((I1
I4
I1
I1
I1
I4
I4
I1
I1
I-8
I4
tp445
I0
tp446
F-1.0
s((I1
I1
I4
I4
I4
I1
I4
I4
I4
I2
I0
tp447
I0
tp448
F-2.8525
s((I1
I4
I4
I4
I1
I1
I4
I0
I4
I-4
I-4
tp449
I2
tp450
F-1.0
s.