(dp0
((I1
I4
I1
I1
I1
I4
I4
I4
I1
I1
I0
tp1
I1
tp2
F-1.0
s((I1
I4
I4
I1
I4
I4
I4
I4
I0
I-2
I6
tp3
I3
tp4
F-1.0
s((I1
I4
I1
I1
I3
I1
I4
I1
I4
I-6
I-3
tp5
I3
tp6
F-1.95
s((I1
I4
I1
I2
I0
I4
I4
I1
I1
I-4
I6
tp7
I3
tp8
F-1.0
s((I3
I4
I4
I4
I1
I1
I4
I1
I4
I4
I0
tp9
I1
tp10
F-1.0
s((I0
I4
I1
I4
I4
I4
I1
I4
I4
I-2
I5
tp11
I1
tp12
F19.0
s((I1
I4
I1
I4
I4
I4
I4
I4
I1
I-1
I1
tp13
I2
tp14
F-1.0
s((I2
I1
I4
I2
I4
I4
I4
I0
I4
I2
I-2
tp15
I3
tp16
F-1.0
s((I1
I4
I4
I0
I1
I4
I4
I1
I1
I7
I-3
tp17
I0
tp18
F-1.0
s((I0
I4
I1
I4
I4
I4
I4
I4
I4
I-2
I0
tp19
I2
tp20
F19.0
s((I1
I4
I1
I1
I4
I4
I0
I4
I1
I-6
I7
tp21
I1
tp22
F-1.0
s((I1
I4
I4
I0
I4
I4
I4
I4
I1
I-6
I5
tp23
I0
tp24
F-1.0
s((I1
I4
I4
I1
I4
I4
I4
I4
I2
I4
I-6
tp25
I0
tp26
F-1.0
s((I1
I4
I1
I0
I4
I4
I4
I4
I1
I1
I4
tp27
I0
tp28
F-1.0
s((I1
I4
I1
I1
I4
I4
I4
I0
I1
I2
I4
tp29
I1
tp30
F-1.0
s((I0
I4
I4
I4
I0
I4
I4
I4
I4
I1
I-3
tp31
I3
tp32
F-1.0
s((I1
I1
I1
I4
I4
I4
I1
I4
I4
I-1
I0
tp33
I1
tp34
F-1.0
s((I0
I1
I4
I4
I4
I1
I1
I4
I4
I-5
I0
tp35
I3
tp36
F-11.0
s((I1
I4
I1
I4
I4
I4
I4
I4
I1
I-9
I8
tp37
I0
tp38
F-1.0
s((I1
I4
I1
I4
I4
I4
I4
I4
I0
I-6
I4
tp39
I1
tp40
F-1.0
s((I1
I1
I1
I2
I4
I1
I1
I4
I0
I2
I-1
tp41
I1
tp42
F-1.0
s((I1
I1
I4
I4
I1
I4
I1
I4
I4
I-7
I3
tp43
I1
tp44
F-1.95
s((I0
I4
I1
I1
I4
I4
I4
I4
I1
I1
I5
tp45
I2
tp46
F-6.033254078124999
s((I1
I4
I4
I4
I2
I1
I4
I4
I4
I-1
I-3
tp47
I3
tp48
F-1.0
s((I3
I4
I1
I1
I4
I4
I4
I1
I1
I1
I5
tp49
I1
tp50
F-1.0
s((I1
I4
I1
I1
I1
I4
I4
I1
I1
I1
I1
tp51
I0
tp52
F-1.95
s((I1
I1
I4
I1
I4
I4
I4
I1
I4
I3
I0
tp53
I1
tp54
F-1.0
s((I3
I2
I1
I0
I1
I1
I1
I1
I0
I-1
I5
tp55
I1
tp56
F-4.524381249999999
s((I0
I0
I4
I4
I4
I4
I1
I4
I4
I-3
I-3
tp57
I3
tp58
F-1.0
s((I0
I1
I1
I4
I4
I4
I1
I4
I4
I3
I-7
tp59
I2
tp60
F19.0
s((I2
I1
I0
I2
I4
I4
I1
I0
I0
I2
I-2
tp61
I0
tp62
F-3.709875
s((I1
I4
I1
I4
I1
I4
I4
I4
I4
I5
I-3
tp63
I1
tp64
F-1.0
s((I1
I4
I1
I4
I4
I4
I1
I4
I4
I-1
I-1
tp65
I2
tp66
F-1.0
s((I1
I4
I1
I4
I1
I4
I4
I1
I4
I1
I1
tp67
I1
tp68
F-1.0
s((I1
I4
I4
I1
I3
I1
I4
I1
I4
I-6
I-3
tp69
I3
tp70
F-1.0
s((I2
I4
I1
I1
I4
I4
I1
I4
I4
I5
I-7
tp71
I1
tp72
F-1.0
s((I1
I0
I1
I0
I1
I4
I1
I4
I1
I1
I4
tp73
I0
tp74
F-1.0
s((I1
I4
I0
I4
I4
I4
I0
I4
I1
I3
I-5
tp75
I3
tp76
F-1.0
s((I1
I4
I4
I4
I1
I4
I4
I1
I4
I-5
I6
tp77
I0
tp78
F-1.0
s((I1
I1
I1
I4
I1
I1
I3
I4
I4
I-2
I-1
tp79
I2
tp80
F-1.0
s((I1
I4
I0
I4
I4
I4
I4
I4
I4
I-8
I7
tp81
I0
tp82
F-1.0
s((I1
I2
I1
I4
I0
I1
I1
I4
I4
I5
I-8
tp83
I2
tp84
F-1.0
s((I1
I1
I0
I4
I4
I4
I0
I4
I4
I-2
I4
tp85
I0
tp86
F-1.0
s((I1
I4
I1
I4
I4
I4
I1
I4
I4
I-4
I3
tp87
I1
tp88
F-1.0
s((I1
I4
I0
I4
I4
I4
I1
I4
I1
I2
I-9
tp89
I2
tp90
F-1.0
s((I0
I4
I2
I4
I4
I4
I0
I4
I4
I-4
I-11
tp91
I3
tp92
F-1.0
s((I1
I1
I1
I4
I0
I1
I3
I4
I4
I-4
I0
tp93
I0
tp94
F-4.524381249999999
s((I0
I4
I4
I1
I4
I4
I4
I4
I4
I1
I3
tp95
I3
tp96
F-1.0
s((I1
I1
I4
I1
I4
I4
I4
I1
I1
I-8
I5
tp97
I1
tp98
F-1.0
s((I0
I4
I4
I1
I4
I4
I4
I1
I4
I7
I-2
tp99
I3
tp100
F19.0
s((I0
I4
I4
I1
I4
I4
I4
I4
I4
I-7
I11
tp101
I3
tp102
F-1.0
s((I0
I4
I4
I4
I1
I1
I4
I4
I4
I7
I-4
tp103
I3
tp104
F-1.0
s((I3
I4
I0
I0
I3
I4
I4
I1
I4
I-2
I1
tp105
I3
tp106
F-1.0
s((I1
I1
I1
I4
I4
I2
I2
I4
I4
I-5
I4
tp107
I2
tp108
F-1.0
s((I2
I1
I0
I2
I4
I1
I1
I0
I0
I2
I-2
tp109
I2
tp110
F-2.8525
s((I1
I1
I4
I4
I0
I1
I1
I4
I4
I5
I-4
tp111
I3
tp112
F-1.0
s((I0
I0
I4
I4
I4
I0
I4
I4
I4
I2
I-4
tp113
I0
tp114
F19.0
s((I1
I4
I4
I1
I1
I4
I4
I1
I1
I4
I-2
tp115
I2
tp116
F-1.0
s((I0
I1
I4
I4
I4
I1
I4
I4
I4
I-1
I5
tp117
I1
tp118
F19.0
s((I0
I4
I4
I4
I1
I4
I4
I4
I4
I9
I-2
tp119
I2
tp120
F-1.0
s((I1
I1
I1
I4
I4
I1
I3
I4
I4
I-2
I-1
tp121
I1
tp122
F-1.0
s((I1
I4
I4
I4
I0
I4
I4
I1
I4
I-6
I11
tp123
I2
tp124
F-1.0
s((I3
I4
I3
I1
I1
I4
I4
I4
I0
I-3
I1
tp125
I0
tp126
F-1.0
s((I1
I4
I4
I1
I4
I4
I4
I4
I4
I-6
I6
tp127
I3
tp128
F-1.0
s((I2
I4
I0
I4
I3
I4
I4
I0
I1
I-1
I1
tp129
I1
tp130
F-1.0
s((I1
I4
I4
I1
I4
I4
I4
I3
I1
I0
I1
tp131
I2
tp132
F-1.0
s((I0
I4
I0
I4
I4
I4
I4
I4
I4
I-4
I4
tp133
I1
tp134
F19.0
s((I1
I1
I4
I4
I1
I1
I4
I4
I4
I3
I-3
tp135
I3
tp136
F-1.0
s((I1
I4
I4
I4
I0
I4
I4
I4
I4
I0
I0
tp137
I1
tp138
F-1.0
s((I1
I4
I0
I4
I4
I4
I1
I4
I4
I-9
I2
tp139
I0
tp140
F-1.0
s((I1
I0
I4
I4
I4
I4
I4
I4
I1
I-5
I2
tp141
I1
tp142
F-1.0
s((I1
I0
I4
I1
I4
I1
I0
I4
I2
I4
I-6
tp143
I1
tp144
F-1.0
s((I1
I4
I0
I4
I4
I4
I4
I4
I4
I-3
I5
tp145
I2
tp146
F-1.0
s((I0
I4
I4
I0
I4
I4
I4
I4
I0
I-1
I5
tp147
I1
tp148
F-1.0
s((I0
I1
I4
I1
I1
I0
I4
I1
I4
I2
I2
tp149
I3
tp150
F-11.0
s((I1
I1
I4
I4
I1
I2
I0
I4
I4
I6
I-8
tp151
I1
tp152
F-1.0
s((I1
I1
I3
I1
I4
I4
I2
I4
I0
I-2
I5
tp153
I2
tp154
F-1.0
s((I1
I4
I4
I4
I1
I1
I4
I1
I4
I-2
I6
tp155
I3
tp156
F-1.0
s((I1
I0
I4
I4
I4
I4
I1
I4
I4
I-2
I-1
tp157
I0
tp158
F-1.0
s((I1
I1
I1
I2
I1
I1
I1
I4
I0
I2
I-1
tp159
I1
tp160
F-3.709875
s((I0
I4
I0
I4
I4
I4
I4
I4
I1
I-1
I1
tp161
I1
tp162
F19.0
s((I1
I1
I4
I4
I4
I4
I4
I4
I4
I7
I-6
tp163
I1
tp164
F-1.0
s((I0
I4
I4
I4
I1
I4
I4
I4
I4
I0
I-3
tp165
I3
tp166
F19.0
s((I1
I1
I4
I1
I1
I4
I4
I1
I4
I3
I0
tp167
I3
tp168
F-1.0
s((I1
I4
I4
I4
I2
I4
I4
I3
I4
I0
I6
tp169
I2
tp170
F-1.0
s((I3
I4
I1
I4
I1
I0
I4
I4
I4
I-1
I0
tp171
I2
tp172
F-1.0
s((I1
I1
I4
I4
I1
I1
I4
I4
I4
I6
I-4
tp173
I3
tp174
F-1.0
s((I1
I4
I0
I4
I4
I4
I4
I4
I4
I-5
I4
tp175
I3
tp176
F-1.0
s((I1
I4
I1
I4
I1
I4
I4
I4
I4
I2
I-3
tp177
I0
tp178
F-1.0
s((I0
I1
I1
I0
I4
I4
I1
I4
I0
I-3
I-2
tp179
I3
tp180
F16.290125
s((I1
I4
I4
I4
I1
I4
I4
I4
I4
I5
I-3
tp181
I3
tp182
F-1.0
s((I1
I4
I4
I4
I1
I1
I4
I4
I4
I4
I-3
tp183
I3
tp184
F-1.0
s((I1
I3
I4
I4
I4
I1
I1
I4
I4
I-1
I-1
tp185
I0
tp186
F-1.0
s((I0
I4
I4
I1
I4
I4
I4
I4
I3
I-2
I1
tp187
I1
tp188
F-1.0
s((I0
I1
I4
I4
I4
I1
I4
I4
I4
I7
I-7
tp189
I1
tp190
F-1.0
s((I1
I4
I4
I1
I4
I4
I4
I1
I4
I3
I0
tp191
I0
tp192
F-1.0
s((I1
I4
I4
I1
I4
I4
I4
I4
I4
I-3
I4
tp193
I0
tp194
F-1.0
s((I1
I0
I1
I0
I4
I4
I1
I4
I1
I1
I4
tp195
I3
tp196
F-1.95
s((I0
I4
I1
I4
I4
I4
I1
I4
I4
I1
I-10
tp197
I1
tp198
F19.0
s((I1
I1
I1
I4
I1
I1
I4
I4
I4
I4
I-3
tp199
I2
tp200
F-1.0
s((I1
I1
I4
I4
I4
I1
I4
I4
I4
I2
I0
tp201
I0
tp202
F-2.8525
s((I1
I2
I1
I4
I4
I1
I1
I4
I1
I-4
I4
tp203
I1
tp204
F-1.0
s((I0
I4
I0
I4
I4
I4
I4
I4
I4
I-3
I-11
tp205
I0
tp206
F19.0
s((I1
I1
I4
I4
I4
I4
I4
I4
I4
I-1
I-3
tp207
I1
tp208
F-1.0
s((I1
I1
I4
I4
I1
I1
I4
I4
I4
I2
I0
tp209
I1
tp210
F-1.95
s((I0
I0
I0
I1
I1
I4
I1
I4
I4
I4
I-5
tp211
I2
tp212
F-1.0
s((I1
I4
I4
I4
I1
I4
I4
I4
I4
I2
I1
tp213
I2
tp214
F-1.0
s((I1
I4
I1
I1
I1
I1
I4
I4
I0
I-8
I8
tp215
I1
tp216
F-10.2465004176894
s((I1
I4
I4
I1
I4
I4
I4
I1
I4
I0
I1
tp217
I3
tp218
F-1.0
s((I1
I1
I0
I1
I4
I4
I4
I4
I0
I-2
I5
tp219
I0
tp220
F-6.731591374218749
s((I1
I1
I3
I1
I1
I4
I4
I1
I4
I3
I0
tp221
I1
tp222
F-5.298162187499999
s((I2
I4
I4
I3
I1
I4
I4
I1
I4
I-1
I6
tp223
I3
tp224
F-1.0
s((I1
I1
I4
I0
I0
I1
I1
I0
I4
I-2
I-2
tp225
I2
tp226
F-1.95
s((I1
I1
I1
I4
I4
I4
I1
I4
I1
I-1
I5
tp227
I1
tp228
F-1.0
s((I1
I1
I0
I1
I4
I4
I0
I4
I0
I-2
I5
tp229
I3
tp230
F-1.0
s((I3
I4
I1
I4
I4
I4
I4
I4
I4
I-1
I0
tp231
I1
tp232
F-1.0
s((I1
I1
I1
I4
I3
I4
I4
I1
I1
I0
I0
tp233
I2
tp234
F-1.0
s((I0
I2
I4
I4
I0
I2
I0
I1
I4
I-2
I-12
tp235
I0
tp236
F-1.0
s((I1
I4
I1
I1
I4
I4
I4
I1
I4
I-7
I4
tp237
I2
tp238
F-8.02526121523242
s((I0
I1
I1
I4
I4
I4
I1
I4
I4
I-3
I-2
tp239
I2
tp240
F-1.0
s((I0
I4
I4
I4
I2
I1
I4
I2
I4
I3
I-2
tp241
I2
tp242
F-1.0
s((I0
I1
I4
I4
I4
I4
I1
I4
I4
I-8
I2
tp243
I1
tp244
F-1.0
s((I1
I1
I1
I0
I0
I1
I1
I1
I1
I2
I3
tp245
I0
tp246
F-2.8525
s((I1
I1
I2
I0
I0
I1
I4
I1
I1
I4
I-7
tp247
I3
tp248
F-1.0
s((I1
I4
I4
I4
I1
I4
I4
I4
I4
I-1
I6
tp249
I2
tp250
F-1.0
s((I1
I4
I4
I4
I4
I4
I4
I4
I4
I0
I0
tp251
I1
tp252
F-1.0
s((I1
I4
I4
I1
I1
I4
I4
I2
I4
I-3
I6
tp253
I0
tp254
F-1.0
s((I1
I1
I4
I4
I4
I4
I0
I4
I4
I-6
I-1
tp255
I1
tp256
F-1.0
s((I1
I4
I4
I2
I4
I4
I4
I4
I4
I2
I-1
tp257
I2
tp258
F-1.0
s((I1
I4
I4
I1
I4
I4
I4
I4
I1
I-9
I4
tp259
I3
tp260
F-1.0
s((I0
I4
I0
I1
I4
I4
I4
I4
I0
I-3
I1
tp261
I1
tp262
F-11.0
s((I1
I0
I3
I4
I1
I1
I4
I4
I4
I-2
I0
tp263
I3
tp264
F-1.0
s((I1
I3
I4
I4
I4
I1
I4
I4
I4
I-7
I-4
tp265
I3
tp266
F-1.0
s((I1
I1
I1
I2
I4
I1
I1
I4
I0
I2
I-1
tp267
I2
tp268
F-2.8525
s((I0
I1
I0
I4
I1
I1
I1
I1
I4
I-2
I5
tp269
I1
tp270
F19.0
s((I1
I4
I4
I0
I1
I4
I4
I1
I1
I-7
I8
tp271
I1
tp272
F-1.0
s((I1
I1
I4
I4
I4
I4
I1
I4
I4
I-7
I3
tp273
I0
tp274
F-1.0
s((I2
I4
I1
I1
I1
I1
I1
I0
I4
I5
I-7
tp275
I3
tp276
F-1.0
s((I1
I4
I4
I1
I4
I4
I4
I1
I1
I2
I-2
tp277
I2
tp278
F-1.0
s((I1
I1
I1
I4
I4
I0
I0
I4
I4
I-3
I0
tp279
I3
tp280
F-1.0
s((I1
I4
I1
I1
I1
I4
I1
I4
I1
I2
I0
tp281
I3
tp282
F-4.524381249999999
s((I0
I4
I4
I4
I1
I1
I4
I1
I4
I4
I0
tp283
I1
tp284
F-11.0
s((I0
I4
I0
I4
I4
I4
I4
I4
I1
I-1
I4
tp285
I0
tp286
F-1.0
s((I1
I1
I4
I0
I3
I2
I4
I0
I4
I0
I5
tp287
I1
tp288
F-1.0
s((I1
I4
I4
I4
I1
I4
I4
I4
I4
I1
I0
tp289
I0
tp290
F-1.0
s((I1
I1
I4
I1
I4
I4
I4
I1
I4
I3
I0
tp291
I2
tp292
F-1.0
s((I0
I4
I4
I3
I4
I4
I4
I1
I3
I-3
I2
tp293
I0
tp294
F-11.0
s((I0
I1
I1
I4
I1
I0
I2
I4
I4
I4
I-8
tp295
I0
tp296
F-11.0
s((I1
I1
I1
I4
I4
I4
I0
I4
I4
I2
I-10
tp297
I1
tp298
F-1.0
s((I1
I1
I4
I4
I4
I4
I4
I4
I4
I-3
I3
tp299
I1
tp300
F-1.0
s((I1
I4
I4
I1
I1
I4
I4
I1
I4
I-7
I9
tp301
I3
tp302
F-1.0
s((I0
I4
I0
I0
I0
I4
I4
I0
I0
I-2
I-10
tp303
I2
tp304
F19.0
s((I1
I4
I3
I4
I4
I4
I4
I4
I4
I-2
I0
tp305
I0
tp306
F-1.0
s((I1
I0
I1
I0
I1
I4
I1
I1
I1
I7
I-3
tp307
I2
tp308
F-1.0
s((I2
I0
I2
I4
I4
I4
I0
I4
I4
I-3
I-11
tp309
I1
tp310
F-1.0
s((I1
I3
I0
I4
I1
I1
I3
I4
I4
I-3
I0
tp311
I1
tp312
F-8.02526121523242
s((I1
I4
I1
I4
I4
I4
I4
I4
I4
I-9
I-3
tp313
I3
tp314
F-1.0
s((I1
I4
I1
I4
I4
I4
I4
I4
I4
I-7
I4
tp315
I2
tp316
F-1.0
s((I0
I4
I4
I4
I0
I4
I4
I4
I4
I2
I-3
tp317
I2
tp318
F-1.0
s((I1
I0
I1
I0
I4
I4
I1
I4
I1
I1
I4
tp319
I1
tp320
F-1.0
s((I0
I0
I4
I4
I4
I4
I0
I4
I4
I-1
I-11
tp321
I1
tp322
F19.0
s((I1
I4
I3
I1
I1
I1
I0
I0
I1
I-4
I1
tp323
I1
tp324
F-1.0
s((I1
I4
I4
I4
I1
I4
I4
I1
I4
I-5
I-3
tp325
I1
tp326
F-1.0
s((I0
I4
I1
I4
I4
I4
I4
I4
I4
I-6
I4
tp327
I0
tp328
F-11.0
s((I1
I1
I1
I4
I4
I1
I1
I4
I2
I1
I-1
tp329
I0
tp330
F-1.0
s((I1
I1
I4
I4
I4
I0
I1
I4
I4
I5
I-9
tp331
I1
tp332
F-1.0
s((I0
I0
I4
I1
I4
I4
I1
I4
I4
I4
I-5
tp333
I1
tp334
F-1.0
s((I1
I4
I4
I4
I1
I4
I4
I4
I4
I2
I-3
tp335
I3
tp336
F-1.0
s((I1
I4
I1
I4
I4
I4
I4
I4
I4
I-1
I0
tp337
I1
tp338
F-1.0
s((I1
I4
I1
I4
I4
I4
I1
I4
I4
I6
I-6
tp339
I3
tp340
F-1.0
s((I0
I1
I1
I1
I4
I4
I0
I4
I1
I3
I-9
tp341
I1
tp342
F-1.0
s((I1
I1
I0
I4
I4
I4
I1
I4
I4
I-6
I0
tp343
I2
tp344
F-1.0
s((I2
I4
I1
I1
I4
I4
I4
I4
I4
I-2
I0
tp345
I3
tp346
F-1.0
s((I1
I4
I2
I4
I4
I4
I4
I4
I1
I4
I-7
tp347
I0
tp348
F-1.0
s((I1
I1
I1
I4
I1
I1
I1
I4
I4
I1
I0
tp349
I0
tp350
F-1.95
s((I1
I1
I4
I1
I1
I1
I4
I4
I3
I0
I6
tp351
I2
tp352
F-1.0
s((I0
I0
I4
I4
I4
I1
I4
I1
I4
I9
I-3
tp353
I1
tp354
F-1.0
s((I1
I1
I4
I4
I4
I4
I1
I4
I4
I-2
I-1
tp355
I3
tp356
F-1.0
s((I0
I4
I4
I0
I4
I4
I4
I4
I0
I-3
I-10
tp357
I3
tp358
F19.0
s((I1
I1
I1
I4
I1
I4
I4
I4
I4
I2
I-3
tp359
I0
tp360
F-1.95
s((I1
I4
I4
I4
I4
I4
I4
I4
I4
I0
I0
tp361
I3
tp362
F-1.0
s((I1
I1
I4
I4
I1
I1
I4
I4
I4
I-5
I-4
tp363
I2
tp364
F-1.0
s((I2
I1
I4
I4
I0
I2
I4
I4
I4
I-2
I-3
tp365
I3
tp366
F-1.0
s((I0
I4
I4
I0
I1
I4
I4
I1
I4
I-1
I6
tp367
I2
tp368
F19.0
s((I1
I4
I4
I1
I4
I4
I4
I4
I1
I-9
I9
tp369
I2
tp370
F-1.0
s((I1
I1
I3
I1
I4
I1
I4
I4
I1
I0
I5
tp371
I1
tp372
F-1.0
s((I0
I4
I4
I1
I4
I4
I4
I4
I1
I0
I4
tp373
I1
tp374
F-11.0
s((I0
I4
I1
I1
I4
I4
I4
I1
I1
I1
I5
tp375
I2
tp376
F-11.95
s((I1
I4
I4
I1
I1
I1
I4
I4
I0
I-8
I8
tp377
I3
tp378
F-1.0
s((I1
I1
I1
I4
I4
I4
I0
I4
I1
I3
I-6
tp379
I2
tp380
F-1.0
s((I1
I4
I4
I1
I4
I4
I4
I1
I1
I-8
I5
tp381
I0
tp382
F-1.0
s((I2
I0
I0
I4
I0
I0
I0
I4
I4
I-2
I-11
tp383
I1
tp384
F-1.0
s((I1
I4
I4
I4
I1
I4
I4
I4
I4
I1
I-3
tp385
I3
tp386
F-1.0
s((I0
I4
I4
I0
I2
I1
I4
I2
I4
I3
I-2
tp387
I0
tp388
F-1.0
s((I0
I1
I4
I4
I4
I1
I1
I4
I4
I4
I-4
tp389
I3
tp390
F19.0
s((I1
I0
I4
I4
I4
I1
I1
I4
I4
I7
I-5
tp391
I2
tp392
F-1.0
s((I0
I4
I4
I0
I0
I4
I4
I4
I4
I2
I-3
tp393
I0
tp394
F19.0
s((I1
I4
I4
I4
I1
I4
I4
I4
I4
I0
I0
tp395
I0
tp396
F-1.0
s((I1
I4
I1
I4
I4
I4
I0
I4
I0
I0
I4
tp397
I3
tp398
F-1.0
s((I2
I0
I4
I0
I0
I4
I4
I4
I4
I2
I-3
tp399
I0
tp400
F-1.0
s((I1
I1
I4
I0
I1
I1
I4
I4
I4
I-5
I-4
tp401
I1
tp402
F-4.524381249999999
s((I1
I4
I0
I4
I0
I4
I4
I4
I1
I-3
I1
tp403
I2
tp404
F-1.0
s((I1
I4
I4
I4
I0
I4
I4
I1
I4
I8
I-2
tp405
I3
tp406
F-1.0
s((I0
I1
I4
I4
I4
I4
I1
I4
I4
I-5
I3
tp407
I2
tp408
F-11.0
s((I1
I4
I1
I4
I4
I4
I1
I4
I4
I-8
I3
tp409
I2
tp410
F-1.0
s((I0
I4
I1
I4
I4
I4
I1
I4
I1
I-4
I5
tp411
I1
tp412
F19.0
s((I1
I4
I1
I4
I3
I4
I4
I1
I1
I0
I0
tp413
I0
tp414
F-1.0
s((I0
I1
I4
I0
I2
I1
I4
I2
I4
I3
I-2
tp415
I1
tp416
F-1.95
s((I1
I4
I4
I0
I4
I4
I4
I4
I4
I-3
I3
tp417
I0
tp418
F-1.0
s((I0
I4
I1
I4
I4
I4
I1
I4
I4
I-3
I4
tp419
I1
tp420
F-1.0
s((I1
I1
I4
I4
I4
I4
I1
I4
I4
I4
I-10
tp421
I1
tp422
F-1.0
s((I1
I1
I0
I4
I4
I4
I4
I4
I0
I-2
I5
tp423
I2
tp424
F-1.0
s((I1
I0
I4
I1
I4
I4
I4
I1
I4
I-5
I7
tp425
I1
tp426
F-1.0
s((I1
I4
I4
I1
I4
I4
I4
I4
I3
I0
I6
tp427
I1
tp428
F-1.0
s((I1
I1
I4
I0
I0
I1
I1
I0
I4
I-2
I-2
tp429
I1
tp430
F-1.0
s((I2
I1
I1
I0
I4
I4
I1
I4
I0
I-3
I-2
tp431
I2
tp432
F-1.0
s((I1
I4
I1
I1
I1
I4
I4
I1
I4
I-7
I9
tp433
I0
tp434
F-1.0
s((I1
I0
I1
I4
I4
I4
I1
I4
I0
I-6
I1
tp435
I2
tp436
F-1.0
s((I1
I1
I1
I4
I2
I1
I1
I4
I2
I1
I-1
tp437
I3
tp438
F-4.524381249999999
s((I1
I1
I4
I0
I1
I4
I4
I2
I4
I3
I-1
tp439
I0
tp440
F-1.95
s((I0
I4
I4
I1
I4
I4
I4
I4
I1
I1
I5
tp441
I3
tp442
F-1.0
s((I1
I1
I1
I4
I0
I1
I3
I4
I4
I-4
I0
tp443
I3
tp444
F-7.395011805507812
s((I0
I4
I4
I1
I1
I4
I4
I2
I0
I-5
I6
tp445
I2
tp446
F-11.0
s((I1
I4
I4
I1
I4
I4
I4
I4
I4
I1
I3
tp447
I1
tp448
F-1.0
s((I0
I4
I1
I4
I4
I4
I4
I4
I4
I-5
I3
tp449
I0
tp450
F-1.0
s((I1
I4
I0
I4
I4
I4
I1
I4
I4
I-8
I-3
tp451
I1
tp452
F-1.0
s((I0
I1
I1
I1
I4
I4
I1
I4
I0
I1
I3
tp453
I3
tp454
F-2.8525
s((I1
I4
I4
I4
I1
I4
I4
I1
I4
I1
I1
tp455
I3
tp456
F-1.95
s((I1
I4
I4
I1
I4
I4
I4
I4
I0
I-2
I6
tp457
I2
tp458
F-6.033254078124999
s((I2
I2
I0
I0
I0
I4
I0
I4
I4
I2
I-3
tp459
I3
tp460
F-1.0
s((I1
I4
I4
I1
I1
I4
I4
I1
I4
I-5
I-3
tp461
I2
tp462
F-3.709875
s((I1
I4
I0
I1
I4
I4
I4
I4
I0
I-2
I6
tp463
I2
tp464
F-5.298162187499999
s((I1
I4
I4
I1
I4
I4
I4
I1
I1
I1
I2
tp465
I0
tp466
F-1.0
s((I1
I4
I4
I4
I1
I4
I4
I4
I4
I3
I-3
tp467
I1
tp468
F-1.0
s((I3
I4
I2
I0
I3
I4
I4
I1
I4
I-2
I1
tp469
I1
tp470
F-1.0
s((I0
I4
I1
I4
I4
I4
I4
I4
I4
I-1
I0
tp471
I3
tp472
F-11.0
s((I1
I0
I4
I4
I4
I4
I1
I4
I4
I-6
I1
tp473
I3
tp474
F-1.0
s((I0
I1
I4
I4
I4
I4
I4
I4
I4
I-3
I-14
tp475
I0
tp476
F19.0
s((I1
I4
I4
I1
I4
I4
I4
I1
I4
I1
I1
tp477
I1
tp478
F-1.0
s((I1
I1
I1
I4
I1
I3
I1
I4
I0
I-6
I-4
tp479
I3
tp480
F-3.709875
s((I1
I4
I4
I4
I1
I4
I4
I4
I4
I6
I-3
tp481
I1
tp482
F-1.0
s((I1
I4
I3
I1
I4
I4
I4
I4
I1
I0
I5
tp483
I0
tp484
F-1.0
s((I1
I1
I0
I4
I4
I4
I1
I4
I4
I6
I-7
tp485
I1
tp486
F-1.0
s((I1
I1
I1
I2
I1
I1
I1
I4
I0
I2
I-1
tp487
I2
tp488
F-1.0
s((I1
I0
I4
I4
I4
I4
I1
I4
I4
I3
I-8
tp489
I3
tp490
F-1.0
s((I1
I1
I4
I1
I4
I4
I4
I4
I4
I3
I1
tp491
I2
tp492
F-1.0
s((I1
I1
I4
I4
I1
I1
I1
I1
I4
I0
I0
tp493
I3
tp494
F-1.0
s((I0
I4
I0
I4
I4
I4
I0
I4
I4
I-2
I-11
tp495
I1
tp496
F-1.0
s((I1
I3
I0
I4
I1
I1
I1
I1
I4
I-1
I-1
tp497
I3
tp498
F-1.0
s((I2
I4
I4
I2
I4
I4
I4
I0
I4
I2
I-2
tp499
I0
tp500
F-1.0
s((I1
I4
I1
I4
I4
I4
I1
I4
I4
I3
I-10
tp501
I0
tp502
F-1.0
s((I1
I1
I4
I1
I4
I2
I0
I4
I4
I-3
I4
tp503
I1
tp504
F-1.0
s((I1
I1
I1
I4
I1
I0
I4
I4
I4
I-5
I1
tp505
I2
tp506
F-1.0
s((I1
I1
I1
I0
I1
I0
I4
I4
I1
I-5
I1
tp507
I1
tp508
F-1.0
s((I1
I4
I4
I1
I4
I4
I4
I1
I4
I3
I4
tp509
I1
tp510
F-1.0
s((I1
I1
I4
I0
I1
I1
I3
I2
I4
I3
I-1
tp511
I0
tp512
F-1.95
s((I0
I2
I4
I1
I4
I0
I2
I4
I4
I-3
I-12
tp513
I3
tp514
F19.0
s((I0
I4
I1
I1
I4
I4
I1
I4
I1
I-9
I5
tp515
I2
tp516
F19.0
s((I1
I4
I4
I4
I0
I4
I4
I1
I4
I2
I3
tp517
I2
tp518
F-1.0
s((I1
I1
I4
I4
I4
I4
I0
I4
I4
I-3
I4
tp519
I2
tp520
F-1.0
s((I1
I1
I0
I1
I1
I4
I4
I1
I4
I3
I0
tp521
I3
tp522
F-1.0
s((I1
I1
I4
I4
I1
I4
I1
I4
I4
I-7
I3
tp523
I0
tp524
F-7.395011805507812
s((I1
I4
I4
I1
I4
I4
I4
I4
I4
I3
I2
tp525
I2
tp526
F-1.0
s((I1
I3
I4
I4
I4
I1
I1
I4
I4
I-1
I-1
tp527
I1
tp528
F-1.0
s((I1
I4
I4
I1
I1
I4
I4
I4
I4
I2
I1
tp529
I2
tp530
F-3.709875
s((I1
I0
I1
I0
I4
I4
I1
I4
I1
I1
I4
tp531
I2
tp532
F-1.0
s((I1
I1
I4
I1
I4
I4
I4
I4
I4
I-3
I5
tp533
I1
tp534
F-1.0
s((I1
I1
I4
I0
I1
I1
I4
I4
I4
I-5
I-4
tp535
I3
tp536
F-1.0
s((I1
I0
I4
I0
I4
I4
I4
I4
I4
I-3
I-13
tp537
I0
tp538
F-1.0
s((I1
I2
I1
I4
I4
I1
I1
I4
I1
I-4
I4
tp539
I0
tp540
F-2.8525
s((I2
I1
I1
I4
I1
I3
I1
I4
I4
I0
I-1
tp541
I3
tp542
F-1.0
s((I1
I1
I1
I4
I4
I4
I1
I4
I4
I-3
I-1
tp543
I3
tp544
F-1.0
s((I1
I4
I4
I1
I4
I4
I4
I1
I4
I-3
I7
tp545
I2
tp546
F-1.0
s((I1
I4
I4
I1
I4
I4
I4
I4
I0
I-8
I8
tp547
I1
tp548
F-1.0
s((I1
I4
I4
I0
I4
I4
I4
I4
I1
I-5
I4
tp549
I1
tp550
F-1.0
s((I1
I1
I4
I4
I4
I4
I4
I4
I4
I0
I-1
tp551
I1
tp552
F-1.0
s((I1
I4
I4
I1
I0
I4
I4
I1
I1
I2
I5
tp553
I1
tp554
F-2.8525
s((I0
I0
I0
I1
I1
I4
I1
I4
I4
I4
I-5
tp555
I3
tp556
F-6.731591374218749
s((I1
I4
I0
I4
I4
I4
I4
I4
I1
I-4
I1
tp557
I3
tp558
F-1.0
s((I1
I1
I4
I4
I1
I1
I1
I4
I4
I1
I0
tp559
I3
tp560
F-1.0
s((I1
I4
I0
I4
I1
I4
I1
I4
I4
I-8
I-3
tp561
I3
tp562
F-1.0
s((I0
I4
I0
I4
I4
I4
I4
I4
I4
I0
I-10
tp563
I1
tp564
F19.0
s((I1
I1
I0
I1
I2
I1
I1
I4
I4
I-3
I5
tp565
I2
tp566
F-1.0
s((I2
I0
I4
I4
I2
I2
I4
I0
I4
I3
I-3
tp567
I3
tp568
F-1.0
s((I1
I1
I1
I1
I1
I0
I4
I0
I1
I2
I4
tp569
I2
tp570
F-2.8525
s((I0
I0
I4
I0
I1
I1
I4
I1
I0
I-1
I5
tp571
I1
tp572
F-11.0
s((I1
I4
I1
I4
I4
I4
I1
I4
I4
I-2
I0
tp573
I2
tp574
F-1.0
s((I1
I1
I0
I1
I4
I4
I0
I4
I0
I-2
I5
tp575
I0
tp576
F-4.524381249999999
s((I0
I1
I4
I4
I4
I4
I4
I4
I4
I-7
I-3
tp577
I1
tp578
F-11.0
s((I1
I4
I1
I4
I4
I4
I4
I4
I1
I-1
I6
tp579
I0
tp580
F-1.0
s((I1
I4
I0
I4
I4
I4
I0
I4
I4
I-3
I0
tp581
I0
tp582
F-1.0
s((I1
I4
I4
I1
I1
I4
I4
I0
I4
I3
I3
tp583
I0
tp584
F-1.0
s((I1
I4
I2
I4
I4
I4
I4
I4
I4
I-5
I4
tp585
I1
tp586
F-1.0
s((I1
I1
I1
I4
I4
I4
I4
I4
I1
I-9
I8
tp587
I3
tp588
F-10.73417539680493
s((I1
I4
I1
I1
I4
I4
I4
I4
I4
I-7
I4
tp589
I2
tp590
F-1.95
s((I1
I4
I1
I4
I1
I4
I4
I4
I1
I1
I0
tp591
I3
tp592
F-1.0
s((I1
I4
I4
I4
I4
I4
I4
I4
I4
I0
I0
tp593
I0
tp594
F-1.0
s((I1
I1
I4
I4
I0
I4
I4
I4
I4
I-1
I-3
tp595
I3
tp596
F-1.0
s((I0
I4
I1
I4
I4
I4
I1
I4
I4
I5
I-7
tp597
I2
tp598
F19.0
s((I0
I4
I1
I4
I4
I4
I1
I4
I4
I-7
I-1
tp599
I2
tp600
F-11.0
s((I2
I0
I2
I4
I0
I4
I0
I4
I4
I-3
I-11
tp601
I2
tp602
F-1.0
s((I1
I4
I1
I4
I1
I1
I4
I4
I4
I4
I-3
tp603
I0
tp604
F-1.0
s((I2
I4
I1
I4
I4
I4
I4
I4
I4
I-6
I5
tp605
I0
tp606
F-1.0
s((I0
I4
I1
I1
I4
I4
I4
I4
I1
I0
I1
tp607
I1
tp608
F19.0
s((I1
I4
I4
I4
I1
I1
I4
I4
I4
I0
I-3
tp609
I3
tp610
F-1.0
s((I1
I1
I3
I1
I4
I4
I2
I4
I0
I-2
I5
tp611
I3
tp612
F-3.709875
s((I3
I0
I4
I0
I1
I1
I4
I1
I0
I-1
I5
tp613
I0
tp614
F-1.0
s((I0
I2
I4
I4
I4
I0
I2
I4
I4
I-3
I-12
tp615
I2
tp616
F-1.0
s((I1
I4
I4
I1
I4
I4
I4
I1
I1
I2
I-2
tp617
I3
tp618
F-1.0
s((I1
I1
I4
I4
I1
I1
I1
I4
I4
I-1
I-1
tp619
I0
tp620
F-1.0
s((I1
I4
I4
I1
I4
I4
I4
I4
I4
I-3
I5
tp621
I0
tp622
F-1.0
s((I0
I4
I0
I4
I4
I4
I4
I4
I4
I-1
I-10
tp623
I2
tp624
F19.0
s((I1
I4
I4
I1
I4
I4
I4
I4
I4
I3
I1
tp625
I0
tp626
F-1.0
s((I0
I1
I4
I4
I0
I0
I1
I1
I1
I5
I-5
tp627
I1
tp628
F-17.395011805507814
s((I1
I4
I1
I4
I2
I4
I4
I1
I4
I-1
I0
tp629
I3
tp630
F-1.0
s((I1
I4
I4
I2
I4
I4
I4
I4
I1
I-6
I6
tp631
I3
tp632
F-1.0
s((I0
I4
I1
I4
I4
I4
I4
I4
I1
I-7
I7
tp633
I1
tp634
F-1.0
s((I0
I0
I4
I4
I2
I2
I4
I0
I4
I3
I-3
tp635
I0
tp636
F19.0
s((I0
I1
I1
I4
I1
I1
I1
I4
I4
I7
I-4
tp637
I2
tp638
F-1.0
s((I1
I4
I4
I1
I4
I4
I4
I4
I1
I-1
I7
tp639
I3
tp640
F-1.0
s((I1
I4
I1
I1
I1
I1
I4
I4
I0
I-8
I8
tp641
I0
tp642
F-1.0
s((I1
I4
I4
I1
I1
I4
I4
I1
I4
I0
I7
tp643
I2
tp644
F-1.0
s((I2
I4
I1
I1
I4
I4
I1
I4
I1
I-9
I5
tp645
I0
tp646
F-1.0
s((I1
I0
I1
I0
I4
I4
I1
I4
I1
I1
I4
tp647
I0
tp648
F-5.298162187499999
s((I1
I0
I4
I4
I4
I4
I4
I4
I4
I-3
I-13
tp649
I2
tp650
F-1.0
s((I1
I1
I4
I4
I4
I1
I4
I4
I4
I2
I0
tp651
I1
tp652
F-1.0
s((I1
I4
I4
I1
I4
I4
I4
I4
I4
I-8
I6
tp653
I2
tp654
F-1.0
s((I0
I1
I4
I1
I1
I0
I4
I1
I4
I-6
I10
tp655
I2
tp656
F-1.0
s((I1
I1
I1
I1
I1
I0
I4
I0
I1
I2
I4
tp657
I1
tp658
F-1.95
s((I3
I4
I0
I1
I1
I4
I4
I4
I0
I-3
I1
tp659
I3
tp660
F-1.0
s((I0
I4
I1
I1
I4
I4
I4
I1
I1
I1
I5
tp661
I3
tp662
F-1.95
s((I1
I4
I4
I1
I4
I4
I4
I1
I1
I-7
I10
tp663
I0
tp664
F-1.0
s((I1
I4
I4
I1
I4
I4
I4
I1
I4
I-5
I7
tp665
I0
tp666
F-1.0
s((I1
I4
I1
I1
I4
I4
I4
I4
I4
I0
I1
tp667
I1
tp668
F-1.0
s((I1
I4
I0
I4
I0
I4
I4
I4
I4
I-5
I5
tp669
I1
tp670
F-1.0
s((I1
I1
I0
I4
I4
I4
I3
I4
I4
I-2
I4
tp671
I1
tp672
F-1.0
s((I1
I4
I4
I4
I1
I4
I4
I1
I0
I-6
I9
tp673
I1
tp674
F-1.0
s((I1
I0
I1
I4
I4
I1
I1
I4
I4
I4
I-9
tp675
I2
tp676
F-1.0
s((I1
I1
I3
I1
I1
I4
I4
I1
I4
I3
I0
tp677
I2
tp678
F-1.0
s((I0
I0
I4
I1
I1
I4
I1
I4
I4
I4
I-5
tp679
I3
tp680
F-1.0
s((I0
I2
I0
I4
I4
I4
I1
I4
I4
I-3
I-3
tp681
I3
tp682
F19.0
s((I1
I4
I0
I4
I4
I4
I4
I4
I1
I-3
I1
tp683
I1
tp684
F-1.0
s((I1
I4
I1
I4
I4
I4
I4
I4
I1
I0
I3
tp685
I0
tp686
F-1.0
s((I1
I1
I0
I1
I1
I0
I0
I0
I4
I8
I-3
tp687
I1
tp688
F-1.0
s((I1
I1
I4
I1
I1
I4
I4
I2
I4
I-3
I6
tp689
I3
tp690
F-1.0
s((I1
I1
I4
I4
I4
I4
I1
I4
I4
I-1
I-2
tp691
I2
tp692
F-1.0
s((I1
I4
I1
I1
I4
I4
I1
I4
I1
I2
I0
tp693
I1
tp694
F-1.0
s((I1
I1
I0
I4
I2
I4
I1
I1
I4
I6
I-7
tp695
I2
tp696
F-1.0
s((I0
I4
I4
I0
I4
I4
I4
I0
I4
I2
I-2
tp697
I2
tp698
F19.0
s((I1
I1
I4
I4
I4
I1
I1
I4
I4
I-2
I-2
tp699
I1
tp700
F-1.0
s((I1
I4
I4
I4
I4
I4
I4
I4
I4
I0
I0
tp701
I2
tp702
F-1.0
s((I0
I4
I1
I4
I4
I4
I0
I4
I4
I-6
I2
tp703
I2
tp704
F-11.0
s((I1
I4
I1
I1
I4
I4
I4
I4
I0
I-9
I3
tp705
I0
tp706
F-1.0
s((I0
I4
I1
I4
I4
I4
I1
I4
I4
I-2
I-3
tp707
I3
tp708
F-1.0
s((I1
I1
I4
I4
I1
I4
I4
I4
I4
I7
I-6
tp709
I2
tp710
F-1.0
s((I0
I0
I4
I4
I4
I4
I0
I4
I4
I-2
I0
tp711
I1
tp712
F19.0
s((I1
I4
I4
I0
I1
I4
I4
I2
I4
I3
I-1
tp713
I0
tp714
F-1.0
s((I1
I4
I4
I4
I0
I1
I4
I1
I4
I3
I2
tp715
I0
tp716
F-1.0
s((I1
I4
I4
I4
I2
I0
I4
I4
I4
I4
I-3
tp717
I0
tp718
F-1.0
s((I1
I4
I4
I1
I1
I4
I4
I1
I4
I3
I-2
tp719
I2
tp720
F-1.0
s((I1
I1
I1
I1
I1
I4
I1
I1
I4
I-1
I0
tp721
I3
tp722
F-1.0
s((I0
I4
I1
I4
I4
I4
I4
I4
I4
I-6
I5
tp723
I3
tp724
F19.0
s((I1
I0
I4
I4
I4
I4
I1
I4
I4
I-7
I-2
tp725
I2
tp726
F-1.0
s((I1
I4
I4
I1
I0
I1
I4
I2
I4
I4
I-2
tp727
I1
tp728
F-1.0
s((I0
I1
I1
I4
I1
I3
I1
I4
I4
I0
I-1
tp729
I1
tp730
F17.1475
s((I1
I0
I0
I4
I2
I1
I4
I4
I4
I-5
I5
tp731
I3
tp732
F-1.0
s((I1
I1
I4
I4
I4
I4
I1
I4
I4
I-7
I3
tp733
I1
tp734
F-1.0
s((I0
I4
I1
I4
I1
I1
I4
I4
I4
I7
I-4
tp735
I0
tp736
F-1.0
s((I1
I4
I4
I4
I1
I3
I4
I4
I4
I-6
I-4
tp737
I0
tp738
F-1.0
s((I1
I4
I1
I1
I1
I4
I1
I4
I1
I2
I0
tp739
I2
tp740
F-1.0
s((I1
I0
I4
I4
I4
I4
I1
I4
I4
I5
I-8
tp741
I0
tp742
F-1.0
s((I1
I1
I4
I0
I1
I1
I4
I4
I4
I-5
I-4
tp743
I0
tp744
F-2.8525
s((I0
I0
I0
I4
I0
I0
I0
I4
I4
I-2
I-11
tp745
I0
tp746
F18.05
s((I1
I4
I4
I4
I1
I4
I4
I4
I4
I2
I1
tp747
I1
tp748
F-1.0
s((I0
I1
I4
I4
I4
I1
I4
I4
I4
I-5
I-5
tp749
I0
tp750
F-11.0
s((I1
I0
I1
I1
I4
I4
I1
I4
I1
I-9
I4
tp751
I0
tp752
F-1.0
s((I1
I4
I4
I4
I1
I4
I4
I1
I4
I-5
I-3
tp753
I2
tp754
F-1.0
s((I1
I4
I1
I4
I4
I4
I1
I4
I4
I-8
I3
tp755
I3
tp756
F-1.0
s((I0
I4
I4
I1
I4
I4
I4
I4
I4
I-5
I8
tp757
I2
tp758
F19.0
s((I2
I1
I1
I1
I1
I0
I1
I4
I1
I-4
I5
tp759
I2
tp760
F-3.709875
s((I1
I4
I4
I1
I4
I4
I4
I4
I4
I0
I1
tp761
I3
tp762
F-1.95
s((I3
I1
I4
I4
I1
I4
I4
I4
I4
I-7
I-3
tp763
I2
tp764
F-1.0
s((I0
I4
I1
I4
I4
I4
I4
I4
I4
I-4
I1
tp765
I3
tp766
F-1.0
s((I0
I1
I4
I4
I0
I0
I4
I4
I4
I-2
I-3
tp767
I0
tp768
F17.1475
s((I1
I4
I4
I1
I4
I4
I4
I4
I4
I-3
I6
tp769
I2
tp770
F-1.0
s((I0
I4
I0
I4
I4
I4
I4
I4
I4
I-2
I1
tp771
I2
tp772
F-11.0
s((I2
I4
I0
I4
I1
I4
I4
I4
I4
I-4
I4
tp773
I1
tp774
F-1.0
s((I2
I4
I1
I4
I1
I0
I1
I4
I1
I-4
I5
tp775
I0
tp776
F-1.0
s((I1
I4
I4
I1
I1
I4
I4
I1
I1
I-8
I9
tp777
I3
tp778
F-1.0
s((I3
I4
I1
I1
I1
I0
I4
I4
I4
I-1
I0
tp779
I2
tp780
F-1.95
s((I1
I4
I4
I4
I0
I4
I4
I4
I4
I8
I-4
tp781
I1
tp782
F-1.0
s((I1
I4
I3
I1
I1
I1
I0
I0
I1
I-4
I1
tp783
I2
tp784
F-3.709875
s((I1
I4
I0
I4
I4
I4
I4
I4
I4
I-5
I5
tp785
I1
tp786
F-1.0
s((I1
I4
I0
I4
I4
I4
I4
I4
I0
I-2
I5
tp787
I0
tp788
F-1.0
s((I1
I4
I1
I1
I1
I4
I4
I1
I1
I-8
I4
tp789
I0
tp790
F-1.0
s((I1
I4
I4
I4
I1
I1
I4
I0
I4
I-4
I-4
tp791
I2
tp792
F-1.0
s.