(dp0
((I16
I-1
tp1
I0
I00
tp2
F-1.0
s((I-7
I5
tp3
I0
I00
tp4
F-1.0
s((I3
I-2
tp5
I0
I01
tp6
F19.0
s((I-7
I1
tp7
I1
I00
tp8
F-1.0
s((I18
I-2
tp9
I3
I00
tp10
F-1.0
s((I2
I-8
tp11
I1
I00
tp12
F-1.0
s((I6
I3
tp13
I1
I00
tp14
F-1.0
s((I1
I-6
tp15
I0
I00
tp16
F-1.0
s((I-4
I8
tp17
I2
I00
tp18
F-1.0
s((I13
I2
tp19
I3
I00
tp20
F-1.0
s((I4
I-8
tp21
I1
I00
tp22
F-1.0
s((I9
I-4
tp23
I1
I00
tp24
F-1.0
s((I3
I-5
tp25
I1
I00
tp26
F-1.0
s((I-12
I-2
tp27
I0
I00
tp28
F-1.0
s((I15
I-1
tp29
I3
I00
tp30
F-1.0
s((I-7
I-13
tp31
I3
I00
tp32
F-1.0
s((I-3
I-10
tp33
I3
I00
tp34
F-1.0
s((I-6
I0
tp35
I1
I00
tp36
F-1.0
s((I1
I-1
tp37
I0
I00
tp38
F-1.0
s((I1
I16
tp39
I1
I00
tp40
F-1.0
s((I-1
I12
tp41
I2
I00
tp42
F-1.0
s((I-6
I4
tp43
I2
I00
tp44
F-1.0
s((I-10
I1
tp45
I0
I00
tp46
F-1.0
s((I-3
I7
tp47
I2
I00
tp48
F-1.0
s((I6
I4
tp49
I1
I00
tp50
F-1.0
s((I-2
I-5
tp51
I2
I00
tp52
F-1.0
s((I4
I1
tp53
I3
I00
tp54
F-1.0
s((I-3
I11
tp55
I3
I00
tp56
F-1.0
s((I-9
I-5
tp57
I0
I00
tp58
F-1.0
s((I-9
I3
tp59
I3
I01
tp60
F19.0
s((I1
I0
tp61
I1
I00
tp62
F-1.0
s((I7
I-5
tp63
I2
I00
tp64
F-1.0
s((I-4
I0
tp65
I3
I00
tp66
F-1.0
s((I9
I5
tp67
I0
I00
tp68
F-1.0
s((I-4
I-11
tp69
I2
I00
tp70
F-1.0
s((I-4
I-7
tp71
I2
I00
tp72
F-1.0
s((I-1
I-10
tp73
I2
I01
tp74
F19.0
s((I6
I8
tp75
I0
I00
tp76
F-1.0
s((I-1
I4
tp77
I1
I00
tp78
F-1.0
s((I-5
I14
tp79
I1
I00
tp80
F-1.0
s((I20
I-1
tp81
I0
I00
tp82
F-1.0
s((I7
I3
tp83
I2
I00
tp84
F-1.0
s((I-1
I8
tp85
I3
I00
tp86
F-1.0
s((I4
I-4
tp87
I1
I00
tp88
F-1.0
s((I-1
I-4
tp89
I0
I00
tp90
F-1.0
s((I7
I2
tp91
I1
I00
tp92
F-1.0
s((I-6
I6
tp93
I3
I00
tp94
F-1.0
s((I-1
I-1
tp95
I3
I00
tp96
F-1.0
s((I-1
I-7
tp97
I0
I00
tp98
F-1.0
s((I2
I-3
tp99
I2
I00
tp100
F-1.0
s((I14
I2
tp101
I3
I00
tp102
F-1.0
s((I-4
I-14
tp103
I0
I00
tp104
F-1.0
s((I10
I0
tp105
I1
I00
tp106
F-1.0
s((I11
I-1
tp107
I3
I00
tp108
F-1.0
s((I10
I-3
tp109
I2
I00
tp110
F-1.0
s((I9
I-1
tp111
I3
I00
tp112
F-1.0
s((I5
I6
tp113
I0
I00
tp114
F-1.0
s((I5
I-5
tp115
I1
I00
tp116
F-1.0
s((I13
I7
tp117
I2
I00
tp118
F-1.0
s((I-2
I11
tp119
I3
I00
tp120
F-1.0
s((I-3
I-5
tp121
I0
I00
tp122
F-1.0
s((I19
I2
tp123
I2
I00
tp124
F-1.0
s((I-6
I-9
tp125
I2
I00
tp126
F-1.0
s((I5
I-9
tp127
I0
I00
tp128
F-1.0
s((I4
I2
tp129
I3
I00
tp130
F-1.0
s((I0
I6
tp131
I3
I01
tp132
F19.0
s((I5
I3
tp133
I3
I00
tp134
F-1.0
s((I-1
I-10
tp135
I0
I00
tp136
F-1.0
s((I2
I3
tp137
I0
I01
tp138
F19.0
s((I3
I-1
tp139
I3
I00
tp140
F-1.0
s((I-2
I4
tp141
I3
I00
tp142
F-1.0
s((I0
I-3
tp143
I3
I00
tp144
F-1.0
s((I22
I-1
tp145
I1
I00
tp146
F-1.0
s((I-1
I-5
tp147
I3
I00
tp148
F-1.0
s((I-5
I-1
tp149
I2
I00
tp150
F-1.0
s((I-2
I-9
tp151
I2
I00
tp152
F-1.0
s((I16
I1
tp153
I2
I00
tp154
F-1.0
s((I0
I-7
tp155
I1
I00
tp156
F-1.0
s((I18
I0
tp157
I3
I00
tp158
F-1.0
s((I8
I2
tp159
I1
I00
tp160
F-1.0
s((I-1
I1
tp161
I3
I00
tp162
F-1.0
s((I-5
I3
tp163
I0
I00
tp164
F-1.0
s((I0
I-10
tp165
I1
I00
tp166
F-1.0
s((I-5
I-2
tp167
I3
I00
tp168
F-1.0
s((I-7
I-9
tp169
I1
I00
tp170
F-1.0
s((I2
I-6
tp171
I2
I00
tp172
F-1.0
s((I-6
I-13
tp173
I3
I00
tp174
F-1.0
s((I-2
I-8
tp175
I1
I00
tp176
F-1.0
s((I-11
I-5
tp177
I1
I00
tp178
F-1.0
s((I0
I0
tp179
I2
I00
tp180
F-1.0
s((I-7
I3
tp181
I3
I00
tp182
F-1.0
s((I2
I-6
tp183
I0
I00
tp184
F-1.0
s((I12
I3
tp185
I2
I00
tp186
F-1.0
s((I0
I12
tp187
I3
I00
tp188
F-1.0
s((I10
I6
tp189
I2
I00
tp190
F-1.0
s((I10
I-3
tp191
I1
I00
tp192
F-1.0
s((I5
I-8
tp193
I0
I00
tp194
F-1.0
s((I21
I-2
tp195
I1
I00
tp196
F-1.0
s((I2
I-7
tp197
I0
I00
tp198
F-1.0
s((I-1
I15
tp199
I1
I00
tp200
F-1.0
s((I-4
I-11
tp201
I1
I01
tp202
F-11.0
s((I13
I0
tp203
I3
I00
tp204
F-1.0
s((I6
I6
tp205
I2
I00
tp206
F-1.0
s((I6
I-4
tp207
I1
I00
tp208
F-1.0
s((I13
I2
tp209
I2
I00
tp210
F-1.0
s((I-2
I3
tp211
I2
I00
tp212
F-1.0
s((I8
I8
tp213
I1
I00
tp214
F-1.0
s((I-3
I-12
tp215
I1
I00
tp216
F-1.0
s((I10
I-4
tp217
I1
I00
tp218
F-1.0
s((I1
I15
tp219
I0
I00
tp220
F-1.0
s((I3
I0
tp221
I3
I00
tp222
F-1.0
s((I5
I5
tp223
I0
I00
tp224
F-1.0
s((I-8
I-1
tp225
I1
I00
tp226
F-1.0
s((I14
I1
tp227
I3
I00
tp228
F-1.0
s((I4
I-5
tp229
I3
I00
tp230
F-1.0
s((I9
I-2
tp231
I3
I00
tp232
F-1.0
s((I-12
I1
tp233
I2
I00
tp234
F-1.0
s((I-2
I-6
tp235
I2
I00
tp236
F-1.0
s((I2
I0
tp237
I3
I00
tp238
F-1.0
s((I-2
I4
tp239
I0
I00
tp240
F-1.0
s((I-9
I-3
tp241
I3
I00
tp242
F-1.0
s((I1
I-6
tp243
I1
I00
tp244
F-1.0
s((I-2
I12
tp245
I3
I00
tp246
F-1.0
s((I17
I0
tp247
I0
I00
tp248
F-1.0
s((I4
I-8
tp249
I0
I00
tp250
F-1.0
s((I-1
I-2
tp251
I3
I00
tp252
F-1.0
s((I-2
I13
tp253
I0
I00
tp254
F-1.0
s((I-3
I-8
tp255
I3
I00
tp256
F-1.0
s((I-7
I8
tp257
I3
I00
tp258
F-1.0
s((I2
I3
tp259
I0
I00
tp260
F-1.0
s((I7
I12
tp261
I3
I00
tp262
F-1.0
s((I-2
I5
tp263
I0
I00
tp264
F-1.0
s((I-9
I-4
tp265
I0
I00
tp266
F-1.0
s((I3
I4
tp267
I3
I00
tp268
F-1.0
s((I6
I-8
tp269
I1
I00
tp270
F-1.0
s((I6
I4
tp271
I0
I00
tp272
F-1.0
s((I14
I3
tp273
I2
I00
tp274
F-1.0
s((I-8
I0
tp275
I0
I00
tp276
F-1.0
s((I-3
I11
tp277
I2
I00
tp278
F-1.0
s((I1
I-3
tp279
I2
I00
tp280
F-1.0
s((I3
I-3
tp281
I1
I00
tp282
F-1.0
s((I2
I-9
tp283
I1
I00
tp284
F-1.0
s((I-3
I-5
tp285
I3
I00
tp286
F-1.0
s((I12
I-2
tp287
I3
I00
tp288
F-1.0
s((I-4
I-11
tp289
I3
I00
tp290
F-1.0
s((I6
I12
tp291
I3
I00
tp292
F-1.0
s((I4
I1
tp293
I2
I00
tp294
F-1.0
s((I7
I3
tp295
I1
I00
tp296
F-1.0
s((I-7
I2
tp297
I0
I00
tp298
F-1.0
s((I12
I0
tp299
I0
I00
tp300
F-1.0
s((I4
I4
tp301
I3
I00
tp302
F-1.0
s((I2
I-5
tp303
I0
I01
tp304
F19.0
s((I0
I-2
tp305
I2
I01
tp306
F19.0
s((I4
I0
tp307
I1
I00
tp308
F-1.0
s((I-2
I-7
tp309
I1
I00
tp310
F-1.0
s((I1
I-2
tp311
I1
I00
tp312
F-1.0
s((I-2
I14
tp313
I2
I00
tp314
F-1.0
s((I-10
I-4
tp315
I0
I00
tp316
F-1.0
s((I11
I-2
tp317
I0
I00
tp318
F-1.0
s((I-2
I-8
tp319
I2
I00
tp320
F-1.0
s((I-6
I-10
tp321
I2
I00
tp322
F-1.0
s((I0
I-5
tp323
I3
I00
tp324
F-1.0
s((I-1
I-11
tp325
I0
I00
tp326
F-1.0
s((I-7
I-12
tp327
I3
I00
tp328
F-1.0
s((I3
I-5
tp329
I0
I00
tp330
F-1.0
s((I-6
I-10
tp331
I1
I01
tp332
F19.0
s((I0
I-2
tp333
I3
I00
tp334
F-1.0
s((I2
I13
tp335
I2
I00
tp336
F-1.0
s((I-5
I9
tp337
I3
I00
tp338
F-1.0
s((I-3
I1
tp339
I3
I00
tp340
F-1.0
s((I-2
I2
tp341
I2
I00
tp342
F-1.0
s((I-2
I-10
tp343
I3
I00
tp344
F-1.0
s((I4
I6
tp345
I3
I00
tp346
F-1.0
s((I4
I3
tp347
I1
I00
tp348
F-1.0
s((I3
I-2
tp349
I0
I00
tp350
F-1.0
s((I22
I-2
tp351
I0
I00
tp352
F-1.0
s((I15
I0
tp353
I2
I00
tp354
F-1.0
s((I-5
I0
tp355
I0
I00
tp356
F-1.0
s((I-1
I-9
tp357
I3
I00
tp358
F-1.0
s((I-8
I4
tp359
I1
I00
tp360
F-1.0
s((I8
I-2
tp361
I0
I00
tp362
F-1.0
s((I0
I-7
tp363
I2
I00
tp364
F-1.0
s((I-3
I0
tp365
I0
I00
tp366
F-1.0
s((I-1
I1
tp367
I0
I00
tp368
F-1.0
s((I3
I-4
tp369
I2
I00
tp370
F-1.0
s((I-5
I-2
tp371
I0
I00
tp372
F-1.0
s((I0
I11
tp373
I3
I00
tp374
F-1.0
s((I-6
I-1
tp375
I0
I00
tp376
F-1.0
s((I-7
I3
tp377
I2
I00
tp378
F-1.0
s((I-14
I3
tp379
I3
I00
tp380
F-1.0
s((I-4
I-15
tp381
I0
I00
tp382
F-1.0
s((I7
I8
tp383
I3
I00
tp384
F-1.0
s((I-1
I-3
tp385
I3
I00
tp386
F-1.0
s((I0
I-1
tp387
I0
I00
tp388
F-1.0
s((I21
I-1
tp389
I2
I00
tp390
F-1.0
s((I8
I12
tp391
I2
I00
tp392
F-1.0
s((I-2
I15
tp393
I2
I00
tp394
F-1.0
s((I-6
I-8
tp395
I3
I00
tp396
F-1.0
s((I-5
I-6
tp397
I2
I00
tp398
F-1.0
s((I-13
I2
tp399
I0
I00
tp400
F-1.0
s((I-6
I5
tp401
I2
I00
tp402
F-1.0
s((I14
I0
tp403
I2
I00
tp404
F-1.0
s((I1
I3
tp405
I2
I00
tp406
F-1.0
s((I-2
I-12
tp407
I0
I00
tp408
F-1.0
s((I-3
I-7
tp409
I2
I00
tp410
F-1.0
s((I11
I0
tp411
I0
I00
tp412
F-1.0
s((I5
I2
tp413
I3
I00
tp414
F-1.0
s((I-4
I14
tp415
I1
I00
tp416
F-1.0
s((I-3
I-8
tp417
I1
I00
tp418
F-1.0
s((I3
I-4
tp419
I0
I00
tp420
F-1.0
s((I14
I1
tp421
I0
I00
tp422
F-1.0
s((I-7
I-7
tp423
I1
I00
tp424
F-1.0
s((I11
I-1
tp425
I3
I01
tp426
F-11.0
s((I-4
I-11
tp427
I0
I00
tp428
F-1.0
s((I-4
I15
tp429
I1
I00
tp430
F-1.0
s((I-5
I4
tp431
I0
I00
tp432
F-1.0
s((I6
I3
tp433
I3
I00
tp434
F-1.0
s((I1
I-6
tp435
I2
I00
tp436
F-1.0
s((I-2
I12
tp437
I2
I00
tp438
F-1.0
s((I19
I-1
tp439
I3
I00
tp440
F-1.0
s((I17
I0
tp441
I1
I00
tp442
F-1.0
s((I4
I-8
tp443
I3
I00
tp444
F-1.0
s((I-8
I6
tp445
I1
I00
tp446
F-1.0
s((I-2
I8
tp447
I3
I00
tp448
F-1.0
s((I0
I6
tp449
I3
I00
tp450
F-1.0
s((I20
I1
tp451
I1
I00
tp452
F-1.0
s((I-7
I-15
tp453
I0
I00
tp454
F-1.0
s((I0
I-9
tp455
I1
I01
tp456
F19.0
s((I4
I-7
tp457
I3
I00
tp458
F-1.0
s((I-2
I-9
tp459
I1
I00
tp460
F-1.0
s((I7
I-2
tp461
I2
I00
tp462
F-1.0
s((I-1
I2
tp463
I3
I00
tp464
F-1.0
s((I-3
I6
tp465
I0
I00
tp466
F-1.0
s((I-3
I3
tp467
I0
I00
tp468
F-1.0
s((I-2
I-3
tp469
I0
I00
tp470
F-1.0
s((I-12
I2
tp471
I1
I00
tp472
F-1.0
s((I-8
I-7
tp473
I0
I00
tp474
F-1.0
s((I-5
I1
tp475
I0
I00
tp476
F-1.0
s((I12
I-1
tp477
I2
I00
tp478
F-1.0
s((I17
I-2
tp479
I0
I00
tp480
F-1.0
s((I-3
I15
tp481
I3
I00
tp482
F-1.0
s((I1
I4
tp483
I3
I00
tp484
F-1.0
s((I1
I-8
tp485
I1
I00
tp486
F-1.0
s((I6
I8
tp487
I3
I00
tp488
F-1.0
s((I7
I3
tp489
I0
I00
tp490
F-1.0
s((I4
I5
tp491
I2
I00
tp492
F-1.0
s((I-2
I-10
tp493
I0
I00
tp494
F-1.0
s((I-14
I3
tp495
I1
I00
tp496
F-1.0
s((I20
I0
tp497
I0
I01
tp498
F19.0
s((I-2
I-11
tp499
I1
I00
tp500
F-1.0
s((I6
I8
tp501
I1
I00
tp502
F-1.0
s((I3
I-8
tp503
I0
I00
tp504
F-1.0
s((I0
I-1
tp505
I1
I00
tp506
F-1.0
s((I-7
I-11
tp507
I3
I00
tp508
F-1.0
s((I7
I5
tp509
I3
I00
tp510
F-1.0
s((I-5
I5
tp511
I3
I00
tp512
F-1.0
s((I2
I5
tp513
I0
I00
tp514
F-1.0
s((I-7
I-12
tp515
I0
I00
tp516
F-1.0
s((I12
I4
tp517
I2
I00
tp518
F-1.0
s((I-1
I-3
tp519
I2
I00
tp520
F-1.0
s((I13
I3
tp521
I0
I00
tp522
F-1.0
s((I-5
I9
tp523
I2
I00
tp524
F-1.0
s((I-1
I0
tp525
I1
I00
tp526
F-1.0
s((I-3
I1
tp527
I2
I00
tp528
F-1.0
s((I-5
I-8
tp529
I0
I00
tp530
F-1.0
s((I-2
I-10
tp531
I2
I00
tp532
F-1.0
s((I4
I6
tp533
I2
I00
tp534
F-1.0
s((I5
I-5
tp535
I3
I00
tp536
F-1.0
s((I-3
I0
tp537
I1
I00
tp538
F-1.0
s((I-7
I1
tp539
I0
I01
tp540
F19.0
s((I-10
I-10
tp541
I2
I00
tp542
F-1.0
s((I22
I-1
tp543
I3
I00
tp544
F-1.0
s((I-5
I0
tp545
I1
I00
tp546
F-1.0
s((I-6
I16
tp547
I3
I00
tp548
F-1.0
s((I2
I1
tp549
I2
I00
tp550
F-1.0
s((I-2
I-11
tp551
I3
I00
tp552
F-1.0
s((I-13
I3
tp553
I2
I00
tp554
F-1.0
s((I-5
I12
tp555
I0
I00
tp556
F-1.0
s((I0
I-7
tp557
I3
I00
tp558
F-1.0
s((I5
I1
tp559
I2
I00
tp560
F-1.0
s((I7
I13
tp561
I1
I00
tp562
F-1.0
s((I-1
I1
tp563
I1
I00
tp564
F-1.0
s((I-6
I0
tp565
I0
I01
tp566
F19.0
s((I2
I15
tp567
I2
I00
tp568
F-1.0
s((I-2
I-7
tp569
I2
I00
tp570
F-1.0
s((I8
I5
tp571
I1
I00
tp572
F-1.0
s((I-3
I4
tp573
I0
I00
tp574
F-1.0
s((I3
I0
tp575
I1
I00
tp576
F-1.0
s((I-4
I5
tp577
I0
I00
tp578
F-1.0
s((I-6
I6
tp579
I1
I00
tp580
F-1.0
s((I7
I-7
tp581
I1
I00
tp582
F-1.0
s((I21
I-2
tp583
I3
I00
tp584
F-1.0
s((I0
I-10
tp585
I2
I00
tp586
F-1.0
s((I-5
I5
tp587
I1
I00
tp588
F-1.0
s((I-8
I-11
tp589
I2
I00
tp590
F-1.0
s((I-5
I-11
tp591
I1
I00
tp592
F-1.0
s((I-13
I-2
tp593
I1
I00
tp594
F-1.0
s((I-13
I1
tp595
I3
I00
tp596
F-1.0
s((I0
I-11
tp597
I1
I00
tp598
F-1.0
s((I-1
I-4
tp599
I3
I00
tp600
F-1.0
s((I-2
I4
tp601
I1
I00
tp602
F-1.0
s((I-4
I-1
tp603
I0
I00
tp604
F-1.0
s((I-5
I-7
tp605
I0
I00
tp606
F-1.0
s((I-2
I-2
tp607
I3
I00
tp608
F-1.0
s((I19
I1
tp609
I1
I00
tp610
F-1.0
s((I-4
I16
tp611
I2
I00
tp612
F-1.0
s((I-5
I13
tp613
I0
I00
tp614
F-1.0
s((I-3
I-9
tp615
I0
I01
tp616
F19.0
s((I9
I-3
tp617
I0
I00
tp618
F-1.0
s((I7
I1
tp619
I2
I00
tp620
F-1.0
s((I-2
I5
tp621
I2
I00
tp622
F-1.0
s((I-4
I-10
tp623
I3
I00
tp624
F-1.0
s((I-5
I16
tp625
I1
I00
tp626
F-1.0
s((I-4
I7
tp627
I3
I00
tp628
F-1.0
s((I-2
I-6
tp629
I0
I00
tp630
F-1.0
s((I1
I-6
tp631
I3
I00
tp632
F-1.0
s((I9
I11
tp633
I0
I00
tp634
F-1.0
s((I-4
I11
tp635
I2
I00
tp636
F-1.0
s((I-4
I0
tp637
I2
I00
tp638
F-1.0
s((I-1
I8
tp639
I2
I00
tp640
F-1.0
s((I-10
I-3
tp641
I0
I00
tp642
F-1.0
s((I-5
I4
tp643
I3
I00
tp644
F-1.0
s((I-7
I5
tp645
I3
I00
tp646
F-1.0
s((I4
I-1
tp647
I1
I00
tp648
F-1.0
s((I-8
I-4
tp649
I0
I00
tp650
F-1.0
s((I0
I2
tp651
I3
I00
tp652
F-1.0
s((I3
I1
tp653
I3
I00
tp654
F-1.0
s((I7
I-1
tp655
I2
I00
tp656
F-1.0
s((I9
I-4
tp657
I0
I00
tp658
F-1.0
s((I-1
I-6
tp659
I3
I00
tp660
F-1.0
s((I-11
I2
tp661
I0
I01
tp662
F-11.0
s((I8
I-3
tp663
I2
I00
tp664
F-1.0
s((I-3
I5
tp665
I3
I00
tp666
F-1.0
s((I10
I11
tp667
I3
I00
tp668
F-1.0
s((I-3
I3
tp669
I3
I00
tp670
F-1.0
s((I0
I1
tp671
I2
I00
tp672
F-1.0
s((I-1
I11
tp673
I1
I00
tp674
F-1.0
s((I-12
I2
tp675
I0
I00
tp676
F-1.0
s((I3
I-1
tp677
I1
I00
tp678
F-1.0
s((I-4
I-6
tp679
I3
I00
tp680
F-1.0
s((I-8
I3
tp681
I3
I00
tp682
F-1.0
s((I17
I-1
tp683
I1
I00
tp684
F-1.0
s((I-1
I-5
tp685
I1
I00
tp686
F-1.0
s((I-2
I6
tp687
I1
I00
tp688
F-1.0
s((I1
I4
tp689
I0
I00
tp690
F-1.0
s((I-6
I1
tp691
I3
I00
tp692
F-1.0
s((I-7
I-14
tp693
I0
I00
tp694
F-1.0
s((I-4
I-13
tp695
I3
I00
tp696
F-1.0
s((I6
I8
tp697
I2
I00
tp698
F-1.0
s((I-9
I1
tp699
I1
I00
tp700
F-1.0
s((I5
I-2
tp701
I3
I00
tp702
F-1.0
s((I2
I10
tp703
I0
I00
tp704
F-1.0
s((I-4
I-13
tp705
I0
I00
tp706
F-1.0
s((I18
I-4
tp707
I3
I00
tp708
F-1.0
s((I-2
I6
tp709
I0
I00
tp710
F-1.0
s((I-11
I1
tp711
I1
I00
tp712
F-1.0
s((I3
I-8
tp713
I1
I00
tp714
F-1.0
s((I9
I-3
tp715
I2
I00
tp716
F-1.0
s((I-5
I-12
tp717
I2
I00
tp718
F-1.0
s((I-2
I0
tp719
I1
I00
tp720
F-1.0
s((I2
I1
tp721
I3
I00
tp722
F-1.0
s((I3
I15
tp723
I1
I00
tp724
F-1.0
s((I5
I-5
tp725
I2
I00
tp726
F-1.0
s((I10
I12
tp727
I2
I00
tp728
F-1.0
s((I13
I4
tp729
I2
I00
tp730
F-1.0
s((I7
I10
tp731
I1
I00
tp732
F-1.0
s((I-8
I4
tp733
I2
I00
tp734
F-1.0
s((I17
I-3
tp735
I3
I00
tp736
F-1.0
s((I3
I-2
tp737
I3
I00
tp738
F-1.0
s((I4
I-6
tp739
I0
I00
tp740
F-1.0
s((I2
I-4
tp741
I2
I00
tp742
F-1.0
s((I17
I-4
tp743
I0
I00
tp744
F-1.0
s((I-5
I-8
tp745
I1
I00
tp746
F-1.0
s((I3
I-3
tp747
I2
I00
tp748
F-1.0
s((I-4
I-1
tp749
I1
I00
tp750
F-1.0
s((I2
I-1
tp751
I0
I00
tp752
F-1.0
s((I-11
I-11
tp753
I0
I00
tp754
F-1.0
s((I-8
I3
tp755
I2
I00
tp756
F-1.0
s((I9
I5
tp757
I2
I00
tp758
F-1.0
s((I-5
I0
tp759
I2
I00
tp760
F-1.0
s((I-6
I16
tp761
I2
I00
tp762
F-1.0
s((I-9
I3
tp763
I3
I00
tp764
F-1.0
s((I2
I3
tp765
I2
I00
tp766
F-1.0
s((I-4
I-9
tp767
I2
I00
tp768
F-1.0
s((I0
I7
tp769
I0
I00
tp770
F-1.0
s((I2
I-4
tp771
I3
I00
tp772
F-1.0
s((I11
I-3
tp773
I0
I00
tp774
F-1.0
s((I3
I-1
tp775
I2
I00
tp776
F-1.0
s((I-10
I-1
tp777
I0
I00
tp778
F-1.0
s((I2
I5
tp779
I2
I00
tp780
F-1.0
s((I2
I15
tp781
I3
I00
tp782
F-1.0
s((I-8
I0
tp783
I2
I00
tp784
F-1.0
s((I-5
I3
tp785
I3
I00
tp786
F-1.0
s((I-1
I5
tp787
I2
I00
tp788
F-1.0
s((I0
I11
tp789
I1
I00
tp790
F-1.0
s((I-8
I4
tp791
I0
I00
tp792
F-1.0
s((I0
I3
tp793
I2
I00
tp794
F-1.0
s((I3
I0
tp795
I2
I00
tp796
F-1.0
s((I-4
I5
tp797
I1
I00
tp798
F-1.0
s((I-7
I-10
tp799
I1
I00
tp800
F-1.0
s((I-4
I1
tp801
I3
I00
tp802
F-1.0
s((I7
I0
tp803
I2
I00
tp804
F-1.0
s((I7
I9
tp805
I2
I00
tp806
F-1.0
s((I10
I-2
tp807
I2
I00
tp808
F-1.0
s((I11
I1
tp809
I0
I00
tp810
F-1.0
s((I-1
I2
tp811
I0
I00
tp812
F-1.0
s((I-8
I-11
tp813
I3
I00
tp814
F-1.0
s((I-5
I-11
tp815
I0
I00
tp816
F-1.0
s((I-5
I-12
tp817
I3
I00
tp818
F-1.0
s((I3
I14
tp819
I0
I00
tp820
F-1.0
s((I-5
I6
tp821
I3
I01
tp822
F19.0
s((I-1
I-4
tp823
I2
I00
tp824
F-1.0
s((I-5
I15
tp825
I3
I00
tp826
F-1.0
s((I-5
I2
tp827
I1
I00
tp828
F-1.0
s((I16
I-3
tp829
I2
I00
tp830
F-1.0
s((I-1
I-8
tp831
I3
I00
tp832
F-1.0
s((I5
I7
tp833
I3
I00
tp834
F-1.0
s((I13
I6
tp835
I0
I00
tp836
F-1.0
s((I-4
I5
tp837
I3
I00
tp838
F-1.0
s((I-2
I7
tp839
I1
I00
tp840
F-1.0
s((I5
I8
tp841
I0
I00
tp842
F-1.0
s((I-2
I1
tp843
I1
I00
tp844
F-1.0
s((I19
I1
tp845
I0
I00
tp846
F-1.0
s((I7
I-4
tp847
I0
I00
tp848
F-1.0
s((I2
I-7
tp849
I3
I00
tp850
F-1.0
s((I-15
I1
tp851
I3
I00
tp852
F-1.0
s((I-6
I-15
tp853
I1
I00
tp854
F-1.0
s((I2
I-6
tp855
I3
I00
tp856
F-1.0
s((I-2
I-1
tp857
I3
I00
tp858
F-1.0
s((I-4
I7
tp859
I0
I00
tp860
F-1.0
s((I-7
I-6
tp861
I2
I00
tp862
F-1.0
s((I-2
I12
tp863
I0
I00
tp864
F-1.0
s((I-9
I-11
tp865
I3
I00
tp866
F-1.0
s((I6
I10
tp867
I0
I00
tp868
F-1.0
s((I5
I5
tp869
I3
I00
tp870
F-1.0
s((I-9
I-7
tp871
I0
I00
tp872
F-1.0
s((I1
I-2
tp873
I0
I00
tp874
F-1.0
s((I1
I10
tp875
I3
I00
tp876
F-1.0
s((I9
I-2
tp877
I2
I00
tp878
F-1.0
s((I-7
I5
tp879
I2
I00
tp880
F-1.0
s((I1
I2
tp881
I0
I00
tp882
F-1.0
s((I-2
I-4
tp883
I0
I00
tp884
F-1.0
s((I0
I2
tp885
I2
I00
tp886
F-1.0
s((I-10
I1
tp887
I2
I00
tp888
F-1.0
s((I-6
I-14
tp889
I0
I00
tp890
F-1.0
s((I-3
I-9
tp891
I1
I00
tp892
F-1.0
s((I4
I7
tp893
I0
I00
tp894
F-1.0
s((I-4
I-8
tp895
I1
I01
tp896
F19.0
s((I-3
I8
tp897
I2
I00
tp898
F-1.0
s((I-3
I3
tp899
I2
I00
tp900
F-1.0
s((I-2
I1
tp901
I3
I00
tp902
F-1.0
s((I15
I1
tp903
I0
I00
tp904
F-1.0
s((I18
I1
tp905
I2
I00
tp906
F-1.0
s((I12
I-1
tp907
I0
I00
tp908
F-1.0
s((I-2
I-4
tp909
I1
I00
tp910
F-1.0
s((I-2
I14
tp911
I3
I00
tp912
F-1.0
s((I6
I12
tp913
I0
I00
tp914
F-1.0
s((I-6
I1
tp915
I0
I00
tp916
F-1.0
s((I8
I-2
tp917
I3
I00
tp918
F-1.0
s((I-7
I4
tp919
I0
I00
tp920
F-1.0
s((I12
I7
tp921
I0
I00
tp922
F-1.0
s((I-9
I1
tp923
I0
I00
tp924
F-1.0
s((I-5
I-6
tp925
I1
I00
tp926
F-1.0
s((I-8
I1
tp927
I0
I00
tp928
F-1.0
s((I2
I-1
tp929
I1
I01
tp930
F19.0
s((I6
I-7
tp931
I2
I00
tp932
F-1.0
s((I3
I-8
tp933
I2
I00
tp934
F-1.0
s((I-12
I3
tp935
I2
I00
tp936
F-1.0
s((I-6
I-12
tp937
I3
I00
tp938
F-1.0
s((I-1
I-3
tp939
I0
I00
tp940
F-1.0
s((I13
I4
tp941
I3
I00
tp942
F-1.0
s((I-2
I3
tp943
I1
I00
tp944
F-1.0
s((I2
I13
tp945
I1
I00
tp946
F-1.0
s((I8
I4
tp947
I0
I01
tp948
F19.0
s((I-5
I-14
tp949
I1
I00
tp950
F-1.0
s((I-3
I1
tp951
I0
I00
tp952
F-1.0
s((I-5
I-8
tp953
I2
I00
tp954
F-1.0
s((I-2
I6
tp955
I3
I00
tp956
F-1.0
s((I-4
I-2
tp957
I0
I00
tp958
F-1.0
s((I-8
I2
tp959
I1
I00
tp960
F-1.0
s((I4
I14
tp961
I3
I00
tp962
F-1.0
s((I-1
I-12
tp963
I0
I00
tp964
F-1.0
s((I19
I-2
tp965
I1
I00
tp966
F-1.0
s((I19
I0
tp967
I1
I00
tp968
F-1.0
s((I5
I-3
tp969
I2
I00
tp970
F-1.0
s((I7
I1
tp971
I0
I00
tp972
F-1.0
s((I6
I4
tp973
I2
I01
tp974
F19.0
s((I-5
I0
tp975
I3
I00
tp976
F-1.0
s((I-9
I3
tp977
I2
I00
tp978
F-1.0
s((I-3
I9
tp979
I3
I00
tp980
F-1.0
s((I2
I3
tp981
I3
I00
tp982
F-1.0
s((I-4
I-9
tp983
I3
I00
tp984
F-1.0
s((I11
I9
tp985
I2
I00
tp986
F-1.0
s((I0
I5
tp987
I1
I00
tp988
F-1.0
s((I-5
I-9
tp989
I3
I00
tp990
F-1.0
s((I-8
I-3
tp991
I1
I00
tp992
F-1.0
s((I-1
I-8
tp993
I0
I00
tp994
F-1.0
s((I-2
I5
tp995
I3
I00
tp996
F-1.0
s((I-5
I8
tp997
I0
I00
tp998
F-1.0
s((I0
I3
tp999
I3
I00
tp1000
F-1.0
s((I-7
I0
tp1001
I2
I00
tp1002
F-1.0
s((I-3
I-1
tp1003
I3
I00
tp1004
F-1.0
s((I4
I-3
tp1005
I2
I00
tp1006
F-1.0
s((I-7
I4
tp1007
I3
I00
tp1008
F-1.0
s((I-2
I9
tp1009
I2
I00
tp1010
F-1.0
s((I-1
I-4
tp1011
I1
I00
tp1012
F-1.0
s((I0
I-10
tp1013
I0
I00
tp1014
F-1.0
s((I11
I4
tp1015
I3
I00
tp1016
F-1.0
s((I-4
I11
tp1017
I3
I00
tp1018
F-1.0
s((I-5
I-11
tp1019
I3
I00
tp1020
F-1.0
s((I-2
I11
tp1021
I0
I00
tp1022
F-1.0
s((I-11
I-2
tp1023
I3
I00
tp1024
F-1.0
s((I5
I6
tp1025
I2
I00
tp1026
F-1.0
s((I2
I0
tp1027
I1
I00
tp1028
F-1.0
s((I-5
I15
tp1029
I2
I00
tp1030
F-1.0
s((I5
I4
tp1031
I1
I00
tp1032
F-1.0
s((I16
I-3
tp1033
I3
I00
tp1034
F-1.0
s((I-1
I-8
tp1035
I2
I00
tp1036
F-1.0
s((I-5
I6
tp1037
I0
I00
tp1038
F-1.0
s((I5
I7
tp1039
I2
I00
tp1040
F-1.0
s((I5
I11
tp1041
I1
I00
tp1042
F-1.0
s((I2
I-5
tp1043
I2
I00
tp1044
F-1.0
s((I-3
I-11
tp1045
I3
I00
tp1046
F-1.0
s((I-3
I-7
tp1047
I1
I00
tp1048
F-1.0
s((I-7
I2
tp1049
I1
I00
tp1050
F-1.0
s((I2
I4
tp1051
I2
I00
tp1052
F-1.0
s((I-1
I-1
tp1053
I0
I00
tp1054
F-1.0
s((I-5
I7
tp1055
I2
I00
tp1056
F-1.0
s((I-12
I4
tp1057
I2
I00
tp1058
F-1.0
s((I0
I-5
tp1059
I2
I00
tp1060
F-1.0
s((I1
I6
tp1061
I3
I00
tp1062
F-1.0
s((I8
I-4
tp1063
I0
I00
tp1064
F-1.0
s((I9
I0
tp1065
I2
I00
tp1066
F-1.0
s((I-4
I2
tp1067
I0
I00
tp1068
F-1.0
s((I11
I5
tp1069
I2
I00
tp1070
F-1.0
s((I-2
I-4
tp1071
I3
I00
tp1072
F-1.0
s((I-2
I8
tp1073
I0
I00
tp1074
F-1.0
s((I5
I3
tp1075
I0
I00
tp1076
F-1.0
s((I1
I-1
tp1077
I1
I00
tp1078
F-1.0
s((I7
I-5
tp1079
I1
I00
tp1080
F-1.0
s((I1
I2
tp1081
I1
I00
tp1082
F-1.0
s((I0
I2
tp1083
I1
I00
tp1084
F-1.0
s((I-10
I1
tp1085
I3
I00
tp1086
F-1.0
s((I1
I14
tp1087
I0
I00
tp1088
F-1.0
s((I2
I-9
tp1089
I0
I00
tp1090
F-1.0
s((I3
I9
tp1091
I0
I00
tp1092
F-1.0
s((I-5
I6
tp1093
I2
I00
tp1094
F-1.0
s((I-11
I-5
tp1095
I2
I00
tp1096
F-1.0
s((I-7
I0
tp1097
I0
I01
tp1098
F19.0
s((I3
I5
tp1099
I1
I00
tp1100
F-1.0
s((I7
I-3
tp1101
I3
I00
tp1102
F-1.0
s((I-15
I3
tp1103
I3
I00
tp1104
F-1.0
s((I3
I4
tp1105
I2
I00
tp1106
F-1.0
s((I-13
I-2
tp1107
I3
I00
tp1108
F-1.0
s((I6
I9
tp1109
I1
I00
tp1110
F-1.0
s((I-1
I7
tp1111
I2
I00
tp1112
F-1.0
s((I1
I5
tp1113
I1
I00
tp1114
F-1.0
s((I-4
I4
tp1115
I3
I00
tp1116
F-1.0
s((I17
I-2
tp1117
I3
I00
tp1118
F-1.0
s((I1
I1
tp1119
I2
I00
tp1120
F-1.0
s((I18
I0
tp1121
I2
I00
tp1122
F-1.0
s((I-6
I1
tp1123
I1
I00
tp1124
F-1.0
s((I4
I12
tp1125
I1
I00
tp1126
F-1.0
s((I12
I7
tp1127
I1
I00
tp1128
F-1.0
s((I-9
I1
tp1129
I3
I00
tp1130
F-1.0
s((I2
I-5
tp1131
I1
I00
tp1132
F-1.0
s((I5
I8
tp1133
I1
I00
tp1134
F-1.0
s((I18
I-4
tp1135
I1
I00
tp1136
F-1.0
s((I-6
I5
tp1137
I3
I00
tp1138
F-1.0
s((I9
I4
tp1139
I0
I00
tp1140
F-1.0
s((I-4
I0
tp1141
I1
I00
tp1142
F-1.0
s((I-4
I-7
tp1143
I3
I00
tp1144
F-1.0
s((I5
I-4
tp1145
I2
I00
tp1146
F-1.0
s((I7
I-4
tp1147
I1
I00
tp1148
F-1.0
s((I-1
I-9
tp1149
I2
I00
tp1150
F-1.0
s((I-7
I-11
tp1151
I0
I00
tp1152
F-1.0
s((I6
I-2
tp1153
I0
I00
tp1154
F-1.0
s((I9
I12
tp1155
I3
I00
tp1156
F-1.0
s((I6
I13
tp1157
I2
I00
tp1158
F-1.0
s((I13
I4
tp1159
I0
I00
tp1160
F-1.0
s((I18
I-2
tp1161
I1
I00
tp1162
F-1.0
s((I-1
I3
tp1163
I2
I00
tp1164
F-1.0
s((I17
I-3
tp1165
I1
I00
tp1166
F-1.0
s((I-2
I7
tp1167
I0
I00
tp1168
F-1.0
s((I-5
I10
tp1169
I2
I00
tp1170
F-1.0
s((I5
I6
tp1171
I3
I00
tp1172
F-1.0
s((I4
I-6
tp1173
I2
I00
tp1174
F-1.0
s((I6
I-6
tp1175
I3
I00
tp1176
F-1.0
s((I-3
I-7
tp1177
I3
I00
tp1178
F-1.0
s((I-1
I-2
tp1179
I2
I00
tp1180
F-1.0
s((I-5
I13
tp1181
I3
I00
tp1182
F-1.0
s((I-4
I-10
tp1183
I2
I00
tp1184
F-1.0
s((I-7
I-8
tp1185
I2
I00
tp1186
F-1.0
s((I3
I10
tp1187
I1
I00
tp1188
F-1.0
s((I-10
I-11
tp1189
I2
I00
tp1190
F-1.0
s((I-8
I3
tp1191
I0
I00
tp1192
F-1.0
s((I19
I-4
tp1193
I1
I00
tp1194
F-1.0
s((I-1
I-8
tp1195
I1
I01
tp1196
F19.0
s((I9
I-3
tp1197
I1
I00
tp1198
F-1.0
s((I-1
I-6
tp1199
I0
I00
tp1200
F-1.0
s((I-1
I-7
tp1201
I1
I01
tp1202
F19.0
s((I-5
I12
tp1203
I3
I00
tp1204
F-1.0
s((I-4
I-9
tp1205
I0
I00
tp1206
F-1.0
s((I10
I5
tp1207
I3
I00
tp1208
F-1.0
s((I5
I-6
tp1209
I0
I00
tp1210
F-1.0
s((I-2
I-7
tp1211
I3
I00
tp1212
F-1.0
s((I14
I1
tp1213
I1
I00
tp1214
F-1.0
s((I-5
I-9
tp1215
I2
I00
tp1216
F-1.0
s((I-5
I2
tp1217
I2
I00
tp1218
F-1.0
s((I5
I13
tp1219
I3
I00
tp1220
F-1.0
s((I-1
I5
tp1221
I0
I00
tp1222
F-1.0
s((I2
I1
tp1223
I1
I00
tp1224
F-1.0
s((I-2
I3
tp1225
I0
I00
tp1226
F-1.0
s((I5
I-6
tp1227
I2
I00
tp1228
F-1.0
s((I7
I-2
tp1229
I3
I00
tp1230
F-1.0
s((I-3
I-8
tp1231
I0
I00
tp1232
F-1.0
s((I-10
I0
tp1233
I0
I00
tp1234
F-1.0
s((I-4
I7
tp1235
I1
I00
tp1236
F-1.0
s((I7
I4
tp1237
I1
I00
tp1238
F-1.0
s((I10
I-2
tp1239
I1
I00
tp1240
F-1.0
s((I-7
I7
tp1241
I2
I00
tp1242
F-1.0
s((I6
I2
tp1243
I0
I00
tp1244
F-1.0
s((I-1
I1
tp1245
I2
I00
tp1246
F-1.0
s((I-7
I-10
tp1247
I0
I00
tp1248
F-1.0
s((I11
I1
tp1249
I2
I00
tp1250
F-1.0
s((I-4
I-6
tp1251
I1
I00
tp1252
F-1.0
s((I6
I-1
tp1253
I3
I00
tp1254
F-1.0
s((I-5
I-11
tp1255
I2
I00
tp1256
F-1.0
s((I2
I0
tp1257
I0
I00
tp1258
F-1.0
s((I1
I-2
tp1259
I3
I00
tp1260
F-1.0
s((I-10
I3
tp1261
I1
I00
tp1262
F-1.0
s((I5
I2
tp1263
I0
I00
tp1264
F-1.0
s((I-1
I-8
tp1265
I1
I00
tp1266
F-1.0
s((I-1
I2
tp1267
I1
I00
tp1268
F-1.0
s((I-3
I-15
tp1269
I1
I00
tp1270
F-1.0
s((I2
I-1
tp1271
I1
I00
tp1272
F-1.0
s((I2
I-5
tp1273
I3
I00
tp1274
F-1.0
s((I-8
I-6
tp1275
I2
I00
tp1276
F-1.0
s((I-3
I-11
tp1277
I2
I00
tp1278
F-1.0
s((I5
I3
tp1279
I1
I00
tp1280
F-1.0
s((I19
I1
tp1281
I2
I00
tp1282
F-1.0
s((I-7
I2
tp1283
I2
I00
tp1284
F-1.0
s((I0
I-9
tp1285
I2
I00
tp1286
F-1.0
s((I0
I13
tp1287
I2
I00
tp1288
F-1.0
s((I5
I-8
tp1289
I1
I00
tp1290
F-1.0
s((I18
I-2
tp1291
I2
I00
tp1292
F-1.0
s((I-4
I10
tp1293
I2
I00
tp1294
F-1.0
s((I-3
I-8
tp1295
I2
I00
tp1296
F-1.0
s((I-1
I-1
tp1297
I1
I00
tp1298
F-1.0
s((I2
I-2
tp1299
I0
I00
tp1300
F-1.0
s((I6
I-5
tp1301
I2
I00
tp1302
F-1.0
s((I6
I10
tp1303
I2
I00
tp1304
F-1.0
s((I1
I3
tp1305
I0
I00
tp1306
F-1.0
s((I-4
I3
tp1307
I2
I00
tp1308
F-1.0
s((I-9
I-7
tp1309
I2
I00
tp1310
F-1.0
s((I1
I-2
tp1311
I2
I00
tp1312
F-1.0
s((I4
I-5
tp1313
I0
I00
tp1314
F-1.0
s((I-3
I1
tp1315
I0
I01
tp1316
F19.0
s((I7
I-5
tp1317
I0
I00
tp1318
F-1.0
s((I1
I2
tp1319
I2
I00
tp1320
F-1.0
s((I6
I-5
tp1321
I1
I00
tp1322
F-1.0
s((I-1
I-11
tp1323
I2
I00
tp1324
F-1.0
s((I0
I2
tp1325
I0
I00
tp1326
F-1.0
s((I10
I-3
tp1327
I0
I00
tp1328
F-1.0
s((I2
I0
tp1329
I2
I00
tp1330
F-1.0
s((I-3
I-9
tp1331
I3
I00
tp1332
F-1.0
s((I4
I-7
tp1333
I1
I00
tp1334
F-1.0
s((I2
I-1
tp1335
I3
I00
tp1336
F-1.0
s((I3
I5
tp1337
I0
I00
tp1338
F-1.0
s((I-4
I15
tp1339
I0
I00
tp1340
F-1.0
s((I-15
I3
tp1341
I2
I00
tp1342
F-1.0
s((I-3
I8
tp1343
I0
I00
tp1344
F-1.0
s((I14
I2
tp1345
I1
I00
tp1346
F-1.0
s((I-5
I9
tp1347
I0
I00
tp1348
F-1.0
s((I5
I9
tp1349
I3
I00
tp1350
F-1.0
s((I4
I-8
tp1351
I2
I00
tp1352
F-1.0
s((I5
I4
tp1353
I0
I00
tp1354
F-1.0
s((I1
I1
tp1355
I1
I00
tp1356
F-1.0
s((I-9
I6
tp1357
I3
I00
tp1358
F-1.0
s((I0
I1
tp1359
I3
I00
tp1360
F-1.0
s((I-1
I-3
tp1361
I1
I00
tp1362
F-1.0
s((I2
I-8
tp1363
I0
I00
tp1364
F-1.0
s((I-4
I-12
tp1365
I0
I00
tp1366
F-1.0
s((I-10
I-6
tp1367
I1
I00
tp1368
F-1.0
s((I-2
I8
tp1369
I2
I00
tp1370
F-1.0
s((I1
I-7
tp1371
I3
I00
tp1372
F-1.0
s((I12
I11
tp1373
I1
I00
tp1374
F-1.0
s((I-8
I1
tp1375
I2
I00
tp1376
F-1.0
s((I-12
I-5
tp1377
I2
I00
tp1378
F-1.0
s((I13
I1
tp1379
I3
I01
tp1380
F19.0
s((I6
I-7
tp1381
I0
I00
tp1382
F-1.0
s((I-12
I3
tp1383
I0
I00
tp1384
F-1.0
s((I-3
I10
tp1385
I3
I00
tp1386
F-1.0
s((I6
I1
tp1387
I0
I00
tp1388
F-1.0
s((I-3
I2
tp1389
I0
I00
tp1390
F-1.0
s((I1
I3
tp1391
I3
I00
tp1392
F-1.0
s((I6
I13
tp1393
I3
I00
tp1394
F-1.0
s((I-12
I1
tp1395
I0
I00
tp1396
F-1.0
s((I13
I4
tp1397
I1
I00
tp1398
F-1.0
s((I7
I7
tp1399
I3
I00
tp1400
F-1.0
s((I17
I-3
tp1401
I0
I00
tp1402
F-1.0
s((I-4
I4
tp1403
I2
I00
tp1404
F-1.0
s((I6
I2
tp1405
I3
I01
tp1406
F-11.0
s((I0
I-11
tp1407
I0
I00
tp1408
F-1.0
s((I-1
I-11
tp1409
I3
I00
tp1410
F-1.0
s((I-5
I13
tp1411
I2
I00
tp1412
F-1.0
s((I-4
I-10
tp1413
I1
I00
tp1414
F-1.0
s((I7
I6
tp1415
I3
I00
tp1416
F-1.0
s((I19
I0
tp1417
I3
I00
tp1418
F-1.0
s((I-10
I-11
tp1419
I3
I00
tp1420
F-1.0
s((I6
I3
tp1421
I0
I00
tp1422
F-1.0
s((I-8
I3
tp1423
I1
I00
tp1424
F-1.0
s((I15
I2
tp1425
I1
I00
tp1426
F-1.0
s((I-3
I9
tp1427
I1
I00
tp1428
F-1.0
s((I-4
I-9
tp1429
I1
I00
tp1430
F-1.0
s((I1
I-2
tp1431
I1
I01
tp1432
F-11.0
s((I-5
I4
tp1433
I1
I00
tp1434
F-1.0
s((I16
I0
tp1435
I0
I00
tp1436
F-1.0
s((I0
I-8
tp1437
I1
I00
tp1438
F-1.0
s((I-5
I-13
tp1439
I2
I00
tp1440
F-1.0
s((I-1
I0
tp1441
I3
I00
tp1442
F-1.0
s((I-1
I5
tp1443
I1
I00
tp1444
F-1.0
s((I-5
I8
tp1445
I2
I00
tp1446
F-1.0
s((I0
I14
tp1447
I3
I00
tp1448
F-1.0
s((I-6
I15
tp1449
I3
I00
tp1450
F-1.0
s((I6
I11
tp1451
I1
I00
tp1452
F-1.0
s((I7
I4
tp1453
I2
I00
tp1454
F-1.0
s((I10
I-1
tp1455
I0
I00
tp1456
F-1.0
s((I3
I-2
tp1457
I1
I00
tp1458
F-1.0
s((I-1
I-7
tp1459
I1
I00
tp1460
F-1.0
s((I7
I8
tp1461
I1
I00
tp1462
F-1.0
s((I15
I-3
tp1463
I3
I00
tp1464
F-1.0
s((I-6
I4
tp1465
I0
I00
tp1466
F-1.0
s((I-13
I2
tp1467
I2
I00
tp1468
F-1.0
s((I-8
I-4
tp1469
I1
I00
tp1470
F-1.0
s((I11
I0
tp1471
I1
I00
tp1472
F-1.0
s((I-4
I13
tp1473
I1
I00
tp1474
F-1.0
s((I5
I-7
tp1475
I3
I00
tp1476
F-1.0
s((I-2
I-8
tp1477
I0
I00
tp1478
F-1.0
s((I-2
I2
tp1479
I0
I00
tp1480
F-1.0
s((I-6
I-13
tp1481
I2
I00
tp1482
F-1.0
s((I-11
I-6
tp1483
I1
I00
tp1484
F-1.0
s((I-12
I-2
tp1485
I1
I00
tp1486
F-1.0
s((I7
I-4
tp1487
I3
I00
tp1488
F-1.0
s((I12
I2
tp1489
I3
I00
tp1490
F-1.0
s((I0
I13
tp1491
I3
I00
tp1492
F-1.0
s((I-1
I-10
tp1493
I1
I00
tp1494
F-1.0
s((I4
I8
tp1495
I1
I00
tp1496
F-1.0
s((I11
I8
tp1497
I2
I00
tp1498
F-1.0
s((I-11
I-11
tp1499
I3
I00
tp1500
F-1.0
s((I-9
I-1
tp1501
I0
I00
tp1502
F-1.0
s((I-6
I4
tp1503
I1
I00
tp1504
F-1.0
s((I0
I1
tp1505
I1
I00
tp1506
F-1.0
s((I-4
I3
tp1507
I3
I00
tp1508
F-1.0
s((I1
I-5
tp1509
I1
I00
tp1510
F-1.0
s((I1
I-1
tp1511
I3
I00
tp1512
F-1.0
s((I17
I1
tp1513
I2
I00
tp1514
F-1.0
s((I-6
I-14
tp1515
I1
I00
tp1516
F-1.0
s((I1
I2
tp1517
I3
I00
tp1518
F-1.0
s((I-6
I7
tp1519
I2
I00
tp1520
F-1.0
s((I-10
I1
tp1521
I1
I00
tp1522
F-1.0
s((I-3
I-4
tp1523
I2
I00
tp1524
F-1.0
s((I-3
I-9
tp1525
I2
I00
tp1526
F-1.0
s((I19
I-1
tp1527
I0
I00
tp1528
F-1.0
s((I11
I7
tp1529
I3
I00
tp1530
F-1.0
s((I3
I9
tp1531
I3
I00
tp1532
F-1.0
s((I3
I5
tp1533
I3
I00
tp1534
F-1.0
s((I-3
I-11
tp1535
I1
I00
tp1536
F-1.0
s((I1
I-3
tp1537
I1
I00
tp1538
F-1.0
s((I-3
I8
tp1539
I1
I00
tp1540
F-1.0
s((I17
I-1
tp1541
I3
I00
tp1542
F-1.0
s((I14
I2
tp1543
I0
I00
tp1544
F-1.0
s((I11
I11
tp1545
I3
I00
tp1546
F-1.0
s((I-6
I9
tp1547
I2
I00
tp1548
F-1.0
s((I20
I-1
tp1549
I3
I00
tp1550
F-1.0
s((I-4
I12
tp1551
I3
I00
tp1552
F-1.0
s((I-6
I8
tp1553
I3
I00
tp1554
F-1.0
s((I1
I1
tp1555
I0
I00
tp1556
F-1.0
s((I-3
I12
tp1557
I3
I00
tp1558
F-1.0
s((I3
I12
tp1559
I0
I00
tp1560
F-1.0
s((I15
I-2
tp1561
I2
I00
tp1562
F-1.0
s((I-4
I-12
tp1563
I3
I00
tp1564
F-1.0
s((I2
I-8
tp1565
I3
I00
tp1566
F-1.0
s((I15
I1
tp1567
I1
I00
tp1568
F-1.0
s((I-4
I-8
tp1569
I0
I00
tp1570
F-1.0
s((I-9
I-6
tp1571
I2
I00
tp1572
F-1.0
s((I-8
I1
tp1573
I3
I00
tp1574
F-1.0
s((I1
I13
tp1575
I2
I00
tp1576
F-1.0
s((I3
I8
tp1577
I0
I00
tp1578
F-1.0
s((I-6
I5
tp1579
I1
I00
tp1580
F-1.0
s((I7
I3
tp1581
I3
I00
tp1582
F-1.0
s((I-3
I7
tp1583
I3
I00
tp1584
F-1.0
s((I-12
I3
tp1585
I1
I00
tp1586
F-1.0
s((I-3
I3
tp1587
I1
I00
tp1588
F-1.0
s((I-3
I2
tp1589
I1
I00
tp1590
F-1.0
s((I7
I-4
tp1591
I2
I00
tp1592
F-1.0
s((I-1
I-9
tp1593
I0
I00
tp1594
F-1.0
s((I-4
I-12
tp1595
I1
I00
tp1596
F-1.0
s((I-1
I-10
tp1597
I3
I00
tp1598
F-1.0
s((I-10
I-2
tp1599
I1
I00
tp1600
F-1.0
s((I0
I-6
tp1601
I3
I00
tp1602
F-1.0
s((I-9
I4
tp1603
I3
I00
tp1604
F-1.0
s((I4
I9
tp1605
I3
I00
tp1606
F-1.0
s((I4
I5
tp1607
I0
I00
tp1608
F-1.0
s((I-12
I-5
tp1609
I3
I00
tp1610
F-1.0
s((I-1
I7
tp1611
I1
I00
tp1612
F-1.0
s((I0
I-2
tp1613
I0
I00
tp1614
F-1.0
s((I-2
I-11
tp1615
I0
I00
tp1616
F-1.0
s((I17
I0
tp1617
I2
I00
tp1618
F-1.0
s((I7
I5
tp1619
I2
I00
tp1620
F-1.0
s((I-4
I-10
tp1621
I0
I00
tp1622
F-1.0
s((I6
I-7
tp1623
I1
I00
tp1624
F-1.0
s((I7
I-2
tp1625
I0
I00
tp1626
F-1.0
s((I-14
I-4
tp1627
I3
I00
tp1628
F-1.0
s((I11
I11
tp1629
I2
I00
tp1630
F-1.0
s((I-1
I-6
tp1631
I2
I00
tp1632
F-1.0
s((I-4
I17
tp1633
I2
I00
tp1634
F-1.0
s((I2
I11
tp1635
I2
I00
tp1636
F-1.0
s((I-4
I6
tp1637
I1
I00
tp1638
F-1.0
s((I10
I5
tp1639
I1
I00
tp1640
F-1.0
s((I-5
I4
tp1641
I2
I00
tp1642
F-1.0
s((I-5
I-9
tp1643
I0
I00
tp1644
F-1.0
s((I-3
I2
tp1645
I3
I00
tp1646
F-1.0
s((I0
I-8
tp1647
I0
I00
tp1648
F-1.0
s((I0
I-2
tp1649
I2
I00
tp1650
F-1.0
s((I4
I-7
tp1651
I2
I00
tp1652
F-1.0
s((I-1
I0
tp1653
I2
I00
tp1654
F-1.0
s((I-5
I8
tp1655
I3
I00
tp1656
F-1.0
s((I2
I14
tp1657
I1
I00
tp1658
F-1.0
s((I-7
I0
tp1659
I1
I00
tp1660
F-1.0
s((I12
I7
tp1661
I3
I00
tp1662
F-1.0
s((I-9
I-7
tp1663
I3
I00
tp1664
F-1.0
s((I3
I-6
tp1665
I2
I00
tp1666
F-1.0
s((I7
I4
tp1667
I3
I00
tp1668
F-1.0
s((I10
I-1
tp1669
I3
I00
tp1670
F-1.0
s((I6
I6
tp1671
I1
I00
tp1672
F-1.0
s((I-11
I-12
tp1673
I0
I00
tp1674
F-1.0
s((I1
I0
tp1675
I0
I00
tp1676
F-1.0
s((I1
I4
tp1677
I2
I00
tp1678
F-1.0
s((I6
I-7
tp1679
I3
I00
tp1680
F-1.0
s((I-3
I4
tp1681
I1
I00
tp1682
F-1.0
s((I-13
I-4
tp1683
I2
I00
tp1684
F-1.0
s((I5
I-7
tp1685
I2
I00
tp1686
F-1.0
s((I13
I2
tp1687
I1
I00
tp1688
F-1.0
s((I11
I2
tp1689
I3
I00
tp1690
F-1.0
s((I8
I11
tp1691
I3
I00
tp1692
F-1.0
s((I5
I4
tp1693
I2
I00
tp1694
F-1.0
s((I14
I-2
tp1695
I3
I00
tp1696
F-1.0
s((I-8
I-7
tp1697
I2
I00
tp1698
F-1.0
s((I-2
I0
tp1699
I0
I00
tp1700
F-1.0
s((I-3
I-11
tp1701
I0
I00
tp1702
F-1.0
s((I3
I-4
tp1703
I1
I00
tp1704
F-1.0
s((I-1
I-7
tp1705
I2
I00
tp1706
F-1.0
s((I14
I4
tp1707
I1
I00
tp1708
F-1.0
s((I0
I8
tp1709
I0
I00
tp1710
F-1.0
s((I-4
I-11
tp1711
I1
I00
tp1712
F-1.0
s((I-7
I6
tp1713
I0
I00
tp1714
F-1.0
s((I-4
I10
tp1715
I0
I00
tp1716
F-1.0
s((I5
I-8
tp1717
I3
I00
tp1718
F-1.0
s((I-3
I-3
tp1719
I3
I00
tp1720
F-1.0
s((I-1
I11
tp1721
I0
I00
tp1722
F-1.0
s((I18
I-1
tp1723
I3
I00
tp1724
F-1.0
s((I3
I3
tp1725
I3
I00
tp1726
F-1.0
s((I-2
I-8
tp1727
I3
I00
tp1728
F-1.0
s((I-4
I3
tp1729
I0
I00
tp1730
F-1.0
s((I1
I-5
tp1731
I0
I00
tp1732
F-1.0
s((I1
I0
tp1733
I2
I00
tp1734
F-1.0
s((I17
I1
tp1735
I1
I00
tp1736
F-1.0
s((I12
I1
tp1737
I1
I00
tp1738
F-1.0
s((I4
I-5
tp1739
I2
I00
tp1740
F-1.0
s((I0
I-5
tp1741
I1
I00
tp1742
F-1.0
s((I-4
I-13
tp1743
I0
I01
tp1744
F19.0
s((I-6
I15
tp1745
I0
I00
tp1746
F-1.0
s((I1
I14
tp1747
I3
I00
tp1748
F-1.0
s((I2
I6
tp1749
I3
I00
tp1750
F-1.0
s((I20
I0
tp1751
I1
I00
tp1752
F-1.0
s((I-4
I-7
tp1753
I0
I00
tp1754
F-1.0
s((I3
I5
tp1755
I2
I00
tp1756
F-1.0
s((I-3
I6
tp1757
I1
I00
tp1758
F-1.0
s((I-3
I-13
tp1759
I1
I00
tp1760
F-1.0
s((I-8
I-9
tp1761
I2
I00
tp1762
F-1.0
s((I-8
I-9
tp1763
I0
I00
tp1764
F-1.0
s((I12
I-3
tp1765
I1
I00
tp1766
F-1.0
s((I9
I5
tp1767
I3
I00
tp1768
F-1.0
s((I-5
I4
tp1769
I1
I01
tp1770
F-11.0
s((I-4
I12
tp1771
I2
I00
tp1772
F-1.0
s((I-4
I4
tp1773
I1
I00
tp1774
F-1.0
s((I3
I12
tp1775
I1
I00
tp1776
F-1.0
s((I-9
I-8
tp1777
I0
I00
tp1778
F-1.0
s((I1
I-3
tp1779
I0
I00
tp1780
F-1.0
s((I-6
I6
tp1781
I2
I00
tp1782
F-1.0
s((I-12
I-6
tp1783
I3
I00
tp1784
F-1.0
s((I1
I-7
tp1785
I1
I00
tp1786
F-1.0
s((I0
I4
tp1787
I2
I00
tp1788
F-1.0
s((I1
I13
tp1789
I1
I00
tp1790
F-1.0
s((I-4
I11
tp1791
I0
I00
tp1792
F-1.0
s((I-10
I-2
tp1793
I0
I00
tp1794
F-1.0
s((I-8
I5
tp1795
I0
I00
tp1796
F-1.0
s((I10
I7
tp1797
I3
I00
tp1798
F-1.0
s((I1
I-7
tp1799
I0
I00
tp1800
F-1.0
s((I4
I4
tp1801
I1
I00
tp1802
F-1.0
s((I-3
I2
tp1803
I2
I00
tp1804
F-1.0
s((I-2
I-6
tp1805
I3
I00
tp1806
F-1.0
s((I-7
I-14
tp1807
I3
I00
tp1808
F-1.0
s((I11
I-4
tp1809
I1
I00
tp1810
F-1.0
s((I-8
I2
tp1811
I0
I00
tp1812
F-1.0
s((I6
I5
tp1813
I2
I00
tp1814
F-1.0
s((I1
I-9
tp1815
I3
I00
tp1816
F-1.0
s((I0
I-6
tp1817
I2
I00
tp1818
F-1.0
s((I-5
I10
tp1819
I0
I00
tp1820
F-1.0
s((I4
I5
tp1821
I1
I00
tp1822
F-1.0
s((I5
I-8
tp1823
I2
I00
tp1824
F-1.0
s((I-6
I2
tp1825
I1
I00
tp1826
F-1.0
s((I-1
I-11
tp1827
I1
I00
tp1828
F-1.0
s((I-5
I5
tp1829
I2
I00
tp1830
F-1.0
s((I10
I8
tp1831
I2
I00
tp1832
F-1.0
s((I2
I4
tp1833
I3
I00
tp1834
F-1.0
s((I-6
I-10
tp1835
I3
I00
tp1836
F-1.0
s((I-3
I5
tp1837
I1
I00
tp1838
F-1.0
s((I2
I-7
tp1839
I2
I00
tp1840
F-1.0
s((I2
I9
tp1841
I0
I00
tp1842
F-1.0
s((I8
I9
tp1843
I1
I00
tp1844
F-1.0
s((I-5
I1
tp1845
I1
I00
tp1846
F-1.0
s((I-11
I3
tp1847
I2
I00
tp1848
F-1.0
s((I-2
I2
tp1849
I3
I00
tp1850
F-1.0
s((I3
I-5
tp1851
I3
I00
tp1852
F-1.0
s((I16
I0
tp1853
I2
I00
tp1854
F-1.0
s((I3
I-9
tp1855
I1
I00
tp1856
F-1.0
s((I-10
I-3
tp1857
I2
I00
tp1858
F-1.0
s((I-5
I-13
tp1859
I0
I00
tp1860
F-1.0
s((I2
I-4
tp1861
I1
I00
tp1862
F-1.0
s((I2
I14
tp1863
I0
I00
tp1864
F-1.0
s((I-4
I4
tp1865
I0
I00
tp1866
F-1.0
s((I-2
I4
tp1867
I2
I00
tp1868
F-1.0
s((I3
I-6
tp1869
I3
I00
tp1870
F-1.0
s((I-8
I-1
tp1871
I3
I00
tp1872
F-1.0
s((I-10
I2
tp1873
I2
I00
tp1874
F-1.0
s((I-7
I4
tp1875
I2
I00
tp1876
F-1.0
s((I-7
I-10
tp1877
I3
I00
tp1878
F-1.0
s((I5
I-5
tp1879
I0
I00
tp1880
F-1.0
s((I-1
I-7
tp1881
I3
I00
tp1882
F-1.0
s((I7
I0
tp1883
I0
I00
tp1884
F-1.0
s((I-6
I-9
tp1885
I0
I00
tp1886
F-1.0
s((I5
I8
tp1887
I2
I00
tp1888
F-1.0
s((I-1
I14
tp1889
I3
I00
tp1890
F-1.0
s((I2
I13
tp1891
I0
I00
tp1892
F-1.0
s((I5
I-7
tp1893
I1
I00
tp1894
F-1.0
s((I11
I-2
tp1895
I2
I00
tp1896
F-1.0
s((I7
I8
tp1897
I2
I00
tp1898
F-1.0
s((I2
I2
tp1899
I1
I00
tp1900
F-1.0
s((I-5
I3
tp1901
I2
I00
tp1902
F-1.0
s((I4
I-4
tp1903
I0
I00
tp1904
F-1.0
s((I-1
I2
tp1905
I2
I00
tp1906
F-1.0
s((I8
I5
tp1907
I3
I00
tp1908
F-1.0
s((I13
I1
tp1909
I2
I00
tp1910
F-1.0
s((I-1
I10
tp1911
I1
I00
tp1912
F-1.0
s((I-11
I-6
tp1913
I3
I00
tp1914
F-1.0
s((I1
I1
tp1915
I3
I00
tp1916
F-1.0
s((I-13
I-5
tp1917
I3
I00
tp1918
F-1.0
s((I19
I-1
tp1919
I1
I00
tp1920
F-1.0
s((I4
I-2
tp1921
I1
I00
tp1922
F-1.0
s((I-5
I16
tp1923
I2
I00
tp1924
F-1.0
s((I0
I-4
tp1925
I2
I00
tp1926
F-1.0
s((I-2
I11
tp1927
I1
I00
tp1928
F-1.0
s((I7
I6
tp1929
I2
I00
tp1930
F-1.0
s((I-12
I0
tp1931
I2
I00
tp1932
F-1.0
s((I5
I6
tp1933
I1
I00
tp1934
F-1.0
s((I6
I9
tp1935
I2
I00
tp1936
F-1.0
s((I-4
I3
tp1937
I1
I00
tp1938
F-1.0
s((I1
I-5
tp1939
I3
I00
tp1940
F-1.0
s((I0
I1
tp1941
I0
I00
tp1942
F-1.0
s((I17
I1
tp1943
I0
I00
tp1944
F-1.0
s((I12
I1
tp1945
I2
I00
tp1946
F-1.0
s((I-8
I-2
tp1947
I2
I00
tp1948
F-1.0
s((I19
I0
tp1949
I2
I00
tp1950
F-1.0
s((I-2
I15
tp1951
I1
I00
tp1952
F-1.0
s((I-6
I15
tp1953
I1
I00
tp1954
F-1.0
s((I2
I2
tp1955
I2
I00
tp1956
F-1.0
s((I2
I-7
tp1957
I1
I00
tp1958
F-1.0
s((I20
I0
tp1959
I0
I00
tp1960
F-1.0
s((I4
I6
tp1961
I1
I00
tp1962
F-1.0
s((I3
I-9
tp1963
I0
I00
tp1964
F-1.0
s((I-8
I-10
tp1965
I2
I00
tp1966
F-1.0
s((I2
I11
tp1967
I1
I00
tp1968
F-1.0
s((I-2
I-1
tp1969
I0
I00
tp1970
F-1.0
s((I-3
I-13
tp1971
I0
I00
tp1972
F-1.0
s((I6
I7
tp1973
I0
I00
tp1974
F-1.0
s((I14
I2
tp1975
I2
I00
tp1976
F-1.0
s((I20
I-1
tp1977
I1
I00
tp1978
F-1.0
s((I-6
I8
tp1979
I1
I00
tp1980
F-1.0
s((I-6
I-9
tp1981
I1
I00
tp1982
F-1.0
s((I-6
I4
tp1983
I3
I00
tp1984
F-1.0
s((I-3
I-14
tp1985
I2
I00
tp1986
F-1.0
s((I9
I6
tp1987
I1
I00
tp1988
F-1.0
s((I-4
I8
tp1989
I1
I00
tp1990
F-1.0
s((I-10
I-6
tp1991
I2
I00
tp1992
F-1.0
s((I12
I2
tp1993
I2
I00
tp1994
F-1.0
s((I-9
I2
tp1995
I2
I00
tp1996
F-1.0
s((I-4
I-8
tp1997
I2
I00
tp1998
F-1.0
s((I17
I2
tp1999
I2
I00
tp2000
F-1.0
s((I2
I10
tp2001
I3
I00
tp2002
F-1.0
s((I-12
I-5
tp2003
I1
I00
tp2004
F-1.0
s((I-6
I-9
tp2005
I3
I00
tp2006
F-1.0
s((I15
I1
tp2007
I3
I00
tp2008
F-1.0
s((I-3
I-10
tp2009
I0
I00
tp2010
F-1.0
s((I5
I-4
tp2011
I0
I00
tp2012
F-1.0
s((I14
I-2
tp2013
I0
I00
tp2014
F-1.0
s((I1
I16
tp2015
I2
I00
tp2016
F-1.0
s((I4
I-9
tp2017
I1
I00
tp2018
F-1.0
s((I-7
I-9
tp2019
I2
I00
tp2020
F-1.0
s((I4
I4
tp2021
I0
I00
tp2022
F-1.0
s((I3
I-7
tp2023
I1
I00
tp2024
F-1.0
s((I3
I-4
tp2025
I3
I00
tp2026
F-1.0
s((I-1
I-1
tp2027
I2
I00
tp2028
F-1.0
s((I18
I-1
tp2029
I2
I00
tp2030
F-1.0
s((I6
I5
tp2031
I3
I00
tp2032
F-1.0
s((I1
I-4
tp2033
I2
I00
tp2034
F-1.0
s((I0
I-6
tp2035
I1
I00
tp2036
F-1.0
s((I3
I-1
tp2037
I0
I00
tp2038
F-1.0
s((I-6
I14
tp2039
I3
I00
tp2040
F-1.0
s((I7
I1
tp2041
I1
I00
tp2042
F-1.0
s((I-9
I-5
tp2043
I3
I00
tp2044
F-1.0
s((I-6
I-11
tp2045
I3
I00
tp2046
F-1.0
s((I-1
I9
tp2047
I2
I00
tp2048
F-1.0
s((I-6
I2
tp2049
I0
I00
tp2050
F-1.0
s((I-1
I-5
tp2051
I0
I00
tp2052
F-1.0
s((I-10
I-12
tp2053
I1
I00
tp2054
F-1.0
s((I12
I4
tp2055
I0
I00
tp2056
F-1.0
s((I-5
I14
tp2057
I2
I00
tp2058
F-1.0
s((I-10
I-7
tp2059
I3
I00
tp2060
F-1.0
s((I-8
I-8
tp2061
I3
I00
tp2062
F-1.0
s((I5
I-1
tp2063
I2
I00
tp2064
F-1.0
s((I7
I2
tp2065
I2
I00
tp2066
F-1.0
s((I-5
I-13
tp2067
I1
I00
tp2068
F-1.0
s((I-1
I3
tp2069
I3
I00
tp2070
F-1.0
s((I-1
I6
tp2071
I2
I00
tp2072
F-1.0
s((I-2
I0
tp2073
I2
I00
tp2074
F-1.0
s((I9
I-3
tp2075
I3
I00
tp2076
F-1.0
s((I-5
I-10
tp2077
I2
I00
tp2078
F-1.0
s((I7
I9
tp2079
I0
I00
tp2080
F-1.0
s((I2
I2
tp2081
I0
I00
tp2082
F-1.0
s((I8
I-3
tp2083
I0
I00
tp2084
F-1.0
s((I-3
I7
tp2085
I0
I00
tp2086
F-1.0
s((I4
I11
tp2087
I0
I00
tp2088
F-1.0
s((I-10
I-3
tp2089
I3
I00
tp2090
F-1.0
s((I13
I7
tp2091
I1
I00
tp2092
F-1.0
s((I-13
I-4
tp2093
I3
I00
tp2094
F-1.0
s((I5
I9
tp2095
I2
I00
tp2096
F-1.0
s((I13
I-3
tp2097
I1
I00
tp2098
F-1.0
s((I3
I-2
tp2099
I2
I00
tp2100
F-1.0
s((I3
I-6
tp2101
I0
I00
tp2102
F-1.0
s((I6
I10
tp2103
I3
I00
tp2104
F-1.0
s((I-2
I9
tp2105
I1
I00
tp2106
F-1.0
s((I-3
I-4
tp2107
I0
I00
tp2108
F-1.0
s((I4
I15
tp2109
I2
I00
tp2110
F-1.0
s((I-6
I5
tp2111
I0
I00
tp2112
F-1.0
s((I-7
I-1
tp2113
I1
I00
tp2114
F-1.0
s((I0
I-3
tp2115
I0
I00
tp2116
F-1.0
s((I-8
I-8
tp2117
I2
I00
tp2118
F-1.0
s((I-6
I3
tp2119
I0
I00
tp2120
F-1.0
s((I-5
I-10
tp2121
I3
I00
tp2122
F-1.0
s((I-2
I-5
tp2123
I0
I00
tp2124
F-1.0
s((I-13
I2
tp2125
I1
I00
tp2126
F-1.0
s((I-8
I-12
tp2127
I3
I00
tp2128
F-1.0
s((I5
I-2
tp2129
I2
I00
tp2130
F-1.0
s((I5
I-7
tp2131
I0
I00
tp2132
F-1.0
s((I-2
I-9
tp2133
I3
I00
tp2134
F-1.0
s((I8
I6
tp2135
I3
I00
tp2136
F-1.0
s((I-8
I6
tp2137
I3
I00
tp2138
F-1.0
s((I0
I4
tp2139
I3
I00
tp2140
F-1.0
s((I16
I-4
tp2141
I0
I00
tp2142
F-1.0
s((I-4
I9
tp2143
I0
I00
tp2144
F-1.0
s((I13
I1
tp2145
I1
I00
tp2146
F-1.0
s((I-2
I10
tp2147
I0
I00
tp2148
F-1.0
s((I15
I2
tp2149
I2
I00
tp2150
F-1.0
s((I13
I5
tp2151
I2
I00
tp2152
F-1.0
s((I2
I-6
tp2153
I1
I00
tp2154
F-1.0
s((I0
I8
tp2155
I2
I00
tp2156
F-1.0
s((I-3
I4
tp2157
I2
I00
tp2158
F-1.0
s((I-1
I-12
tp2159
I1
I00
tp2160
F-1.0
s((I-7
I6
tp2161
I2
I00
tp2162
F-1.0
s((I-2
I2
tp2163
I1
I00
tp2164
F-1.0
s((I-4
I2
tp2165
I1
I00
tp2166
F-1.0
s((I-2
I-3
tp2167
I2
I00
tp2168
F-1.0
s((I3
I3
tp2169
I1
I00
tp2170
F-1.0
s((I-4
I6
tp2171
I2
I00
tp2172
F-1.0
s((I10
I-2
tp2173
I3
I00
tp2174
F-1.0
s((I-4
I10
tp2175
I1
I00
tp2176
F-1.0
s((I-9
I-6
tp2177
I3
I00
tp2178
F-1.0
s((I12
I1
tp2179
I3
I00
tp2180
F-1.0
s((I-4
I6
tp2181
I3
I01
tp2182
F19.0
s((I-6
I-6
tp2183
I1
I00
tp2184
F-1.0
s((I-9
I3
tp2185
I1
I00
tp2186
F-1.0
s((I3
I2
tp2187
I1
I00
tp2188
F-1.0
s((I8
I-4
tp2189
I3
I00
tp2190
F-1.0
s((I-6
I3
tp2191
I1
I00
tp2192
F-1.0
s((I-3
I-12
tp2193
I2
I00
tp2194
F-1.0
s((I11
I7
tp2195
I0
I00
tp2196
F-1.0
s((I-8
I-10
tp2197
I1
I00
tp2198
F-1.0
s((I-5
I-6
tp2199
I3
I00
tp2200
F-1.0
s((I6
I7
tp2201
I1
I00
tp2202
F-1.0
s((I-7
I15
tp2203
I3
I00
tp2204
F-1.0
s((I4
I-3
tp2205
I3
I00
tp2206
F-1.0
s((I0
I-1
tp2207
I2
I00
tp2208
F-1.0
s((I11
I-3
tp2209
I2
I01
tp2210
F19.0
s((I20
I-2
tp2211
I0
I00
tp2212
F-1.0
s((I-7
I1
tp2213
I3
I00
tp2214
F-1.0
s((I4
I-4
tp2215
I3
I00
tp2216
F-1.0
s((I-2
I-5
tp2217
I2
I01
tp2218
F19.0
s((I-1
I4
tp2219
I3
I00
tp2220
F-1.0
s((I-4
I8
tp2221
I0
I00
tp2222
F-1.0
s((I8
I-3
tp2223
I1
I00
tp2224
F-1.0
s((I-3
I-6
tp2225
I3
I00
tp2226
F-1.0
s((I-1
I-10
tp2227
I2
I00
tp2228
F-1.0
s((I-12
I-1
tp2229
I2
I00
tp2230
F-1.0
s((I-5
I-1
tp2231
I0
I00
tp2232
F-1.0
s((I7
I-7
tp2233
I2
I00
tp2234
F-1.0
s((I-3
I-10
tp2235
I1
I00
tp2236
F-1.0
s((I-6
I0
tp2237
I3
I00
tp2238
F-1.0
s((I-13
I3
tp2239
I1
I00
tp2240
F-1.0
s((I-14
I2
tp2241
I3
I00
tp2242
F-1.0
s((I5
I7
tp2243
I1
I00
tp2244
F-1.0
s((I3
I4
tp2245
I0
I00
tp2246
F-1.0
s((I-5
I7
tp2247
I0
I00
tp2248
F-1.0
s((I3
I-7
tp2249
I0
I00
tp2250
F-1.0
s((I6
I4
tp2251
I3
I00
tp2252
F-1.0
s((I15
I1
tp2253
I2
I00
tp2254
F-1.0
s((I-3
I11
tp2255
I1
I00
tp2256
F-1.0
s((I-7
I-14
tp2257
I1
I00
tp2258
F-1.0
s((I6
I5
tp2259
I0
I00
tp2260
F-1.0
s((I1
I-4
tp2261
I3
I00
tp2262
F-1.0
s((I11
I10
tp2263
I2
I00
tp2264
F-1.0
s((I0
I-6
tp2265
I0
I00
tp2266
F-1.0
s((I-6
I-11
tp2267
I2
I00
tp2268
F-1.0
s((I1
I0
tp2269
I3
I00
tp2270
F-1.0
s((I4
I5
tp2271
I3
I00
tp2272
F-1.0
s((I-6
I-12
tp2273
I0
I00
tp2274
F-1.0
s((I2
I-1
tp2275
I2
I00
tp2276
F-1.0
s((I1
I12
tp2277
I2
I00
tp2278
F-1.0
s((I6
I-2
tp2279
I3
I00
tp2280
F-1.0
s((I2
I11
tp2281
I3
I00
tp2282
F-1.0
s((I2
I10
tp2283
I1
I00
tp2284
F-1.0
s((I-10
I-12
tp2285
I0
I00
tp2286
F-1.0
s((I2
I12
tp2287
I0
I00
tp2288
F-1.0
s((I-5
I3
tp2289
I1
I00
tp2290
F-1.0
s((I-6
I-10
tp2291
I1
I00
tp2292
F-1.0
s((I7
I-3
tp2293
I2
I00
tp2294
F-1.0
s((I13
I8
tp2295
I2
I00
tp2296
F-1.0
s((I-2
I1
tp2297
I0
I00
tp2298
F-1.0
s((I7
I-7
tp2299
I0
I00
tp2300
F-1.0
s((I-4
I3
tp2301
I1
I01
tp2302
F19.0
s((I4
I-6
tp2303
I1
I00
tp2304
F-1.0
s((I-5
I1
tp2305
I3
I00
tp2306
F-1.0
s((I2
I2
tp2307
I3
I00
tp2308
F-1.0
s((I0
I15
tp2309
I1
I00
tp2310
F-1.0
s((I-1
I6
tp2311
I3
I00
tp2312
F-1.0
s((I1
I-8
tp2313
I0
I00
tp2314
F-1.0
s((I-1
I4
tp2315
I1
I01
tp2316
F19.0
s((I3
I9
tp2317
I1
I00
tp2318
F-1.0
s((I0
I-2
tp2319
I1
I00
tp2320
F-1.0
s((I8
I7
tp2321
I0
I00
tp2322
F-1.0
s((I2
I14
tp2323
I2
I00
tp2324
F-1.0
s((I-5
I11
tp2325
I0
I00
tp2326
F-1.0
s((I7
I9
tp2327
I1
I00
tp2328
F-1.0
s((I3
I-6
tp2329
I1
I00
tp2330
F-1.0
s((I0
I5
tp2331
I0
I01
tp2332
F19.0
s((I7
I-6
tp2333
I0
I00
tp2334
F-1.0
s((I0
I16
tp2335
I3
I00
tp2336
F-1.0
s((I4
I3
tp2337
I2
I00
tp2338
F-1.0
s((I-9
I-4
tp2339
I2
I00
tp2340
F-1.0
s((I11
I-3
tp2341
I1
I00
tp2342
F-1.0
s((I0
I-3
tp2343
I1
I00
tp2344
F-1.0
s((I19
I-2
tp2345
I0
I00
tp2346
F-1.0
s((I-2
I13
tp2347
I2
I00
tp2348
F-1.0
s((I-5
I-10
tp2349
I0
I00
tp2350
F-1.0
s((I18
I-3
tp2351
I2
I00
tp2352
F-1.0
s((I5
I-6
tp2353
I3
I00
tp2354
F-1.0
s((I4
I3
tp2355
I3
I00
tp2356
F-1.0
s((I-7
I3
tp2357
I0
I00
tp2358
F-1.0
s((I2
I-2
tp2359
I3
I00
tp2360
F-1.0
s((I-2
I-9
tp2361
I0
I00
tp2362
F-1.0
s((I-5
I6
tp2363
I1
I00
tp2364
F-1.0
s((I8
I-1
tp2365
I3
I00
tp2366
F-1.0
s((I5
I-3
tp2367
I0
I00
tp2368
F-1.0
s((I-4
I9
tp2369
I1
I00
tp2370
F-1.0
s((I4
I3
tp2371
I0
I00
tp2372
F-1.0
s((I-7
I-9
tp2373
I3
I00
tp2374
F-1.0
s((I3
I13
tp2375
I0
I00
tp2376
F-1.0
s((I-8
I-3
tp2377
I0
I00
tp2378
F-1.0
s((I13
I5
tp2379
I1
I00
tp2380
F-1.0
s((I-1
I6
tp2381
I0
I00
tp2382
F-1.0
s((I2
I4
tp2383
I1
I00
tp2384
F-1.0
s((I7
I5
tp2385
I0
I00
tp2386
F-1.0
s((I1
I13
tp2387
I3
I00
tp2388
F-1.0
s((I0
I0
tp2389
I0
I00
tp2390
F-1.0
s((I-7
I3
tp2391
I1
I00
tp2392
F-1.0
s((I-7
I6
tp2393
I3
I00
tp2394
F-1.0
s((I7
I-1
tp2395
I0
I00
tp2396
F-1.0
s((I-1
I11
tp2397
I3
I00
tp2398
F-1.0
s((I3
I11
tp2399
I0
I00
tp2400
F-1.0
s((I0
I-1
tp2401
I3
I00
tp2402
F-1.0
s((I3
I3
tp2403
I0
I00
tp2404
F-1.0
s((I-2
I-4
tp2405
I2
I00
tp2406
F-1.0
s((I13
I-2
tp2407
I2
I00
tp2408
F-1.0
s((I-2
I9
tp2409
I3
I00
tp2410
F-1.0
s((I-9
I-6
tp2411
I0
I00
tp2412
F-1.0
s((I0
I0
tp2413
I1
I00
tp2414
F-1.0
s((I6
I6
tp2415
I0
I00
tp2416
F-1.0
s((I-9
I-10
tp2417
I1
I00
tp2418
F-1.0
s((I5
I4
tp2419
I3
I00
tp2420
F-1.0
s((I5
I-4
tp2421
I1
I00
tp2422
F-1.0
s((I-1
I3
tp2423
I0
I00
tp2424
F-1.0
s((I-1
I-2
tp2425
I0
I00
tp2426
F-1.0
s((I-6
I3
tp2427
I2
I00
tp2428
F-1.0
s((I3
I10
tp2429
I3
I00
tp2430
F-1.0
s((I-10
I0
tp2431
I3
I00
tp2432
F-1.0
s((I-4
I-12
tp2433
I2
I00
tp2434
F-1.0
s((I-5
I15
tp2435
I1
I00
tp2436
F-1.0
s((I3
I6
tp2437
I2
I00
tp2438
F-1.0
s((I-3
I-13
tp2439
I2
I00
tp2440
F-1.0
s((I4
I-5
tp2441
I1
I00
tp2442
F-1.0
s((I-8
I-6
tp2443
I1
I00
tp2444
F-1.0
s((I23
I-1
tp2445
I1
I00
tp2446
F-1.0
s((I8
I3
tp2447
I2
I00
tp2448
F-1.0
s((I9
I-1
tp2449
I1
I00
tp2450
F-1.0
s((I-7
I1
tp2451
I2
I00
tp2452
F-1.0
s((I-4
I15
tp2453
I2
I00
tp2454
F-1.0
s((I4
I-4
tp2455
I2
I00
tp2456
F-1.0
s((I2
I-8
tp2457
I2
I00
tp2458
F-1.0
s((I-9
I-3
tp2459
I1
I00
tp2460
F-1.0
s((I9
I6
tp2461
I3
I00
tp2462
F-1.0
s((I6
I9
tp2463
I0
I00
tp2464
F-1.0
s((I-14
I-2
tp2465
I2
I00
tp2466
F-1.0
s((I-1
I11
tp2467
I2
I00
tp2468
F-1.0
s((I-12
I-6
tp2469
I0
I00
tp2470
F-1.0
s((I-9
I2
tp2471
I0
I00
tp2472
F-1.0
s((I-11
I-6
tp2473
I0
I00
tp2474
F-1.0
s((I4
I8
tp2475
I3
I00
tp2476
F-1.0
s((I-3
I-10
tp2477
I2
I00
tp2478
F-1.0
s((I3
I15
tp2479
I3
I00
tp2480
F-1.0
s((I14
I-1
tp2481
I2
I00
tp2482
F-1.0
s((I-8
I-5
tp2483
I0
I00
tp2484
F-1.0
s((I3
I4
tp2485
I1
I00
tp2486
F-1.0
s((I-4
I1
tp2487
I0
I00
tp2488
F-1.0
s((I4
I4
tp2489
I2
I00
tp2490
F-1.0
s((I3
I-7
tp2491
I3
I00
tp2492
F-1.0
s((I-6
I-8
tp2493
I2
I00
tp2494
F-1.0
s((I7
I-8
tp2495
I0
I00
tp2496
F-1.0
s((I2
I5
tp2497
I3
I00
tp2498
F-1.0
s((I-4
I16
tp2499
I0
I00
tp2500
F-1.0
s((I6
I5
tp2501
I1
I00
tp2502
F-1.0
s((I-2
I3
tp2503
I3
I00
tp2504
F-1.0
s((I-5
I7
tp2505
I3
I00
tp2506
F-1.0
s((I6
I9
tp2507
I3
I00
tp2508
F-1.0
s((I1
I12
tp2509
I3
I00
tp2510
F-1.0
s((I6
I-6
tp2511
I1
I00
tp2512
F-1.0
s((I-9
I0
tp2513
I3
I00
tp2514
F-1.0
s((I8
I8
tp2515
I0
I00
tp2516
F-1.0
s((I4
I1
tp2517
I0
I00
tp2518
F-1.0
s((I-12
I-4
tp2519
I2
I00
tp2520
F-1.0
s((I-5
I14
tp2521
I0
I00
tp2522
F-1.0
s((I-4
I2
tp2523
I3
I00
tp2524
F-1.0
s((I-1
I0
tp2525
I0
I00
tp2526
F-1.0
s((I12
I8
tp2527
I3
I00
tp2528
F-1.0
s((I-4
I1
tp2529
I1
I00
tp2530
F-1.0
s((I7
I2
tp2531
I0
I00
tp2532
F-1.0
s((I-6
I6
tp2533
I0
I00
tp2534
F-1.0
s((I6
I-4
tp2535
I3
I00
tp2536
F-1.0
s((I-3
I6
tp2537
I3
I00
tp2538
F-1.0
s((I-8
I2
tp2539
I2
I00
tp2540
F-1.0
s((I-5
I1
tp2541
I2
I00
tp2542
F-1.0
s((I4
I10
tp2543
I1
I00
tp2544
F-1.0
s((I2
I4
tp2545
I0
I00
tp2546
F-1.0
s((I11
I-1
tp2547
I2
I00
tp2548
F-1.0
s((I-3
I5
tp2549
I0
I00
tp2550
F-1.0
s((I10
I0
tp2551
I2
I00
tp2552
F-1.0
s((I-11
I2
tp2553
I1
I00
tp2554
F-1.0
s((I5
I14
tp2555
I2
I00
tp2556
F-1.0
s((I-6
I-14
tp2557
I2
I00
tp2558
F-1.0
s((I-8
I2
tp2559
I3
I00
tp2560
F-1.0
s((I-5
I-12
tp2561
I0
I00
tp2562
F-1.0
s((I12
I0
tp2563
I1
I01
tp2564
F19.0
s((I11
I8
tp2565
I1
I00
tp2566
F-1.0
s((I0
I-4
tp2567
I0
I00
tp2568
F-1.0
s((I-3
I-9
tp2569
I0
I00
tp2570
F-1.0
s((I-8
I-2
tp2571
I0
I00
tp2572
F-1.0
s((I-5
I9
tp2573
I1
I00
tp2574
F-1.0
s((I-2
I-10
tp2575
I1
I00
tp2576
F-1.0
s((I-7
I4
tp2577
I1
I00
tp2578
F-1.0
s((I-11
I-10
tp2579
I2
I00
tp2580
F-1.0
s((I-3
I0
tp2581
I2
I00
tp2582
F-1.0
s((I-7
I-1
tp2583
I3
I00
tp2584
F-1.0
s((I0
I-3
tp2585
I2
I00
tp2586
F-1.0
s((I-3
I-12
tp2587
I0
I00
tp2588
F-1.0
s((I-5
I-10
tp2589
I1
I00
tp2590
F-1.0
s((I-8
I0
tp2591
I3
I00
tp2592
F-1.0
s((I-8
I-13
tp2593
I0
I00
tp2594
F-1.0
s((I8
I-4
tp2595
I1
I00
tp2596
F-1.0
s((I-1
I-9
tp2597
I1
I00
tp2598
F-1.0
s((I1
I11
tp2599
I3
I00
tp2600
F-1.0
s((I8
I6
tp2601
I1
I00
tp2602
F-1.0
s((I16
I1
tp2603
I1
I00
tp2604
F-1.0
s((I0
I-7
tp2605
I0
I00
tp2606
F-1.0
s((I-5
I-7
tp2607
I3
I00
tp2608
F-1.0
s((I-4
I9
tp2609
I2
I00
tp2610
F-1.0
s((I7
I-6
tp2611
I2
I00
tp2612
F-1.0
s((I-2
I1
tp2613
I2
I00
tp2614
F-1.0
s((I-2
I10
tp2615
I2
I00
tp2616
F-1.0
s((I-15
I2
tp2617
I2
I00
tp2618
F-1.0
s((I5
I0
tp2619
I2
I00
tp2620
F-1.0
s((I-13
I-5
tp2621
I0
I00
tp2622
F-1.0
s((I-8
I-3
tp2623
I2
I00
tp2624
F-1.0
s((I-8
I-7
tp2625
I1
I00
tp2626
F-1.0
s((I-5
I5
tp2627
I0
I00
tp2628
F-1.0
s((I0
I0
tp2629
I3
I00
tp2630
F-1.0
s((I7
I3
tp2631
I1
I01
tp2632
F19.0
s((I-8
I-1
tp2633
I2
I00
tp2634
F-1.0
s((I16
I1
tp2635
I3
I00
tp2636
F-1.0
s((I1
I6
tp2637
I2
I00
tp2638
F-1.0
s((I1
I4
tp2639
I1
I00
tp2640
F-1.0
s((I-5
I6
tp2641
I3
I00
tp2642
F-1.0
s((I6
I2
tp2643
I1
I00
tp2644
F-1.0
s((I-4
I6
tp2645
I0
I00
tp2646
F-1.0
s((I0
I10
tp2647
I0
I00
tp2648
F-1.0
s((I-9
I-6
tp2649
I1
I00
tp2650
F-1.0
s((I-8
I-14
tp2651
I0
I00
tp2652
F-1.0
s((I3
I10
tp2653
I2
I00
tp2654
F-1.0
s((I18
I-3
tp2655
I0
I00
tp2656
F-1.0
s((I1
I-1
tp2657
I2
I00
tp2658
F-1.0
s((I-5
I15
tp2659
I0
I00
tp2660
F-1.0
s((I-1
I3
tp2661
I1
I00
tp2662
F-1.0
s((I1
I11
tp2663
I1
I00
tp2664
F-1.0
s((I-6
I3
tp2665
I3
I00
tp2666
F-1.0
s((I-10
I-6
tp2667
I3
I00
tp2668
F-1.0
s((I6
I7
tp2669
I2
I00
tp2670
F-1.0
s((I1
I15
tp2671
I1
I00
tp2672
F-1.0
s((I12
I5
tp2673
I3
I00
tp2674
F-1.0
s((I13
I7
tp2675
I1
I01
tp2676
F-11.0
s((I3
I6
tp2677
I3
I00
tp2678
F-1.0
s((I0
I9
tp2679
I0
I00
tp2680
F-1.0
s((I-6
I-10
tp2681
I0
I00
tp2682
F-1.0
s((I-14
I-3
tp2683
I2
I00
tp2684
F-1.0
s.