(dp0
((I-9
I5
tp1
I2
tp2
F-2.8525
s((I3
I-2
tp3
I3
tp4
F-1.95
s((I-6
I5
tp5
I2
tp6
F-1.95
s((I-1
I3
tp7
I1
tp8
F-2.8525
s((I-1
I1
tp9
I2
tp10
F21.22736928408667
s((I-4
I-6
tp11
I3
tp12
F-1.95
s((I5
I-1
tp13
I1
tp14
F-0.46733373121483357
s((I1
I0
tp15
I1
tp16
F10.71615305879803
s((I-2
I3
tp17
I1
tp18
F-3.709875
s((I-5
I8
tp19
I3
tp20
F-4.524381249999999
s((I0
I-3
tp21
I0
tp22
F14.034518624706958
s((I-2
I0
tp23
I3
tp24
F15.266680464105043
s((I0
I-4
tp25
I1
tp26
F3.021908208091845
s((I0
I5
tp27
I3
tp28
F-1.0
s((I4
I-2
tp29
I3
tp30
F-2.8525
s((I-5
I-8
tp31
I3
tp32
F-3.709875
s((I-9
I9
tp33
I1
tp34
F-3.709875
s((I1
I-5
tp35
I0
tp36
F-1.95
s((I-8
I10
tp37
I2
tp38
F-4.524381249999999
s((I-3
I3
tp39
I1
tp40
F-2.8525
s((I0
I1
tp41
I2
tp42
F10.71615305879803
s((I2
I-2
tp43
I0
tp44
F5.576436691506891
s((I0
I0
tp45
I3
tp46
F18.469411522730223
s((I-8
I6
tp47
I3
tp48
F-2.8525
s((I3
I-2
tp49
I0
tp50
F0.560701335563333
s((I-4
I-8
tp51
I2
tp52
F-2.8525
s((I-5
I-3
tp53
I0
tp54
F-1.0
s((I8
I-4
tp55
I2
tp56
F-9.192798246747259
s((I0
I6
tp57
I2
tp58
F-1.95
s((I-2
I-2
tp59
I0
tp60
F13.579949952946615
s((I1
I2
tp61
I2
tp62
F7.721328135565221
s((I2
I1
tp63
I1
tp64
F7.721328135565221
s((I-6
I4
tp65
I2
tp66
F-4.524381249999999
s((I2
I-1
tp67
I3
tp68
F4.297614856931546
s((I-5
I5
tp69
I2
tp70
F-3.709875
s((I-1
I-4
tp71
I3
tp72
F4.2335875874651006
s((I-2
I4
tp73
I1
tp74
F-2.8525
s((I10
I8
tp75
I2
tp76
F-1.0
s((I-1
I8
tp77
I1
tp78
F-3.709875
s((I-5
I1
tp79
I3
tp80
F-1.95
s((I8
I10
tp81
I3
tp82
F-1.0
s((I6
I5
tp83
I3
tp84
F-2.8525
s((I-4
I4
tp85
I1
tp86
F-1.95
s((I1
I-2
tp87
I3
tp88
F6.922564938428307
s((I-1
I2
tp89
I3
tp90
F-2.8525
s((I-2
I4
tp91
I2
tp92
F-5.298162187499999
s((I3
I1
tp93
I2
tp94
F1.404880187945778
s((I1
I7
tp95
I3
tp96
F-1.0
s((I-3
I-4
tp97
I2
tp98
F-1.0
s((I0
I7
tp99
I3
tp100
F-1.0
s((I4
I-3
tp101
I2
tp102
F-1.0
s((I-3
I6
tp103
I0
tp104
F-2.8525
s((I3
I3
tp105
I1
tp106
F-1.95
s((I-4
I6
tp107
I3
tp108
F-3.709875
s((I1
I-3
tp109
I2
tp110
F0.9026562494271471
s((I10
I4
tp111
I3
tp112
F-1.0
s((I-4
I-3
tp113
I3
tp114
F23.39723082535439
s((I1
I-2
tp115
I2
tp116
F1.8708127976872526
s((I-8
I4
tp117
I3
tp118
F-4.524381249999999
s((I4
I4
tp119
I2
tp120
F-5.298162187499999
s((I-1
I7
tp121
I0
tp122
F-3.709875
s((I-4
I2
tp123
I2
tp124
F-5.298162187499999
s((I-4
I-9
tp125
I1
tp126
F-4.524381249999999
s((I-6
I5
tp127
I0
tp128
F-1.0
s((I-9
I6
tp129
I0
tp130
F-1.95
s((I3
I0
tp131
I1
tp132
F4.297614856931546
s((I8
I-5
tp133
I2
tp134
F-1.0
s((I-2
I2
tp135
I3
tp136
F-2.8525
s((I7
I8
tp137
I0
tp138
F-1.0
s((I5
I-2
tp139
I3
tp140
F-1.0
s((I-1
I0
tp141
I3
tp142
F10.71615305879803
s((I-7
I6
tp143
I2
tp144
F-1.95
s((I5
I6
tp145
I3
tp146
F11.849337812499998
s((I0
I-3
tp147
I2
tp148
F4.2335875874651006
s((I2
I0
tp149
I3
tp150
F1.404880187945778
s((I10
I3
tp151
I0
tp152
F-6.033254078124999
s((I7
I-4
tp153
I1
tp154
F-2.8525
s((I0
I-4
tp155
I3
tp156
F3.307391554466406
s((I10
I10
tp157
I2
tp158
F-1.0
s((I-5
I-9
tp159
I3
tp160
F-5.298162187499999
s((I6
I0
tp161
I2
tp162
F-1.95
s((I10
I9
tp163
I2
tp164
F-1.0
s((I-10
I10
tp165
I2
tp166
F-1.95
s((I-8
I6
tp167
I1
tp168
F-1.95
s((I-3
I-6
tp169
I1
tp170
F-2.8525
s((I0
I-2
tp171
I3
tp172
F12.33279269347161
s((I0
I-1
tp173
I1
tp174
F13.50334644089979
s((I-3
I4
tp175
I1
tp176
F-1.95
s((I1
I-2
tp177
I0
tp178
F11.900952455299283
s((I-2
I-2
tp179
I2
tp180
F11.589004286802282
s((I-1
I-3
tp181
I2
tp182
F3.021908208091845
s((I6
I6
tp183
I0
tp184
F-1.95
s((I-4
I1
tp185
I3
tp186
F7.721328135565221
s((I-5
I-2
tp187
I0
tp188
F-1.95
s((I-1
I1
tp189
I3
tp190
F10.205676855636195
s((I-1
I0
tp191
I2
tp192
F12.562817455359895
s((I6
I5
tp193
I1
tp194
F-3.709875
s((I-7
I5
tp195
I3
tp196
F-1.95
s((I3
I-3
tp197
I1
tp198
F0.9026562494271473
s((I-2
I-1
tp199
I0
tp200
F11.900952455299283
s((I-1
I4
tp201
I0
tp202
F-1.0
s((I-2
I-3
tp203
I0
tp204
F19.036470649209033
s((I0
I2
tp205
I3
tp206
F0.4594787938983469
s((I8
I6
tp207
I2
tp208
F-1.0
s((I6
I1
tp209
I0
tp210
F-1.95
s((I7
I-3
tp211
I3
tp212
F-6.033254078124999
s((I0
I7
tp213
I2
tp214
F-1.95
s((I9
I-5
tp215
I1
tp216
F-5.2981621875
s((I1
I4
tp217
I3
tp218
F-1.95
s((I-3
I-3
tp219
I1
tp220
F8.6153624413151
s((I-7
I5
tp221
I2
tp222
F-2.8525
s((I8
I-3
tp223
I1
tp224
F-6.731591374218749
s((I1
I0
tp225
I2
tp226
F20.494117392347604
s((I-9
I7
tp227
I1
tp228
F-1.0
s((I1
I-3
tp229
I0
tp230
F0.9026562494271473
s((I3
I4
tp231
I0
tp232
F-1.0
s((I0
I-1
tp233
I3
tp234
F11.900952455299283
s((I8
I9
tp235
I1
tp236
F-5.298162187499999
s((I-5
I3
tp237
I2
tp238
F-11.45
s((I2
I1
tp239
I0
tp240
F5.897592194101082
s((I1
I-4
tp241
I3
tp242
F-1.0
s((I-5
I-3
tp243
I1
tp244
F-5.298162187499999
s((I8
I-5
tp245
I0
tp246
F-8.623998154470799
s((I6
I3
tp247
I1
tp248
F-1.95
s((I8
I5
tp249
I0
tp250
F-1.95
s((I-1
I0
tp251
I1
tp252
F10.71615305879803
s((I4
I0
tp253
I1
tp254
F3.7173187678069564
s((I-3
I-2
tp255
I1
tp256
F13.375550303327136
s((I6
I-2
tp257
I3
tp258
F-1.0
s((I2
I0
tp259
I1
tp260
F3.0827341140849693
s((I4
I-1
tp261
I3
tp262
F0.560701335563333
s((I-2
I-1
tp263
I2
tp264
F15.230414760911152
s((I-10
I3
tp265
I3
tp266
F-3.709875
s((I3
I-1
tp267
I0
tp268
F1.642843511119298
s((I3
I0
tp269
I0
tp270
F1.9285974083807207
s((I4
I0
tp271
I2
tp272
F-0.46733373121483357
s((I2
I-1
tp273
I0
tp274
F4.297614856931546
s((I-9
I10
tp275
I3
tp276
F-1.95
s((I0
I1
tp277
I0
tp278
F-0.41836020493797843
s((I-1
I-2
tp279
I2
tp280
F14.034518624706958
s((I-5
I5
tp281
I1
tp282
F-2.8525
s((I-4
I-2
tp283
I2
tp284
F8.6153624413151
s((I-3
I7
tp285
I2
tp286
F-2.8525
s((I8
I7
tp287
I2
tp288
F-1.0
s((I0
I3
tp289
I1
tp290
F-2.8525
s((I5
I3
tp291
I0
tp292
F-2.8525
s((I1
I1
tp293
I2
tp294
F3.0827341140849693
s((I0
I-2
tp295
I1
tp296
F12.33279269347161
s((I1
I-1
tp297
I0
tp298
F22.625386728786953
s((I5
I0
tp299
I0
tp300
F-1.95
s((I7
I7
tp301
I0
tp302
F-1.0
s((I-3
I1
tp303
I1
tp304
F0.6418264487242662
s((I3
I1
tp305
I1
tp306
F3.0827341140849693
s((I5
I4
tp307
I3
tp308
F-3.709875
s((I-1
I-3
tp309
I0
tp310
F14.055223467974963
s((I6
I7
tp311
I3
tp312
F-1.95
s((I7
I0
tp313
I1
tp314
F-3.709875
s((I2
I8
tp315
I1
tp316
F-2.8525
s((I2
I1
tp317
I2
tp318
F5.018498642347612
s((I-3
I0
tp319
I2
tp320
F-3.709875
s((I2
I-3
tp321
I1
tp322
F4.534096373122533
s((I-4
I-7
tp323
I1
tp324
F-1.0
s((I-4
I3
tp325
I0
tp326
F-1.95
s((I-6
I-2
tp327
I3
tp328
F-2.8525
s((I-10
I9
tp329
I3
tp330
F-3.709875
s((I-1
I0
tp331
I0
tp332
F17.122821541163205
s((I2
I3
tp333
I1
tp334
F-2.8525
s((I-4
I-3
tp335
I0
tp336
F7.184594319249344
s((I-4
I7
tp337
I3
tp338
F-2.8525
s((I-7
I4
tp339
I0
tp340
F-2.8525
s((I0
I2
tp341
I1
tp342
F-1.1353527348919996
s((I2
I-5
tp343
I1
tp344
F-3.709875
s((I-1
I7
tp345
I3
tp346
F-1.0
s((I9
I5
tp347
I2
tp348
F-1.0
s((I4
I3
tp349
I1
tp350
F-1.0
s((I-6
I6
tp351
I3
tp352
F10.256870921874997
s((I7
I5
tp353
I1
tp354
F-2.8525
s((I-9
I5
tp355
I3
tp356
F-3.709875
s((I-2
I3
tp357
I0
tp358
F-4.524381249999999
s((I1
I4
tp359
I1
tp360
F-1.95
s((I-6
I0
tp361
I3
tp362
F-3.709875
s((I-1
I-1
tp363
I0
tp364
F15.266680464105043
s((I7
I-5
tp365
I0
tp366
F-3.709875
s((I-5
I0
tp367
I0
tp368
F-2.8525
s((I-8
I5
tp369
I1
tp370
F-3.709875
s((I-5
I0
tp371
I1
tp372
F-7.395011805507812
s((I1
I0
tp373
I0
tp374
F1.9285974083807207
s((I-1
I-1
tp375
I3
tp376
F11.8281791188548
s((I-5
I8
tp377
I2
tp378
F-9.192798246747259
s((I-3
I-1
tp379
I2
tp380
F12.33279269347161
s((I0
I5
tp381
I2
tp382
F-1.0
s((I1
I-5
tp383
I1
tp384
F-2.8525
s((I-3
I5
tp385
I0
tp386
F-1.0
s((I8
I-6
tp387
I2
tp388
F-1.0
s((I1
I-4
tp389
I1
tp390
F-4.524381249999999
s((I-1
I-1
tp391
I2
tp392
F12.33279269347161
s((I0
I1
tp393
I1
tp394
F13.50334644089979
s((I-8
I3
tp395
I0
tp396
F-3.709875
s((I0
I0
tp397
I0
tp398
F9.180345405858128
s((I2
I7
tp399
I0
tp400
F-2.8525
s((I-3
I0
tp401
I3
tp402
F10.71615305879803
s((I1
I3
tp403
I3
tp404
F-1.3974421946910796
s((I7
I10
tp405
I3
tp406
F-1.95
s((I-3
I-1
tp407
I3
tp408
F13.579949952946615
s((I2
I2
tp409
I2
tp410
F6.33526172878696
s((I-2
I0
tp411
I2
tp412
F13.579949952946615
s((I-3
I4
tp413
I2
tp414
F-2.8525
s((I6
I-3
tp415
I3
tp416
F-1.0
s((I2
I2
tp417
I1
tp418
F6.33526172878696
s((I-1
I6
tp419
I3
tp420
F-1.0
s((I-9
I4
tp421
I3
tp422
F-2.8525
s((I2
I-2
tp423
I3
tp424
F-0.46733373121483357
s((I1
I2
tp425
I1
tp426
F0.560701335563333
s((I-6
I4
tp427
I3
tp428
F-3.709875
s((I-1
I2
tp429
I0
tp430
F-2.8525
s((I0
I-5
tp431
I0
tp432
F15.47561875
s((I-4
I-1
tp433
I0
tp434
F19.0
s((I-4
I0
tp435
I1
tp436
F-2.8525
s((I-2
I8
tp437
I2
tp438
F-2.8525
s((I-5
I1
tp439
I0
tp440
F-1.0
s((I6
I5
tp441
I2
tp442
F-1.95
s((I-1
I-2
tp443
I3
tp444
F14.034518624706958
s((I1
I1
tp445
I0
tp446
F6.33526172878696
s((I1
I-1
tp447
I2
tp448
F12.33279269347161
s((I2
I4
tp449
I2
tp450
F-2.8525
s((I-3
I-5
tp451
I2
tp452
F-1.0
s((I2
I-1
tp453
I1
tp454
F4.297614856931547
s((I-3
I-1
tp455
I0
tp456
F-3.709875
s((I-9
I8
tp457
I0
tp458
F-1.0
s((I6
I-1
tp459
I0
tp460
F-1.0
s((I5
I-3
tp461
I0
tp462
F-2.8525
s((I1
I7
tp463
I0
tp464
F-1.0
s((I5
I1
tp465
I3
tp466
F-1.95
s((I-4
I5
tp467
I1
tp468
F-3.709875
s((I2
I0
tp469
I2
tp470
F3.0827341140849693
s((I-6
I3
tp471
I0
tp472
F-3.709875
s((I1
I-3
tp473
I3
tp474
F0.9026562494271473
s((I-1
I3
tp475
I0
tp476
F-1.95
s((I-4
I-3
tp477
I2
tp478
F-1.0
s((I-8
I4
tp479
I0
tp480
F-2.8525
s((I-4
I-4
tp481
I3
tp482
F-1.0
s((I-2
I7
tp483
I3
tp484
F-2.8525
s((I6
I4
tp485
I0
tp486
F-1.95
s((I7
I-2
tp487
I1
tp488
F-1.95
s((I-1
I-5
tp489
I0
tp490
F3.021908208091845
s((I-1
I3
tp491
I2
tp492
F-2.8525
s((I3
I-1
tp493
I2
tp494
F1.642843511119298
s((I2
I-2
tp495
I1
tp496
F5.576436691506891
s((I-4
I-6
tp497
I2
tp498
F-1.0
s((I-5
I5
tp499
I0
tp500
F13.52561875
s((I-5
I-8
tp501
I2
tp502
F-4.524381249999999
s((I-4
I8
tp503
I2
tp504
F-2.8525
s((I1
I5
tp505
I2
tp506
F-1.95
s((I0
I-3
tp507
I1
tp508
F14.034518624706958
s((I1
I-1
tp509
I3
tp510
F3.7173187678069564
s((I0
I-4
tp511
I0
tp512
F12.33279269347161
s((I-10
I3
tp513
I0
tp514
F-2.8525
s((I6
I0
tp515
I3
tp516
F-2.8525
s((I9
I10
tp517
I3
tp518
F-1.0
s((I-9
I9
tp519
I0
tp520
F-5.298162187499999
s((I1
I-5
tp521
I3
tp522
F-2.8525
s((I-8
I10
tp523
I1
tp524
F-2.8525
s((I-1
I-3
tp525
I3
tp526
F14.055223467974963
s((I0
I1
tp527
I3
tp528
F8.695393012854385
s((I5
I-2
tp529
I0
tp530
F-1.95
s((I0
I0
tp531
I2
tp532
F12.33279269347161
s((I-3
I7
tp533
I1
tp534
F-2.8525
s((I-7
I5
tp535
I0
tp536
F-2.8525
s((I0
I3
tp537
I2
tp538
F-3.709875
s((I3
I-2
tp539
I1
tp540
F0.560701335563333
s((I5
I-1
tp541
I0
tp542
F-0.467333731214834
s((I7
I7
tp543
I3
tp544
F-1.0
s((I-2
I-2
tp545
I3
tp546
F12.33279269347161
s((I-1
I-1
tp547
I1
tp548
F13.579949952946615
s((I1
I2
tp549
I3
tp550
F5.018498642347612
s((I6
I6
tp551
I1
tp552
F13.52561875
s((I-6
I4
tp553
I1
tp554
F-2.8525
s((I-1
I2
tp555
I2
tp556
F12.562817455359895
s((I-2
I1
tp557
I2
tp558
F10.71615305879803
s((I-8
I9
tp559
I1
tp560
F-3.709875
s((I-5
I1
tp561
I2
tp562
F-6.731591374218749
s((I8
I10
tp563
I2
tp564
F-1.0
s((I6
I5
tp565
I0
tp566
F-3.709875
s((I-4
I4
tp567
I0
tp568
F-2.8525
s((I2
I0
tp569
I0
tp570
F6.33526172878696
s((I0
I-2
tp571
I0
tp572
F12.33279269347161
s((I-1
I4
tp573
I1
tp574
F-1.9500000000000002
s((I1
I-1
tp575
I1
tp576
F11.8281791188548
s((I8
I6
tp577
I3
tp578
F-1.95
s((I-6
I-3
tp579
I3
tp580
F-6.033254078124999
s((I2
I4
tp581
I3
tp582
F-1.95
s((I4
I-3
tp583
I3
tp584
F-1.95
s((I1
I4
tp585
I2
tp586
F-4.524381249999999
s((I-5
I-1
tp587
I1
tp588
F-1.95
s((I-3
I6
tp589
I1
tp590
F-2.8525
s((I-1
I-2
tp591
I0
tp592
F13.50334644089979
s((I7
I-5
tp593
I3
tp594
F-1.0
s((I1
I-3
tp595
I1
tp596
F15.825809078638905
s((I2
I-3
tp597
I0
tp598
F2.002796052028576
s((I10
I4
tp599
I2
tp600
F-5.298162187499999
s((I1
I8
tp601
I3
tp602
F-2.8525
s((I-8
I4
tp603
I2
tp604
F-2.8525
s((I3
I2
tp605
I2
tp606
F2.7819405380203137
s((I-8
I7
tp607
I2
tp608
F-1.95
s((I-6
I5
tp609
I1
tp610
F-1.95
s((I1
I-4
tp611
I2
tp612
F-2.8525
s((I-9
I6
tp613
I1
tp614
F-1.95
s((I6
I-4
tp615
I3
tp616
F-1.95
s((I8
I-5
tp617
I3
tp618
F-4.52438125
s((I-10
I10
tp619
I3
tp620
F-2.8525
s((I4
I2
tp621
I0
tp622
F-1.0
s((I7
I9
tp623
I0
tp624
F-1.9500000000000002
s((I-3
I-2
tp625
I0
tp626
F-2.8525
s((I6
I-2
tp627
I0
tp628
F-1.0
s((I0
I-3
tp629
I3
tp630
F4.534096373122533
s((I-1
I-4
tp631
I2
tp632
F4.2335875874651006
s((I0
I-1
tp633
I2
tp634
F13.251583459791878
s((I10
I3
tp635
I1
tp636
F-4.524381249999999
s((I7
I-4
tp637
I2
tp638
F-4.524381249999999
s((I-9
I4
tp639
I0
tp640
F-2.8525
s((I-5
I7
tp641
I0
tp642
F-1.9500000000000002
s((I-1
I-3
tp643
I1
tp644
F21.22736928408667
s((I10
I6
tp645
I1
tp646
F-4.524381249999999
s((I-8
I6
tp647
I0
tp648
F-2.8525
s((I-3
I7
tp649
I3
tp650
F-2.8525
s((I0
I3
tp651
I0
tp652
F-3.709875
s((I-10
I4
tp653
I2
tp654
F-1.95
s((I1
I1
tp655
I3
tp656
F3.0827341140849693
s((I0
I-2
tp657
I2
tp658
F12.33279269347161
s((I-5
I6
tp659
I1
tp660
F11.849337812499998
s((I3
I5
tp661
I1
tp662
F-1.0
s((I-5
I-1
tp663
I3
tp664
F-2.8525
s((I-3
I-2
tp665
I3
tp666
F12.352462294576215
s((I-5
I-7
tp667
I2
tp668
F-1.0
s((I3
I-1
tp669
I1
tp670
F3.0827341140849693
s((I-3
I1
tp671
I2
tp672
F9.180345405858128
s((I9
I6
tp673
I2
tp674
F-3.709875
s((I-1
I1
tp675
I1
tp676
F15.266680464105043
s((I5
I-3
tp677
I3
tp678
F-1.0
s((I-2
I-3
tp679
I3
tp680
F19.166000819882335
s((I6
I7
tp681
I2
tp682
F-1.95
s((I-2
I5
tp683
I1
tp684
F-1.0
s((I-2
I3
tp685
I2
tp686
F-3.709875
s((I-4
I3
tp687
I1
tp688
F-1.0
s((I-2
I1
tp689
I0
tp690
F-3.709875
s((I4
I1
tp691
I0
tp692
F-1.0
s((I6
I2
tp693
I0
tp694
F-1.95
s((I4
I-4
tp695
I2
tp696
F-1.0
s((I-2
I-2
tp697
I1
tp698
F13.468894022865594
s((I-7
I4
tp699
I3
tp700
F-3.709875
s((I6
I1
tp701
I1
tp702
F-2.8525
s((I-2
I7
tp703
I0
tp704
F-8.623998154470799
s((I7
I-3
tp705
I2
tp706
F-1.0
s((I4
I3
tp707
I0
tp708
F-4.524381249999999
s((I-5
I4
tp709
I0
tp710
F-2.8525
s((I2
I1
tp711
I3
tp712
F4.297614856931546
s((I-3
I-3
tp713
I0
tp714
F21.22736928408667
s((I-1
I5
tp715
I1
tp716
F-1.0
s((I5
I-2
tp717
I1
tp718
F-3.709875
s((I-7
I5
tp719
I1
tp720
F-3.709875
s((I-8
I5
tp721
I0
tp722
F-2.8525
s((I1
I8
tp723
I2
tp724
F-1.95
s((I1
I0
tp725
I3
tp726
F5.018498642347612
s((I-6
I-2
tp727
I2
tp728
F-1.0
s((I-9
I7
tp729
I0
tp730
F-1.0
s((I-9
I3
tp731
I3
tp732
F-3.709875
s((I3
I4
tp733
I1
tp734
F-2.8525
s((I2
I3
tp735
I2
tp736
F-0.5634951457965707
s((I5
I5
tp737
I3
tp738
F-2.8525
s((I1
I8
tp739
I1
tp740
F-1.0
s((I-5
I2
tp741
I3
tp742
F-4.524381249999999
s((I-10
I6
tp743
I2
tp744
F-1.95
s((I3
I-1
tp745
I3
tp746
F-0.46733373121483357
s((I2
I-4
tp747
I0
tp748
F-1.0
s((I-1
I-2
tp749
I1
tp750
F13.251583459791878
s((I-10
I5
tp751
I2
tp752
F-1.95
s((I1
I-4
tp753
I0
tp754
F16.84385978924308
s((I9
I4
tp755
I2
tp756
F-2.8525
s((I-2
I-1
tp757
I3
tp758
F11.900952455299281
s((I0
I0
tp759
I1
tp760
F10.9346765825919
s((I-2
I1
tp761
I3
tp762
F13.50334644089979
s((I-2
I0
tp763
I0
tp764
F0.6122524158547598
s((I3
I-2
tp765
I2
tp766
F-1.0
s((I4
I0
tp767
I0
tp768
F-1.0
s((I7
I10
tp769
I2
tp770
F-3.709875
s((I3
I0
tp771
I2
tp772
F0.5607013355633335
s((I-6
I4
tp773
I0
tp774
F-2.8525
s((I-1
I-4
tp775
I0
tp776
F14.034518624706958
s((I3
I0
tp777
I3
tp778
F2.5314528294166085
s((I4
I-2
tp779
I2
tp780
F-2.8525
s((I-5
I-9
tp781
I0
tp782
F-4.524381249999999
s((I-1
I6
tp783
I0
tp784
F-2.8525
s((I9
I3
tp785
I0
tp786
F-1.95
s((I1
I2
tp787
I0
tp788
F-3.709875
s((I9
I4
tp789
I3
tp790
F-1.95
s((I10
I7
tp791
I2
tp792
F-1.0
s((I-1
I1
tp793
I0
tp794
F10.9346765825919
s((I-1
I2
tp795
I1
tp796
F-3.709875
s((I0
I-5
tp797
I3
tp798
F-1.95
s((I-4
I-1
tp799
I1
tp800
F-2.8525
s((I-5
I-1
tp801
I0
tp802
F-8.02526121523242
s((I-2
I8
tp803
I3
tp804
F-4.524381249999999
s((I1
I1
tp805
I1
tp806
F9.180345405858128
s((I0
I-1
tp807
I0
tp808
F20.494117392347604
s((I1
I-2
tp809
I1
tp810
F1.8708127976872526
s((I-2
I0
tp811
I1
tp812
F-3.709875
s((I4
I-1
tp813
I2
tp814
F-2.8525
s((I5
I0
tp815
I1
tp816
F7.662713244271126
s((I2
I3
tp817
I0
tp818
F-2.8525
s((I-1
I7
tp819
I2
tp820
F-1.95
s((I-3
I0
tp821
I0
tp822
F7.721328135565221
s((I3
I1
tp823
I0
tp824
F1.642843511119298
s((I0
I4
tp825
I3
tp826
F-1.95
s((I-2
I-3
tp827
I1
tp828
F10.121434148752737
s((I-4
I-8
tp829
I1
tp830
F-3.709875
s((I2
I-2
tp831
I2
tp832
F0.7772721578028898
s((I-2
I-1
tp833
I1
tp834
F15.347315739943806
s((I-6
I-1
tp835
I2
tp836
F-1.95
s((I-5
I6
tp837
I0
tp838
F-10.2465004176894
s((I-3
I-2
tp839
I2
tp840
F10.121434148752737
s((I-2
I1
tp841
I1
tp842
F10.71615305879803
s((I0
I8
tp843
I2
tp844
F-1.95
s((I2
I-1
tp845
I2
tp846
F4.297614856931546
s((I-10
I9
tp847
I0
tp848
F-1.95
s((I-4
I7
tp849
I0
tp850
F-3.709875
s((I-7
I4
tp851
I1
tp852
F-3.709875
s((I0
I2
tp853
I0
tp854
F-2.8525
s((I-8
I4
tp855
I1
tp856
F-3.709875
s((I-3
I-1
tp857
I1
tp858
F-3.709875
s((I9
I5
tp859
I1
tp860
F-2.8525
s((I6
I4
tp861
I1
tp862
F-3.709875
s.