ccopy_reg
_reconstructor
p0
(cneural_net_impl
HiddenNetwork
p1
c__builtin__
object
p2
Ntp3
Rp4
(dp5
S'network'
p6
(ineural_net
NeuralNetwork
p7
(dp8
S'inputs'
p9
(lp10
(ineural_net
Node
p11
(dp12
g9
(lp13
sS'raw_value'
p14
I0
sS'transformed_value'
p15
I0
sS'forward_neighbors'
p16
(lp17
(ineural_net
Node
p18
(dp19
g9
(lp20
g11
a(ineural_net
Node
p21
(dp22
g9
(lp23
sg14
I1
sg15
I1
sg16
(lp24
g18
a(ineural_net
Node
p25
(dp26
g9
(lp27
g11
ag21
a(ineural_net
Node
p28
(dp29
g9
(lp30
sg14
I1
sg15
I1
sg16
(lp31
g18
ag25
a(ineural_net
Node
p32
(dp33
g9
(lp34
g11
ag21
ag28
a(ineural_net
Node
p35
(dp36
g9
(lp37
sg14
I1
sg15
I1
sg16
(lp38
g18
ag25
ag32
a(ineural_net
Node
p39
(dp40
g9
(lp41
g11
ag21
ag28
ag35
a(ineural_net
Node
p42
(dp43
g9
(lp44
sg14
I0
sg15
I0
sg16
(lp45
g18
ag25
ag32
ag39
a(ineural_net
Node
p46
(dp47
g9
(lp48
g11
ag21
ag28
ag35
ag42
a(ineural_net
Node
p49
(dp50
g9
(lp51
sg14
I0
sg15
I0
sg16
(lp52
g18
ag25
ag32
ag39
ag46
a(ineural_net
Node
p53
(dp54
g9
(lp55
g11
ag21
ag28
ag35
ag42
ag49
a(ineural_net
Node
p56
(dp57
g9
(lp58
sg14
I1
sg15
I1
sg16
(lp59
g18
ag25
ag32
ag39
ag46
ag53
a(ineural_net
Node
p60
(dp61
g9
(lp62
g11
ag21
ag28
ag35
ag42
ag49
ag56
a(ineural_net
Node
p63
(dp64
g9
(lp65
sg14
I1
sg15
I1
sg16
(lp66
g18
ag25
ag32
ag39
ag46
ag53
ag60
a(ineural_net
Node
p67
(dp68
g9
(lp69
g11
ag21
ag28
ag35
ag42
ag49
ag56
ag63
a(ineural_net
Node
p70
(dp71
g9
(lp72
sg14
I0
sg15
I0
sg16
(lp73
g18
ag25
ag32
ag39
ag46
ag53
ag60
ag67
a(ineural_net
Node
p74
(dp75
g9
(lp76
g11
ag21
ag28
ag35
ag42
ag49
ag56
ag63
ag70
a(ineural_net
Node
p77
(dp78
g9
(lp79
sg14
I1
sg15
I1
sg16
(lp80
g18
ag25
ag32
ag39
ag46
ag53
ag60
ag67
ag74
a(ineural_net
Node
p81
(dp82
g9
(lp83
g11
ag21
ag28
ag35
ag42
ag49
ag56
ag63
ag70
ag77
a(ineural_net
Node
p84
(dp85
g9
(lp86
sg14
I1
sg15
I1
sg16
(lp87
g18
ag25
ag32
ag39
ag46
ag53
ag60
ag67
ag74
ag81
a(ineural_net
Node
p88
(dp89
g9
(lp90
g11
ag21
ag28
ag35
ag42
ag49
ag56
ag63
ag70
ag77
ag84
a(ineural_net
Node
p91
(dp92
g9
(lp93
sg14
I1
sg15
I1
sg16
(lp94
g18
ag25
ag32
ag39
ag46
ag53
ag60
ag67
ag74
ag81
ag88
a(ineural_net
Node
p95
(dp96
g9
(lp97
g11
ag21
ag28
ag35
ag42
ag49
ag56
ag63
ag70
ag77
ag84
ag91
a(ineural_net
Node
p98
(dp99
g9
(lp100
sg14
I0
sg15
I0
sg16
(lp101
g18
ag25
ag32
ag39
ag46
ag53
ag60
ag67
ag74
ag81
ag88
ag95
a(ineural_net
Node
p102
(dp103
g9
(lp104
g11
ag21
ag28
ag35
ag42
ag49
ag56
ag63
ag70
ag77
ag84
ag91
ag98
a(ineural_net
Node
p105
(dp106
g9
(lp107
sg14
I1
sg15
I1
sg16
(lp108
g18
ag25
ag32
ag39
ag46
ag53
ag60
ag67
ag74
ag81
ag88
ag95
ag102
a(ineural_net
Node
p109
(dp110
g9
(lp111
g11
ag21
ag28
ag35
ag42
ag49
ag56
ag63
ag70
ag77
ag84
ag91
ag98
ag105
a(ineural_net
Node
p112
(dp113
g9
(lp114
sg14
I1
sg15
I1
sg16
(lp115
g18
ag25
ag32
ag39
ag46
ag53
ag60
ag67
ag74
ag81
ag88
ag95
ag102
ag109
a(ineural_net
Node
p116
(dp117
g9
(lp118
g11
ag21
ag28
ag35
ag42
ag49
ag56
ag63
ag70
ag77
ag84
ag91
ag98
ag105
ag112
a(ineural_net
Node
p119
(dp120
g9
(lp121
sg14
I0
sg15
I0
sg16
(lp122
g18
ag25
ag32
ag39
ag46
ag53
ag60
ag67
ag74
ag81
ag88
ag95
ag102
ag109
ag116
asS'forward_weights'
p123
(lp124
(ineural_net
Weight
p125
(dp126
S'value'
p127
F-0.42066295104407725
sba(ineural_net
Weight
p128
(dp129
g127
F0.46858255121844067
sba(ineural_net
Weight
p130
(dp131
g127
F-0.3468386433215113
sba(ineural_net
Weight
p132
(dp133
g127
F-0.39216299297669654
sba(ineural_net
Weight
p134
(dp135
g127
F-0.3827360176327999
sba(ineural_net
Weight
p136
(dp137
g127
F-0.39866421406351366
sba(ineural_net
Weight
p138
(dp139
g127
F-0.8732122011245836
sba(ineural_net
Weight
p140
(dp141
g127
F-0.36436590877412406
sba(ineural_net
Weight
p142
(dp143
g127
F-0.23458643300879048
sba(ineural_net
Weight
p144
(dp145
g127
F-0.397307843635336
sba(ineural_net
Weight
p146
(dp147
g127
F-0.3931018930195002
sba(ineural_net
Weight
p148
(dp149
g127
F-0.30813870728837334
sba(ineural_net
Weight
p150
(dp151
g127
F-0.4022946481803154
sba(ineural_net
Weight
p152
(dp153
g127
F-0.362409595614432
sba(ineural_net
Weight
p154
(dp155
g127
F-0.380862390692718
sbasS'weights'
p156
(lp157
sS'fixed_weight'
p158
Nsba(ineural_net
Node
p159
(dp160
g9
(lp161
sg14
I1
sg15
I1
sg16
(lp162
g18
ag25
ag32
ag39
ag46
ag53
ag60
ag67
ag74
ag81
ag88
ag95
ag102
ag109
ag116
asg123
(lp163
(ineural_net
Weight
p164
(dp165
g127
F0.025122209888910823
sba(ineural_net
Weight
p166
(dp167
g127
F-0.14184533516872871
sba(ineural_net
Weight
p168
(dp169
g127
F0.003340808895182046
sba(ineural_net
Weight
p170
(dp171
g127
F0.004519950100573807
sba(ineural_net
Weight
p172
(dp173
g127
F0.007425420750856908
sba(ineural_net
Weight
p174
(dp175
g127
F0.007449732730448277
sba(ineural_net
Weight
p176
(dp177
g127
F0.24426611957751868
sba(ineural_net
Weight
p178
(dp179
g127
F0.028196225041090445
sba(ineural_net
Weight
p180
(dp181
g127
F-0.01420874061009058
sba(ineural_net
Weight
p182
(dp183
g127
F5.2869786400487574e-05
sba(ineural_net
Weight
p184
(dp185
g127
F0.02936852085648551
sba(ineural_net
Weight
p186
(dp187
g127
F0.013338238739857969
sba(ineural_net
Weight
p188
(dp189
g127
F0.017105165721139955
sba(ineural_net
Weight
p190
(dp191
g127
F-0.012586434178496166
sba(ineural_net
Weight
p192
(dp193
g127
F0.01887434632112356
sbasg156
(lp194
sg158
Nsba(ineural_net
Node
p195
(dp196
g9
(lp197
sg14
I0
sg15
I0
sg16
(lp198
g18
ag25
ag32
ag39
ag46
ag53
ag60
ag67
ag74
ag81
ag88
ag95
ag102
ag109
ag116
asg123
(lp199
(ineural_net
Weight
p200
(dp201
g127
F0.21830102282184238
sba(ineural_net
Weight
p202
(dp203
g127
F-0.2732235537612599
sba(ineural_net
Weight
p204
(dp205
g127
F0.12076199309007538
sba(ineural_net
Weight
p206
(dp207
g127
F0.3431333113055011
sba(ineural_net
Weight
p208
(dp209
g127
F0.2927546580568959
sba(ineural_net
Weight
p210
(dp211
g127
F0.7113043007898044
sba(ineural_net
Weight
p212
(dp213
g127
F1.4825742789398926
sba(ineural_net
Weight
p214
(dp215
g127
F0.13372355319259555
sba(ineural_net
Weight
p216
(dp217
g127
F-0.021199922975282223
sba(ineural_net
Weight
p218
(dp219
g127
F0.35304379697040394
sba(ineural_net
Weight
p220
(dp221
g127
F0.14747971213385488
sba(ineural_net
Weight
p222
(dp223
g127
F0.07747315601356237
sba(ineural_net
Weight
p224
(dp225
g127
F0.17491333970778097
sba(ineural_net
Weight
p226
(dp227
g127
F0.4538756190678262
sba(ineural_net
Weight
p228
(dp229
g127
F0.14785858896667275
sbasg156
(lp230
sg158
Nsba(ineural_net
Node
p231
(dp232
g9
(lp233
sg14
I1
sg15
I1
sg16
(lp234
g18
ag25
ag32
ag39
ag46
ag53
ag60
ag67
ag74
ag81
ag88
ag95
ag102
ag109
ag116
asg123
(lp235
(ineural_net
Weight
p236
(dp237
g127
F-0.29126205025007035
sba(ineural_net
Weight
p238
(dp239
g127
F0.13643220718863078
sba(ineural_net
Weight
p240
(dp241
g127
F-0.2444667763253948
sba(ineural_net
Weight
p242
(dp243
g127
F-0.2686319033481813
sba(ineural_net
Weight
p244
(dp245
g127
F-0.2834154477411106
sba(ineural_net
Weight
p246
(dp247
g127
F-0.24942887917175444
sba(ineural_net
Weight
p248
(dp249
g127
F-0.8055485218195532
sba(ineural_net
Weight
p250
(dp251
g127
F-0.23261666682321752
sba(ineural_net
Weight
p252
(dp253
g127
F-0.18131078755072425
sba(ineural_net
Weight
p254
(dp255
g127
F-0.2588010589954938
sba(ineural_net
Weight
p256
(dp257
g127
F-0.27052342610355734
sba(ineural_net
Weight
p258
(dp259
g127
F-0.20853262454066462
sba(ineural_net
Weight
p260
(dp261
g127
F-0.259963431124013
sba(ineural_net
Weight
p262
(dp263
g127
F-0.2407675162964522
sba(ineural_net
Weight
p264
(dp265
g127
F-0.2576347720049711
sbasg156
(lp266
sg158
Nsba(ineural_net
Node
p267
(dp268
g9
(lp269
sg14
I0
sg15
I0
sg16
(lp270
g18
ag25
ag32
ag39
ag46
ag53
ag60
ag67
ag74
ag81
ag88
ag95
ag102
ag109
ag116
asg123
(lp271
(ineural_net
Weight
p272
(dp273
g127
F0.4453356817902
sba(ineural_net
Weight
p274
(dp275
g127
F0.0144636460065589
sba(ineural_net
Weight
p276
(dp277
g127
F0.30739100608814746
sba(ineural_net
Weight
p278
(dp279
g127
F0.5221163380536724
sba(ineural_net
Weight
p280
(dp281
g127
F0.48050251477480055
sba(ineural_net
Weight
p282
(dp283
g127
F0.7600135038422118
sba(ineural_net
Weight
p284
(dp285
g127
F1.3978059110283871
sba(ineural_net
Weight
p286
(dp287
g127
F0.3180340106745183
sba(ineural_net
Weight
p288
(dp289
g127
F0.1364586251410648
sba(ineural_net
Weight
p290
(dp291
g127
F0.5384454441409261
sba(ineural_net
Weight
p292
(dp293
g127
F0.33961467590779953
sba(ineural_net
Weight
p294
(dp295
g127
F0.25342872193929533
sba(ineural_net
Weight
p296
(dp297
g127
F0.3904178616960424
sba(ineural_net
Weight
p298
(dp299
g127
F0.6140344426918433
sba(ineural_net
Weight
p300
(dp301
g127
F0.3680528245014469
sbasg156
(lp302
sg158
Nsba(ineural_net
Node
p303
(dp304
g9
(lp305
sg14
I0
sg15
I0
sg16
(lp306
g18
ag25
ag32
ag39
ag46
ag53
ag60
ag67
ag74
ag81
ag88
ag95
ag102
ag109
ag116
asg123
(lp307
(ineural_net
Weight
p308
(dp309
g127
F0.33166764473320204
sba(ineural_net
Weight
p310
(dp311
g127
F-0.14130532027466913
sba(ineural_net
Weight
p312
(dp313
g127
F0.2348427689287846
sba(ineural_net
Weight
p314
(dp315
g127
F0.49539800769010595
sba(ineural_net
Weight
p316
(dp317
g127
F0.4134665281472689
sba(ineural_net
Weight
p318
(dp319
g127
F0.8792311026221492
sba(ineural_net
Weight
p320
(dp321
g127
F1.5446255102255797
sba(ineural_net
Weight
p322
(dp323
g127
F0.2408366620979205
sba(ineural_net
Weight
p324
(dp325
g127
F0.0811263913923126
sba(ineural_net
Weight
p326
(dp327
g127
F0.5130794629469468
sba(ineural_net
Weight
p328
(dp329
g127
F0.2534777848193553
sba(ineural_net
Weight
p330
(dp331
g127
F0.19150775276360532
sba(ineural_net
Weight
p332
(dp333
g127
F0.2837733097909217
sba(ineural_net
Weight
p334
(dp335
g127
F0.6074929953290846
sba(ineural_net
Weight
p336
(dp337
g127
F0.25556626170212554
sbasg156
(lp338
sg158
Nsba(ineural_net
Node
p339
(dp340
g9
(lp341
sg14
I0
sg15
I0
sg16
(lp342
g18
ag25
ag32
ag39
ag46
ag53
ag60
ag67
ag74
ag81
ag88
ag95
ag102
ag109
ag116
asg123
(lp343
(ineural_net
Weight
p344
(dp345
g127
F-0.22773651765697117
sba(ineural_net
Weight
p346
(dp347
g127
F0.2171657322817894
sba(ineural_net
Weight
p348
(dp349
g127
F-0.20392841994704386
sba(ineural_net
Weight
p350
(dp351
g127
F-0.23156620241877907
sba(ineural_net
Weight
p352
(dp353
g127
F-0.23098636672525627
sba(ineural_net
Weight
p354
(dp355
g127
F-0.18914442252390257
sba(ineural_net
Weight
p356
(dp357
g127
F0.018372951856160922
sba(ineural_net
Weight
p358
(dp359
g127
F-0.20103592737475462
sba(ineural_net
Weight
p360
(dp361
g127
F-0.1940003260933627
sba(ineural_net
Weight
p362
(dp363
g127
F-0.242167848504283
sba(ineural_net
Weight
p364
(dp365
g127
F-0.21804270821482696
sba(ineural_net
Weight
p366
(dp367
g127
F-0.21584674584862334
sba(ineural_net
Weight
p368
(dp369
g127
F-0.22461910098101054
sba(ineural_net
Weight
p370
(dp371
g127
F-0.23311627850507496
sba(ineural_net
Weight
p372
(dp373
g127
F-0.22673189075811678
sbasg156
(lp374
sg158
Nsba(ineural_net
Node
p375
(dp376
g9
(lp377
sg14
I0
sg15
I0
sg16
(lp378
g18
ag25
ag32
ag39
ag46
ag53
ag60
ag67
ag74
ag81
ag88
ag95
ag102
ag109
ag116
asg123
(lp379
(ineural_net
Weight
p380
(dp381
g127
F0.42974441588737355
sba(ineural_net
Weight
p382
(dp383
g127
F0.005280924288123691
sba(ineural_net
Weight
p384
(dp385
g127
F0.2654091985526273
sba(ineural_net
Weight
p386
(dp387
g127
F0.5677692111152126
sba(ineural_net
Weight
p388
(dp389
g127
F0.5272404967915569
sba(ineural_net
Weight
p390
(dp391
g127
F0.8390537468090635
sba(ineural_net
Weight
p392
(dp393
g127
F1.3360629297459903
sba(ineural_net
Weight
p394
(dp395
g127
F0.27657927020513684
sba(ineural_net
Weight
p396
(dp397
g127
F0.08025224264786494
sba(ineural_net
Weight
p398
(dp399
g127
F0.5863332514660157
sba(ineural_net
Weight
p400
(dp401
g127
F0.3050031983576172
sba(ineural_net
Weight
p402
(dp403
g127
F0.19589077783104109
sba(ineural_net
Weight
p404
(dp405
g127
F0.36304574940691176
sba(ineural_net
Weight
p406
(dp407
g127
F0.6679339859251475
sba(ineural_net
Weight
p408
(dp409
g127
F0.305790615530373
sbasg156
(lp410
sg158
Nsba(ineural_net
Node
p411
(dp412
g9
(lp413
sg14
I1
sg15
I1
sg16
(lp414
g18
ag25
ag32
ag39
ag46
ag53
ag60
ag67
ag74
ag81
ag88
ag95
ag102
ag109
ag116
asg123
(lp415
(ineural_net
Weight
p416
(dp417
g127
F0.3804116276738579
sba(ineural_net
Weight
p418
(dp419
g127
F-0.0772017128297098
sba(ineural_net
Weight
p420
(dp421
g127
F0.22157494476374534
sba(ineural_net
Weight
p422
(dp423
g127
F0.5794802915349901
sba(ineural_net
Weight
p424
(dp425
g127
F0.49587188047906283
sba(ineural_net
Weight
p426
(dp427
g127
F0.7851974957133151
sba(ineural_net
Weight
p428
(dp429
g127
F0.9927903575171105
sba(ineural_net
Weight
p430
(dp431
g127
F0.23689111721502903
sba(ineural_net
Weight
p432
(dp433
g127
F0.05353493202220226
sba(ineural_net
Weight
p434
(dp435
g127
F0.5801462688634902
sba(ineural_net
Weight
p436
(dp437
g127
F0.24772422188705764
sba(ineural_net
Weight
p438
(dp439
g127
F0.16096943926034246
sba(ineural_net
Weight
p440
(dp441
g127
F0.29332290685255824
sba(ineural_net
Weight
p442
(dp443
g127
F0.6814476831327291
sba(ineural_net
Weight
p444
(dp445
g127
F0.2585485254267851
sbasg156
(lp446
sg158
Nsba(ineural_net
Node
p447
(dp448
g9
(lp449
sg14
I0
sg15
I0
sg16
(lp450
g18
ag25
ag32
ag39
ag46
ag53
ag60
ag67
ag74
ag81
ag88
ag95
ag102
ag109
ag116
asg123
(lp451
(ineural_net
Weight
p452
(dp453
g127
F-0.048833176530181197
sba(ineural_net
Weight
p454
(dp455
g127
F-0.19991134782976333
sba(ineural_net
Weight
p456
(dp457
g127
F-0.03191225259374084
sba(ineural_net
Weight
p458
(dp459
g127
F-0.12485224046640558
sba(ineural_net
Weight
p460
(dp461
g127
F-0.10101063560422709
sba(ineural_net
Weight
p462
(dp463
g127
F-0.18970922584006886
sba(ineural_net
Weight
p464
(dp465
g127
F0.6958805607872844
sba(ineural_net
Weight
p466
(dp467
g127
F-0.026424527640839354
sba(ineural_net
Weight
p468
(dp469
g127
F-0.07517932839652611
sba(ineural_net
Weight
p470
(dp471
g127
F-0.13097222483110021
sba(ineural_net
Weight
p472
(dp473
g127
F-0.024005895839316425
sba(ineural_net
Weight
p474
(dp475
g127
F-0.04491900941764114
sba(ineural_net
Weight
p476
(dp477
g127
F-0.03362528983097493
sba(ineural_net
Weight
p478
(dp479
g127
F-0.1726633883091802
sba(ineural_net
Weight
p480
(dp481
g127
F-0.040192946252508466
sbasg156
(lp482
sg158
Nsba(ineural_net
Node
p483
(dp484
g9
(lp485
sg14
I1
sg15
I1
sg16
(lp486
g18
ag25
ag32
ag39
ag46
ag53
ag60
ag67
ag74
ag81
ag88
ag95
ag102
ag109
ag116
asg123
(lp487
(ineural_net
Weight
p488
(dp489
g127
F0.029051730440175772
sba(ineural_net
Weight
p490
(dp491
g127
F-0.39158932656577816
sba(ineural_net
Weight
p492
(dp493
g127
F0.0018813343978195374
sba(ineural_net
Weight
p494
(dp495
g127
F0.039084576397752015
sba(ineural_net
Weight
p496
(dp497
g127
F0.041950343122910363
sba(ineural_net
Weight
p498
(dp499
g127
F0.07294450271516771
sba(ineural_net
Weight
p500
(dp501
g127
F0.31920872834093783
sba(ineural_net
Weight
p502
(dp503
g127
F-0.0026777581304686755
sba(ineural_net
Weight
p504
(dp505
g127
F-0.08705596204229071
sba(ineural_net
Weight
p506
(dp507
g127
F0.05581223696131832
sba(ineural_net
Weight
p508
(dp509
g127
F0.020773016790144674
sba(ineural_net
Weight
p510
(dp511
g127
F-0.022416402428668103
sba(ineural_net
Weight
p512
(dp513
g127
F0.024475214467607302
sba(ineural_net
Weight
p514
(dp515
g127
F0.03262837997617276
sba(ineural_net
Weight
p516
(dp517
g127
F0.0010666733021497087
sbasg156
(lp518
sg158
Nsba(ineural_net
Node
p519
(dp520
g9
(lp521
sg14
I1
sg15
I1
sg16
(lp522
g18
ag25
ag32
ag39
ag46
ag53
ag60
ag67
ag74
ag81
ag88
ag95
ag102
ag109
ag116
asg123
(lp523
(ineural_net
Weight
p524
(dp525
g127
F-0.13720990509448328
sba(ineural_net
Weight
p526
(dp527
g127
F0.0719399543375905
sba(ineural_net
Weight
p528
(dp529
g127
F-0.1279187918514448
sba(ineural_net
Weight
p530
(dp531
g127
F-0.1287072811701156
sba(ineural_net
Weight
p532
(dp533
g127
F-0.13075137968112188
sba(ineural_net
Weight
p534
(dp535
g127
F0.0401829915386401
sba(ineural_net
Weight
p536
(dp537
g127
F0.22334215858708273
sba(ineural_net
Weight
p538
(dp539
g127
F-0.11483208153420475
sba(ineural_net
Weight
p540
(dp541
g127
F-0.10716429971953541
sba(ineural_net
Weight
p542
(dp543
g127
F-0.11534279349002198
sba(ineural_net
Weight
p544
(dp545
g127
F-0.1099758096784658
sba(ineural_net
Weight
p546
(dp547
g127
F-0.11726297735220965
sba(ineural_net
Weight
p548
(dp549
g127
F-0.1181316660576626
sba(ineural_net
Weight
p550
(dp551
g127
F-0.08958506499666229
sba(ineural_net
Weight
p552
(dp553
g127
F-0.10949210822751047
sbasg156
(lp554
sg158
Nsba(ineural_net
Node
p555
(dp556
g9
(lp557
sg14
I1
sg15
I1
sg16
(lp558
g18
ag25
ag32
ag39
ag46
ag53
ag60
ag67
ag74
ag81
ag88
ag95
ag102
ag109
ag116
asg123
(lp559
(ineural_net
Weight
p560
(dp561
g127
F-0.070120601777102
sba(ineural_net
Weight
p562
(dp563
g127
F0.09367038417651563
sba(ineural_net
Weight
p564
(dp565
g127
F-0.07998025332913299
sba(ineural_net
Weight
p566
(dp567
g127
F-0.07729163707944571
sba(ineural_net
Weight
p568
(dp569
g127
F-0.07882419875030239
sba(ineural_net
Weight
p570
(dp571
g127
F-0.08165241281325145
sba(ineural_net
Weight
p572
(dp573
g127
F0.08643948356155093
sba(ineural_net
Weight
p574
(dp575
g127
F-0.06682979550795248
sba(ineural_net
Weight
p576
(dp577
g127
F-0.10360257472437817
sba(ineural_net
Weight
p578
(dp579
g127
F-0.09898415727343295
sba(ineural_net
Weight
p580
(dp581
g127
F-0.08793747287932957
sba(ineural_net
Weight
p582
(dp583
g127
F-0.09249477296458904
sba(ineural_net
Weight
p584
(dp585
g127
F-0.07350663471958283
sba(ineural_net
Weight
p586
(dp587
g127
F-0.08705962994818438
sba(ineural_net
Weight
p588
(dp589
g127
F-0.08779593021204522
sbasg156
(lp590
sg158
Nsba(ineural_net
Node
p591
(dp592
g9
(lp593
sg14
I1
sg15
I1
sg16
(lp594
g18
ag25
ag32
ag39
ag46
ag53
ag60
ag67
ag74
ag81
ag88
ag95
ag102
ag109
ag116
asg123
(lp595
(ineural_net
Weight
p596
(dp597
g127
F-0.03152829723868249
sba(ineural_net
Weight
p598
(dp599
g127
F0.39721513484954635
sba(ineural_net
Weight
p600
(dp601
g127
F-0.033255758063889224
sba(ineural_net
Weight
p602
(dp603
g127
F-0.1260529389476557
sba(ineural_net
Weight
p604
(dp605
g127
F-0.08616778962108405
sba(ineural_net
Weight
p606
(dp607
g127
F-0.2858671606381423
sba(ineural_net
Weight
p608
(dp609
g127
F0.1539278116125658
sba(ineural_net
Weight
p610
(dp611
g127
F-0.015139792330536724
sba(ineural_net
Weight
p612
(dp613
g127
F-0.031187568425771788
sba(ineural_net
Weight
p614
(dp615
g127
F-0.1416011670141682
sba(ineural_net
Weight
p616
(dp617
g127
F-0.013247647685777162
sba(ineural_net
Weight
p618
(dp619
g127
F-0.03211105674798825
sba(ineural_net
Weight
p620
(dp621
g127
F-0.020193824492374824
sba(ineural_net
Weight
p622
(dp623
g127
F-0.18349318218229374
sba(ineural_net
Weight
p624
(dp625
g127
F-0.02179725193776734
sbasg156
(lp626
sg158
Nsba(ineural_net
Node
p627
(dp628
g9
(lp629
sg14
I1
sg15
I1
sg16
(lp630
g18
ag25
ag32
ag39
ag46
ag53
ag60
ag67
ag74
ag81
ag88
ag95
ag102
ag109
ag116
asg123
(lp631
(ineural_net
Weight
p632
(dp633
g127
F-0.010487719946647841
sba(ineural_net
Weight
p634
(dp635
g127
F-0.1169196739339402
sba(ineural_net
Weight
p636
(dp637
g127
F0.014065415939397186
sba(ineural_net
Weight
p638
(dp639
g127
F-0.04633643951106924
sba(ineural_net
Weight
p640
(dp641
g127
F-0.032166974450696155
sba(ineural_net
Weight
p642
(dp643
g127
F-0.1396311587451142
sba(ineural_net
Weight
p644
(dp645
g127
F0.40002582709352397
sba(ineural_net
Weight
p646
(dp647
g127
F0.019498122299877425
sba(ineural_net
Weight
p648
(dp649
g127
F-0.02207611402891635
sba(ineural_net
Weight
p650
(dp651
g127
F-0.05479682631227479
sba(ineural_net
Weight
p652
(dp653
g127
F0.01802338699817564
sba(ineural_net
Weight
p654
(dp655
g127
F-0.0011100567900043266
sba(ineural_net
Weight
p656
(dp657
g127
F0.006793359182296096
sba(ineural_net
Weight
p658
(dp659
g127
F-0.06363767303850201
sba(ineural_net
Weight
p660
(dp661
g127
F0.006261240629520782
sbasg156
(lp662
sg158
Nsba(ineural_net
Node
p663
(dp664
g9
(lp665
sg14
I0
sg15
I0
sg16
(lp666
g18
ag25
ag32
ag39
ag46
ag53
ag60
ag67
ag74
ag81
ag88
ag95
ag102
ag109
ag116
asg123
(lp667
(ineural_net
Weight
p668
(dp669
g127
F-0.33900246430435543
sba(ineural_net
Weight
p670
(dp671
g127
F0.5577913859500315
sba(ineural_net
Weight
p672
(dp673
g127
F-0.2952506274456666
sba(ineural_net
Weight
p674
(dp675
g127
F-0.34815815049465426
sba(ineural_net
Weight
p676
(dp677
g127
F-0.3312970554249288
sba(ineural_net
Weight
p678
(dp679
g127
F-0.39771929941321754
sba(ineural_net
Weight
p680
(dp681
g127
F-0.8681649835731623
sba(ineural_net
Weight
p682
(dp683
g127
F-0.2885817210829086
sba(ineural_net
Weight
p684
(dp685
g127
F-0.19028306412230744
sba(ineural_net
Weight
p686
(dp687
g127
F-0.3468953782953564
sba(ineural_net
Weight
p688
(dp689
g127
F-0.30516322815857005
sba(ineural_net
Weight
p690
(dp691
g127
F-0.2614381122742631
sba(ineural_net
Weight
p692
(dp693
g127
F-0.3127801043824928
sba(ineural_net
Weight
p694
(dp695
g127
F-0.31234303713706757
sba(ineural_net
Weight
p696
(dp697
g127
F-0.2942990143217725
sbasg156
(lp698
sg158
Nsba(ineural_net
Node
p699
(dp700
g9
(lp701
sg14
I0
sg15
I0
sg16
(lp702
g18
ag25
ag32
ag39
ag46
ag53
ag60
ag67
ag74
ag81
ag88
ag95
ag102
ag109
ag116
asg123
(lp703
(ineural_net
Weight
p704
(dp705
g127
F-0.03822561717985192
sba(ineural_net
Weight
p706
(dp707
g127
F0.19289618331550243
sba(ineural_net
Weight
p708
(dp709
g127
F-0.061658190513460207
sba(ineural_net
Weight
p710
(dp711
g127
F0.021283748612315342
sba(ineural_net
Weight
p712
(dp713
g127
F0.00498788729554382
sba(ineural_net
Weight
p714
(dp715
g127
F0.20353716740392166
sba(ineural_net
Weight
p716
(dp717
g127
F0.4860831439316115
sba(ineural_net
Weight
p718
(dp719
g127
F-0.06923771031993557
sba(ineural_net
Weight
p720
(dp721
g127
F-0.07657622299342527
sba(ineural_net
Weight
p722
(dp723
g127
F0.039839551869030494
sba(ineural_net
Weight
p724
(dp725
g127
F-0.053200474757207405
sba(ineural_net
Weight
p726
(dp727
g127
F-0.05452476095402055
sba(ineural_net
Weight
p728
(dp729
g127
F-0.040787990440931295
sba(ineural_net
Weight
p730
(dp731
g127
F0.06443570530732905
sba(ineural_net
Weight
p732
(dp733
g127
F-0.05438848327771032
sbasg156
(lp734
sg158
Nsba(ineural_net
Node
p735
(dp736
g9
(lp737
sg14
I0
sg15
I0
sg16
(lp738
g18
ag25
ag32
ag39
ag46
ag53
ag60
ag67
ag74
ag81
ag88
ag95
ag102
ag109
ag116
asg123
(lp739
(ineural_net
Weight
p740
(dp741
g127
F0.2423034427394884
sba(ineural_net
Weight
p742
(dp743
g127
F-0.3591422663936756
sba(ineural_net
Weight
p744
(dp745
g127
F0.12321099370521485
sba(ineural_net
Weight
p746
(dp747
g127
F0.351613373236005
sba(ineural_net
Weight
p748
(dp749
g127
F0.29856981075291794
sba(ineural_net
Weight
p750
(dp751
g127
F0.5677823497121758
sba(ineural_net
Weight
p752
(dp753
g127
F0.6674088487994413
sba(ineural_net
Weight
p754
(dp755
g127
F0.13311677456959803
sba(ineural_net
Weight
p756
(dp757
g127
F-0.0004963524374778679
sba(ineural_net
Weight
p758
(dp759
g127
F0.37758091657248904
sba(ineural_net
Weight
p760
(dp761
g127
F0.15392777084751172
sba(ineural_net
Weight
p762
(dp763
g127
F0.08816387738065178
sba(ineural_net
Weight
p764
(dp765
g127
F0.1910123163849722
sba(ineural_net
Weight
p766
(dp767
g127
F0.43786940988952516
sba(ineural_net
Weight
p768
(dp769
g127
F0.14373800969512746
sbasg156
(lp770
sg158
Nsba(ineural_net
Node
p771
(dp772
g9
(lp773
sg14
I0
sg15
I0
sg16
(lp774
g18
ag25
ag32
ag39
ag46
ag53
ag60
ag67
ag74
ag81
ag88
ag95
ag102
ag109
ag116
asg123
(lp775
(ineural_net
Weight
p776
(dp777
g127
F-0.31577930463492937
sba(ineural_net
Weight
p778
(dp779
g127
F0.6591089118506377
sba(ineural_net
Weight
p780
(dp781
g127
F-0.31450249433147814
sba(ineural_net
Weight
p782
(dp783
g127
F-0.26211871548489263
sba(ineural_net
Weight
p784
(dp785
g127
F-0.29323329676987275
sba(ineural_net
Weight
p786
(dp787
g127
F-0.2820124025315474
sba(ineural_net
Weight
p788
(dp789
g127
F-0.8289697145510264
sba(ineural_net
Weight
p790
(dp791
g127
F-0.3312035986445389
sba(ineural_net
Weight
p792
(dp793
g127
F-0.21205312904068196
sba(ineural_net
Weight
p794
(dp795
g127
F-0.2593846925091053
sba(ineural_net
Weight
p796
(dp797
g127
F-0.3168930007464048
sba(ineural_net
Weight
p798
(dp799
g127
F-0.30579141376738916
sba(ineural_net
Weight
p800
(dp801
g127
F-0.3379655676257697
sba(ineural_net
Weight
p802
(dp803
g127
F-0.2181026588967112
sba(ineural_net
Weight
p804
(dp805
g127
F-0.31610520793955144
sbasg156
(lp806
sg158
Nsba(ineural_net
Node
p807
(dp808
g9
(lp809
sg14
I0
sg15
I0
sg16
(lp810
g18
ag25
ag32
ag39
ag46
ag53
ag60
ag67
ag74
ag81
ag88
ag95
ag102
ag109
ag116
asg123
(lp811
(ineural_net
Weight
p812
(dp813
g127
F0.015450756245466539
sba(ineural_net
Weight
p814
(dp815
g127
F0.02147812094393417
sba(ineural_net
Weight
p816
(dp817
g127
F0.00864052032974378
sba(ineural_net
Weight
p818
(dp819
g127
F-0.0070164746667176914
sba(ineural_net
Weight
p820
(dp821
g127
F0.014497923600093407
sba(ineural_net
Weight
p822
(dp823
g127
F-0.16989702766195577
sba(ineural_net
Weight
p824
(dp825
g127
F0.16241698905038016
sba(ineural_net
Weight
p826
(dp827
g127
F0.012209358105676006
sba(ineural_net
Weight
p828
(dp829
g127
F-0.00310653666661912
sba(ineural_net
Weight
p830
(dp831
g127
F0.005137527178664651
sba(ineural_net
Weight
p832
(dp833
g127
F0.026018659505731293
sba(ineural_net
Weight
p834
(dp835
g127
F0.005148206699425038
sba(ineural_net
Weight
p836
(dp837
g127
F0.03761664190762904
sba(ineural_net
Weight
p838
(dp839
g127
F-0.0046376306834773565
sba(ineural_net
Weight
p840
(dp841
g127
F0.02806949550093126
sbasg156
(lp842
sg158
Nsba(ineural_net
Node
p843
(dp844
g9
(lp845
sg14
I0
sg15
I0
sg16
(lp846
g18
ag25
ag32
ag39
ag46
ag53
ag60
ag67
ag74
ag81
ag88
ag95
ag102
ag109
ag116
asg123
(lp847
(ineural_net
Weight
p848
(dp849
g127
F0.21309139232563312
sba(ineural_net
Weight
p850
(dp851
g127
F-0.25613107810276164
sba(ineural_net
Weight
p852
(dp853
g127
F0.1476781990374071
sba(ineural_net
Weight
p854
(dp855
g127
F0.2763865121969876
sba(ineural_net
Weight
p856
(dp857
g127
F0.2343336081430119
sba(ineural_net
Weight
p858
(dp859
g127
F0.41929008567206577
sba(ineural_net
Weight
p860
(dp861
g127
F1.0415731136474469
sba(ineural_net
Weight
p862
(dp863
g127
F0.1414765327498972
sba(ineural_net
Weight
p864
(dp865
g127
F0.023639846064941024
sba(ineural_net
Weight
p866
(dp867
g127
F0.27520470127027524
sba(ineural_net
Weight
p868
(dp869
g127
F0.1634957080424509
sba(ineural_net
Weight
p870
(dp871
g127
F0.1085438978722329
sba(ineural_net
Weight
p872
(dp873
g127
F0.16796379521279456
sba(ineural_net
Weight
p874
(dp875
g127
F0.3131294962909516
sba(ineural_net
Weight
p876
(dp877
g127
F0.1674530642876715
sbasg156
(lp878
sg158
Nsbasg14
F-2.205097165369172
sS'delta'
p879
F0.0013123770770404172
sg15
F0.09929369490457429
sg16
(lp880
(ineural_net
Node
p881
(dp882
g9
(lp883
g18
ag25
ag32
ag39
ag46
ag53
ag60
ag67
ag74
ag81
ag88
ag95
ag102
ag109
ag116
asg14
F0.4505481300394099
sg879
F0.006109207812808562
sg15
F0.6107695488711176
sg16
(lp884
sg123
(lp885
sg156
(lp886
(ineural_net
Weight
p887
(dp888
g127
F0.6947691178124753
sba(ineural_net
Weight
p889
(dp890
g127
F-1.0812295284258964
sba(ineural_net
Weight
p891
(dp892
g127
F0.63329554838148
sba(ineural_net
Weight
p893
(dp894
g127
F0.6966096593354979
sba(ineural_net
Weight
p895
(dp896
g127
F0.6970501045486567
sba(ineural_net
Weight
p897
(dp898
g127
F0.5856466663207976
sba(ineural_net
Weight
p899
(dp900
g127
F0.7614466093147955
sba(ineural_net
Weight
p901
(dp902
g127
F0.6409356815254458
sba(ineural_net
Weight
p903
(dp904
g127
F0.46496584449266476
sba(ineural_net
Weight
p905
(dp906
g127
F0.7078730495843167
sba(ineural_net
Weight
p907
(dp908
g127
F0.6524013493388351
sba(ineural_net
Weight
p909
(dp910
g127
F0.583393715901509
sba(ineural_net
Weight
p911
(dp912
g127
F0.673640095876146
sba(ineural_net
Weight
p913
(dp914
g127
F0.6832367253917954
sba(ineural_net
Weight
p915
(dp916
g127
F0.6453964156920838
sbasg158
(ineural_net
Weight
p917
(dp918
g127
F0.0026050183700786662
sbsS'error'
p919
F0.08155800278010072
sba(ineural_net
Node
p920
(dp921
g9
(lp922
g18
ag25
ag32
ag39
ag46
ag53
ag60
ag67
ag74
ag81
ag88
ag95
ag102
ag109
ag116
asg14
F-0.4507392959229722
sg879
F-0.006107386286995753
sg15
F0.38918500620537105
sg16
(lp923
sg123
(lp924
sg156
(lp925
(ineural_net
Weight
p926
(dp927
g127
F-0.6987797404992984
sba(ineural_net
Weight
p928
(dp929
g127
F1.0831340716631606
sba(ineural_net
Weight
p930
(dp931
g127
F-0.6159994305244959
sba(ineural_net
Weight
p932
(dp933
g127
F-0.7100669457728408
sba(ineural_net
Weight
p934
(dp935
g127
F-0.7104907622725759
sba(ineural_net
Weight
p936
(dp937
g127
F-0.5857881565540919
sba(ineural_net
Weight
p938
(dp939
g127
F-0.7614069548551039
sba(ineural_net
Weight
p940
(dp941
g127
F-0.6330664973889955
sba(ineural_net
Weight
p942
(dp943
g127
F-0.46718226828498727
sba(ineural_net
Weight
p944
(dp945
g127
F-0.6973203379599161
sba(ineural_net
Weight
p946
(dp947
g127
F-0.6458202985930097
sba(ineural_net
Weight
p948
(dp949
g127
F-0.5787039714510576
sba(ineural_net
Weight
p950
(dp951
g127
F-0.6804968662116033
sba(ineural_net
Weight
p952
(dp953
g127
F-0.6755577241378296
sba(ineural_net
Weight
p954
(dp955
g127
F-0.6574994566041534
sbasg158
(ineural_net
Weight
p956
(dp957
g127
F-0.004782564607536684
sbsg919
F-0.08154527829779297
sbasg123
(lp958
g915
ag954
asg156
(lp959
(ineural_net
Weight
p960
(dp961
g127
F-0.23440210305057047
sba(ineural_net
Weight
p962
(dp963
g127
F-0.1747729448768956
sba(ineural_net
Weight
p964
(dp965
g127
F-0.22493430309459742
sba(ineural_net
Weight
p966
(dp967
g127
F-0.24747750945791047
sba(ineural_net
Weight
p968
(dp969
g127
F0.2864080474609436
sba(ineural_net
Weight
p970
(dp971
g127
F0.21680757948734608
sba(ineural_net
Weight
p972
(dp973
g127
F-0.30060578128634174
sba(ineural_net
Weight
p974
(dp975
g127
F-0.2906463977110636
sba(ineural_net
Weight
p976
(dp977
g127
F-0.23146997706852449
sba(ineural_net
Weight
p978
(dp979
g127
F-0.03547705386949427
sba(ineural_net
Weight
p980
(dp981
g127
F-0.0839780995154782
sba(ineural_net
Weight
p982
(dp983
g127
F-0.10058414363451665
sba(ineural_net
Weight
p984
(dp985
g127
F-0.23484803878013322
sba(ineural_net
Weight
p986
(dp987
g127
F-0.2616385050907404
sba(ineural_net
Weight
p988
(dp989
g127
F-0.29427824844767314
sbag154
ag192
ag228
ag264
ag300
ag336
ag372
ag408
ag444
ag480
ag516
ag552
ag588
ag624
ag660
ag696
ag732
ag768
ag804
ag840
ag876
asg158
(ineural_net
Weight
p990
(dp991
g127
F0.0012650983182549425
sbsg919
F0.007956909289160981
sbasg123
(lp992
(ineural_net
Weight
p993
(dp994
g127
F-0.2810389892210409
sba(ineural_net
Weight
p995
(dp996
g127
F0.2584651616185578
sba(ineural_net
Weight
p997
(dp998
g127
F-0.27991217858712975
sba(ineural_net
Weight
p999
(dp1000
g127
F-0.19759494467270772
sba(ineural_net
Weight
p1001
(dp1002
g127
F-0.2428328352821694
sba(ineural_net
Weight
p1003
(dp1004
g127
F-0.04304931687622278
sba(ineural_net
Weight
p1005
(dp1006
g127
F-0.3716952124696682
sba(ineural_net
Weight
p1007
(dp1008
g127
F-0.2887508888267162
sba(ineural_net
Weight
p1009
(dp1010
g127
F-0.21786797144299408
sba(ineural_net
Weight
p1011
(dp1012
g127
F-0.20315328205706853
sba(ineural_net
Weight
p1013
(dp1014
g127
F-0.2896595378554188
sba(ineural_net
Weight
p1015
(dp1016
g127
F-0.2608828966799707
sba(ineural_net
Weight
p1017
(dp1018
g127
F-0.3198128920181741
sba(ineural_net
Weight
p1019
(dp1020
g127
F-0.19217542916505626
sbag988
asg156
(lp1021
sg158
Nsbag119
ag159
ag195
ag231
ag267
ag303
ag339
ag375
ag411
ag447
ag483
ag519
ag555
ag591
ag627
ag663
ag699
ag735
ag771
ag807
ag843
asg14
F-1.774829901620296
sg879
F0.00206285997147643
sg15
F0.14494271124197808
sg16
(lp1022
g881
ag920
asg123
(lp1023
g913
ag952
asg156
(lp1024
(ineural_net
Weight
p1025
(dp1026
g127
F-0.2244618737251571
sba(ineural_net
Weight
p1027
(dp1028
g127
F-0.29223527945137473
sba(ineural_net
Weight
p1029
(dp1030
g127
F-0.07458295142993646
sba(ineural_net
Weight
p1031
(dp1032
g127
F-0.2824306432073423
sba(ineural_net
Weight
p1033
(dp1034
g127
F0.7762716463915668
sba(ineural_net
Weight
p1035
(dp1036
g127
F0.5606976893041863
sba(ineural_net
Weight
p1037
(dp1038
g127
F-0.4526278270849457
sba(ineural_net
Weight
p1039
(dp1040
g127
F-0.23333083841800872
sba(ineural_net
Weight
p1041
(dp1042
g127
F-0.2820514957612078
sba(ineural_net
Weight
p1043
(dp1044
g127
F0.06661579665119048
sba(ineural_net
Weight
p1045
(dp1046
g127
F0.07251654589953692
sba(ineural_net
Weight
p1047
(dp1048
g127
F-0.08407943526684249
sba(ineural_net
Weight
p1049
(dp1050
g127
F-0.4704664716302381
sba(ineural_net
Weight
p1051
(dp1052
g127
F-0.3368496496983608
sbag1019
ag152
ag190
ag226
ag262
ag298
ag334
ag370
ag406
ag442
ag478
ag514
ag550
ag586
ag622
ag658
ag694
ag730
ag766
ag802
ag838
ag874
asg158
(ineural_net
Weight
p1053
(dp1054
g127
F-0.002596752917467115
sbsg919
F0.008295922776916938
sbag116
asg123
(lp1055
(ineural_net
Weight
p1056
(dp1057
g127
F-0.2777132439800309
sba(ineural_net
Weight
p1058
(dp1059
g127
F0.11928713569279385
sba(ineural_net
Weight
p1060
(dp1061
g127
F-0.2516514152840973
sba(ineural_net
Weight
p1062
(dp1063
g127
F-0.30099246319638834
sba(ineural_net
Weight
p1064
(dp1065
g127
F-0.3044021280787634
sba(ineural_net
Weight
p1066
(dp1067
g127
F-0.3150675575805911
sba(ineural_net
Weight
p1068
(dp1069
g127
F-0.214560778626739
sba(ineural_net
Weight
p1070
(dp1071
g127
F-0.26033114768241084
sba(ineural_net
Weight
p1072
(dp1073
g127
F-0.21723353455199815
sba(ineural_net
Weight
p1074
(dp1075
g127
F-0.3112927967567723
sba(ineural_net
Weight
p1076
(dp1077
g127
F-0.2592515608163307
sba(ineural_net
Weight
p1078
(dp1079
g127
F-0.23508221335680432
sba(ineural_net
Weight
p1080
(dp1081
g127
F-0.2815523884509489
sbag1051
ag986
asg156
(lp1082
sg158
Nsbag112
ag119
ag159
ag195
ag231
ag267
ag303
ag339
ag375
ag411
ag447
ag483
ag519
ag555
ag591
ag627
ag663
ag699
ag735
ag771
ag807
ag843
asg14
F-2.2035705887720898
sg879
F0.0014124849672399094
sg15
F0.09943030699398596
sg16
(lp1083
g881
ag920
asg123
(lp1084
g911
ag950
asg156
(lp1085
(ineural_net
Weight
p1086
(dp1087
g127
F-0.2607938608423498
sba(ineural_net
Weight
p1088
(dp1089
g127
F-0.1996411091391337
sba(ineural_net
Weight
p1090
(dp1091
g127
F-0.20497749571101112
sba(ineural_net
Weight
p1092
(dp1093
g127
F-0.2625499745909441
sba(ineural_net
Weight
p1094
(dp1095
g127
F0.3136139971912993
sba(ineural_net
Weight
p1096
(dp1097
g127
F0.23752821731909599
sba(ineural_net
Weight
p1098
(dp1099
g127
F-0.32737579182940757
sba(ineural_net
Weight
p1100
(dp1101
g127
F-0.2945062638938038
sba(ineural_net
Weight
p1102
(dp1103
g127
F-0.24373130852591982
sba(ineural_net
Weight
p1104
(dp1105
g127
F-0.033519146166640694
sba(ineural_net
Weight
p1106
(dp1107
g127
F-0.05881076607299898
sba(ineural_net
Weight
p1108
(dp1109
g127
F-0.09854445237864909
sba(ineural_net
Weight
p1110
(dp1111
g127
F-0.26420722296726734
sbag1080
ag1017
ag150
ag188
ag224
ag260
ag296
ag332
ag368
ag404
ag440
ag476
ag512
ag548
ag584
ag620
ag656
ag692
ag728
ag764
ag800
ag836
ag872
asg158
(ineural_net
Weight
p1112
(dp1113
g127
F0.007818601649653862
sbsg919
F0.008269833506344039
sbag109
ag116
asg123
(lp1114
(ineural_net
Weight
p1115
(dp1116
g127
F-0.3107052432802261
sba(ineural_net
Weight
p1117
(dp1118
g127
F0.34624985500078703
sba(ineural_net
Weight
p1119
(dp1120
g127
F-0.2155303097811696
sba(ineural_net
Weight
p1121
(dp1122
g127
F-0.42147855343443125
sba(ineural_net
Weight
p1123
(dp1124
g127
F-0.3781371804328592
sba(ineural_net
Weight
p1125
(dp1126
g127
F-0.47058720518117764
sba(ineural_net
Weight
p1127
(dp1128
g127
F-0.039313124475791834
sba(ineural_net
Weight
p1129
(dp1130
g127
F-0.22431820857091517
sba(ineural_net
Weight
p1131
(dp1132
g127
F-0.13934267993526214
sba(ineural_net
Weight
p1133
(dp1134
g127
F-0.44465003696465705
sba(ineural_net
Weight
p1135
(dp1136
g127
F-0.24425379522135413
sba(ineural_net
Weight
p1137
(dp1138
g127
F-0.17747455673570092
sbag1110
ag1049
ag984
asg156
(lp1139
sg158
Nsbag105
ag112
ag119
ag159
ag195
ag231
ag267
ag303
ag339
ag375
ag411
ag447
ag483
ag519
ag555
ag591
ag627
ag663
ag699
ag735
ag771
ag807
ag843
asg14
F-2.2002589952209437
sg879
F0.0009863545635322144
sg15
F0.09972723367447707
sg16
(lp1140
g881
ag920
asg123
(lp1141
g909
ag948
asg156
(lp1142
(ineural_net
Weight
p1143
(dp1144
g127
F-0.21181463227133104
sba(ineural_net
Weight
p1145
(dp1146
g127
F-0.12374452403336407
sba(ineural_net
Weight
p1147
(dp1148
g127
F-0.23456349539895108
sba(ineural_net
Weight
p1149
(dp1150
g127
F-0.21693359298169268
sba(ineural_net
Weight
p1151
(dp1152
g127
F0.1957599548334051
sba(ineural_net
Weight
p1153
(dp1154
g127
F0.13973989486860375
sba(ineural_net
Weight
p1155
(dp1156
g127
F-0.24330162176227163
sba(ineural_net
Weight
p1157
(dp1158
g127
F-0.2893855681148671
sba(ineural_net
Weight
p1159
(dp1160
g127
F-0.19919503636141364
sba(ineural_net
Weight
p1161
(dp1162
g127
F-0.08406529421140378
sba(ineural_net
Weight
p1163
(dp1164
g127
F-0.11631124635864133
sba(ineural_net
Weight
p1165
(dp1166
g127
F-0.10477772280605663
sbag1137
ag1078
ag1015
ag148
ag186
ag222
ag258
ag294
ag330
ag366
ag402
ag438
ag474
ag510
ag546
ag582
ag618
ag654
ag690
ag726
ag762
ag798
ag834
ag870
asg158
(ineural_net
Weight
p1167
(dp1168
g127
F0.008409393307003321
sbsg919
F0.0070971974387475595
sbag102
ag109
ag116
asg123
(lp1169
(ineural_net
Weight
p1170
(dp1171
g127
F-0.1006706189624612
sba(ineural_net
Weight
p1172
(dp1173
g127
F0.02530508715797908
sba(ineural_net
Weight
p1174
(dp1175
g127
F-0.09923721051118062
sba(ineural_net
Weight
p1176
(dp1177
g127
F-0.1077979757860719
sba(ineural_net
Weight
p1178
(dp1179
g127
F-0.1045341320350961
sba(ineural_net
Weight
p1180
(dp1181
g127
F-0.04904865896057621
sba(ineural_net
Weight
p1182
(dp1183
g127
F0.4055001312830248
sba(ineural_net
Weight
p1184
(dp1185
g127
F-0.0967888975098235
sba(ineural_net
Weight
p1186
(dp1187
g127
F-0.14825026344943001
sba(ineural_net
Weight
p1188
(dp1189
g127
F-0.09712209998612698
sba(ineural_net
Weight
p1190
(dp1191
g127
F-0.10834040687324945
sbag1165
ag1108
ag1047
ag982
asg156
(lp1192
sg158
Nsbag98
ag105
ag112
ag119
ag159
ag195
ag231
ag267
ag303
ag339
ag375
ag411
ag447
ag483
ag519
ag555
ag591
ag627
ag663
ag699
ag735
ag771
ag807
ag843
asg14
F-2.1599112163172483
sg879
F0.001285646966514431
sg15
F0.1034086827766003
sg16
(lp1193
g881
ag920
asg123
(lp1194
g907
ag946
asg156
(lp1195
(ineural_net
Weight
p1196
(dp1197
g127
F-0.2499632954350416
sba(ineural_net
Weight
p1198
(dp1199
g127
F-0.17573196811616337
sba(ineural_net
Weight
p1200
(dp1201
g127
F-0.22444210123562355
sba(ineural_net
Weight
p1202
(dp1203
g127
F-0.2541867857824892
sba(ineural_net
Weight
p1204
(dp1205
g127
F0.26331740132135517
sba(ineural_net
Weight
p1206
(dp1207
g127
F0.2020513045186184
sba(ineural_net
Weight
p1208
(dp1209
g127
F-0.27942444334522487
sba(ineural_net
Weight
p1210
(dp1211
g127
F-0.2790213147080386
sba(ineural_net
Weight
p1212
(dp1213
g127
F-0.2304360730231067
sba(ineural_net
Weight
p1214
(dp1215
g127
F-0.04007607284456743
sba(ineural_net
Weight
p1216
(dp1217
g127
F-0.08666458951917022
sbag1190
ag1135
ag1076
ag1013
ag146
ag184
ag220
ag256
ag292
ag328
ag364
ag400
ag436
ag472
ag508
ag544
ag580
ag616
ag652
ag688
ag724
ag760
ag796
ag832
ag868
asg158
(ineural_net
Weight
p1218
(dp1219
g127
F0.002682774594294734
sbsg919
F0.007928410015041338
sbag95
ag102
ag109
ag116
asg123
(lp1220
(ineural_net
Weight
p1221
(dp1222
g127
F-0.027513198539569274
sba(ineural_net
Weight
p1223
(dp1224
g127
F0.12782538091870765
sba(ineural_net
Weight
p1225
(dp1226
g127
F-0.08365360503531485
sba(ineural_net
Weight
p1227
(dp1228
g127
F0.026321306589666908
sba(ineural_net
Weight
p1229
(dp1230
g127
F-0.007405594067068455
sba(ineural_net
Weight
p1231
(dp1232
g127
F0.15353638637913364
sba(ineural_net
Weight
p1233
(dp1234
g127
F0.17748527577927886
sba(ineural_net
Weight
p1235
(dp1236
g127
F-0.08216376921482749
sba(ineural_net
Weight
p1237
(dp1238
g127
F-0.1280990484551047
sba(ineural_net
Weight
p1239
(dp1240
g127
F0.03563711381931651
sbag1216
ag1163
ag1106
ag1045
ag980
asg156
(lp1241
sg158
Nsbag91
ag98
ag105
ag112
ag119
ag159
ag195
ag231
ag267
ag303
ag339
ag375
ag411
ag447
ag483
ag519
ag555
ag591
ag627
ag663
ag699
ag735
ag771
ag807
ag843
asg14
F-1.8254494143846525
sg879
F0.002068169284226798
sg15
F0.1387812703570949
sg16
(lp1242
g881
ag920
asg123
(lp1243
g905
ag944
asg156
(lp1244
(ineural_net
Weight
p1245
(dp1246
g127
F-0.2573456508631058
sba(ineural_net
Weight
p1247
(dp1248
g127
F-0.24896834674558962
sba(ineural_net
Weight
p1249
(dp1250
g127
F-0.07446012099709902
sba(ineural_net
Weight
p1251
(dp1252
g127
F-0.29720070721895375
sba(ineural_net
Weight
p1253
(dp1254
g127
F0.637945649684487
sba(ineural_net
Weight
p1255
(dp1256
g127
F0.4564955679381845
sba(ineural_net
Weight
p1257
(dp1258
g127
F-0.3977713515090091
sba(ineural_net
Weight
p1259
(dp1260
g127
F-0.24265710818450006
sba(ineural_net
Weight
p1261
(dp1262
g127
F-0.2960025280723801
sba(ineural_net
Weight
p1263
(dp1264
g127
F0.037774301465512965
sbag1239
ag1188
ag1133
ag1074
ag1011
ag144
ag182
ag218
ag254
ag290
ag326
ag362
ag398
ag434
ag470
ag506
ag542
ag578
ag614
ag650
ag686
ag722
ag758
ag794
ag830
ag866
asg158
(ineural_net
Weight
p1265
(dp1266
g127
F0.007279611259820054
sbsg919
F0.008580323609033056
sbag88
ag95
ag102
ag109
ag116
asg123
(lp1267
(ineural_net
Weight
p1268
(dp1269
g127
F-0.012652393937614295
sba(ineural_net
Weight
p1270
(dp1271
g127
F0.041706715374875726
sba(ineural_net
Weight
p1272
(dp1273
g127
F-0.05371502363078152
sba(ineural_net
Weight
p1274
(dp1275
g127
F0.017203422713660585
sba(ineural_net
Weight
p1276
(dp1277
g127
F0.008217627255474699
sba(ineural_net
Weight
p1278
(dp1279
g127
F0.03992860287553625
sba(ineural_net
Weight
p1280
(dp1281
g127
F0.29108756204398456
sba(ineural_net
Weight
p1282
(dp1283
g127
F-0.053741334280640096
sba(ineural_net
Weight
p1284
(dp1285
g127
F-0.08276001121524783
sbag1263
ag1214
ag1161
ag1104
ag1043
ag978
asg156
(lp1286
sg158
Nsbag84
ag91
ag98
ag105
ag112
ag119
ag159
ag195
ag231
ag267
ag303
ag339
ag375
ag411
ag447
ag483
ag519
ag555
ag591
ag627
ag663
ag699
ag735
ag771
ag807
ag843
asg14
F-2.2232269859413356
sg879
F0.0005751379790120785
sg15
F0.09768400232327949
sg16
(lp1287
g881
ag920
asg123
(lp1288
g903
ag942
asg156
(lp1289
(ineural_net
Weight
p1290
(dp1291
g127
F-0.2072318532812478
sba(ineural_net
Weight
p1292
(dp1293
g127
F-0.1315973316038676
sba(ineural_net
Weight
p1294
(dp1295
g127
F-0.20620053480899372
sba(ineural_net
Weight
p1296
(dp1297
g127
F-0.13383517651989635
sba(ineural_net
Weight
p1298
(dp1299
g127
F0.046440614044384175
sba(ineural_net
Weight
p1300
(dp1301
g127
F0.051564968254758814
sba(ineural_net
Weight
p1302
(dp1303
g127
F-0.2055838623777742
sba(ineural_net
Weight
p1304
(dp1305
g127
F-0.25424732674764383
sba(ineural_net
Weight
p1306
(dp1307
g127
F-0.18131088094216577
sbag1284
ag1237
ag1186
ag1131
ag1072
ag1009
ag142
ag180
ag216
ag252
ag288
ag324
ag360
ag396
ag432
ag468
ag504
ag540
ag576
ag612
ag648
ag684
ag720
ag756
ag792
ag828
ag864
asg158
(ineural_net
Weight
p1308
(dp1309
g127
F-0.0044808096888796145
sbsg919
F0.005692984641081781
sbag81
ag88
ag95
ag102
ag109
ag116
asg123
(lp1310
(ineural_net
Weight
p1311
(dp1312
g127
F-0.2695255784797453
sba(ineural_net
Weight
p1313
(dp1314
g127
F0.2805977296154518
sba(ineural_net
Weight
p1315
(dp1316
g127
F-0.20859360612726877
sba(ineural_net
Weight
p1317
(dp1318
g127
F-0.2690827882039181
sba(ineural_net
Weight
p1319
(dp1320
g127
F-0.2663774573153991
sba(ineural_net
Weight
p1321
(dp1322
g127
F-0.22035717840528218
sba(ineural_net
Weight
p1323
(dp1324
g127
F-0.49655960801245064
sba(ineural_net
Weight
p1325
(dp1326
g127
F-0.20986495112540313
sbag1306
ag1261
ag1212
ag1159
ag1102
ag1041
ag976
asg156
(lp1327
sg158
Nsbag77
ag84
ag91
ag98
ag105
ag112
ag119
ag159
ag195
ag231
ag267
ag303
ag339
ag375
ag411
ag447
ag483
ag519
ag555
ag591
ag627
ag663
ag699
ag735
ag771
ag807
ag843
asg14
F-2.1851873119996537
sg879
F0.0012678361108333328
sg15
F0.10108858215698373
sg16
(lp1328
g881
ag920
asg123
(lp1329
g901
ag940
asg156
(lp1330
(ineural_net
Weight
p1331
(dp1332
g127
F-0.23317137244449526
sba(ineural_net
Weight
p1333
(dp1334
g127
F-0.15651005679462482
sba(ineural_net
Weight
p1335
(dp1336
g127
F-0.250821566641726
sba(ineural_net
Weight
p1337
(dp1338
g127
F-0.2573126800043882
sba(ineural_net
Weight
p1339
(dp1340
g127
F0.25698688041971895
sba(ineural_net
Weight
p1341
(dp1342
g127
F0.19056970904747594
sba(ineural_net
Weight
p1343
(dp1344
g127
F-0.28803789696431503
sba(ineural_net
Weight
p1345
(dp1346
g127
F-0.2989410845305194
sbag1325
ag1282
ag1235
ag1184
ag1129
ag1070
ag1007
ag140
ag178
ag214
ag250
ag286
ag322
ag358
ag394
ag430
ag466
ag502
ag538
ag574
ag610
ag646
ag682
ag718
ag754
ag790
ag826
ag862
asg158
(ineural_net
Weight
p1347
(dp1348
g127
F-0.00427735977927896
sbsg919
F0.007780461455008495
sbag74
ag81
ag88
ag95
ag102
ag109
ag116
asg123
(lp1349
(ineural_net
Weight
p1350
(dp1351
g127
F-0.2654952850688714
sba(ineural_net
Weight
p1352
(dp1353
g127
F0.2796111346573783
sba(ineural_net
Weight
p1354
(dp1355
g127
F-0.29166664758400357
sba(ineural_net
Weight
p1356
(dp1357
g127
F-0.24182745904689115
sba(ineural_net
Weight
p1358
(dp1359
g127
F-0.2554551506422661
sba(ineural_net
Weight
p1360
(dp1361
g127
F-0.19281055564152985
sba(ineural_net
Weight
p1362
(dp1363
g127
F-0.1395943989673911
sbag1345
ag1304
ag1259
ag1210
ag1157
ag1100
ag1039
ag974
asg156
(lp1364
sg158
Nsbag70
ag77
ag84
ag91
ag98
ag105
ag112
ag119
ag159
ag195
ag231
ag267
ag303
ag339
ag375
ag411
ag447
ag483
ag519
ag555
ag591
ag627
ag663
ag699
ag735
ag771
ag807
ag843
asg14
F0.09883111887133518
sg879
F1.4668850585174327e-05
sg15
F0.5246876880536936
sg16
(lp1365
g881
ag920
asg123
(lp1366
g899
ag938
asg156
(lp1367
(ineural_net
Weight
p1368
(dp1369
g127
F0.2999299108274248
sba(ineural_net
Weight
p1370
(dp1371
g127
F-0.20446787098986852
sba(ineural_net
Weight
p1372
(dp1373
g127
F-0.5982511135379383
sba(ineural_net
Weight
p1374
(dp1375
g127
F-0.6217782855796308
sba(ineural_net
Weight
p1376
(dp1377
g127
F1.5918976333599049
sba(ineural_net
Weight
p1378
(dp1379
g127
F0.90793220956103
sba(ineural_net
Weight
p1380
(dp1381
g127
F-0.24346878766379768
sbag1362
ag1323
ag1280
ag1233
ag1182
ag1127
ag1068
ag1005
ag138
ag176
ag212
ag248
ag284
ag320
ag356
ag392
ag428
ag464
ag500
ag536
ag572
ag608
ag644
ag680
ag716
ag752
ag788
ag824
ag860
asg158
(ineural_net
Weight
p1382
(dp1383
g127
F0.004122633129343259
sbsg919
F0.009294591506515622
sbag67
ag74
ag81
ag88
ag95
ag102
ag109
ag116
asg123
(lp1384
(ineural_net
Weight
p1385
(dp1386
g127
F-0.3551218433531857
sba(ineural_net
Weight
p1387
(dp1388
g127
F0.044420664096612834
sba(ineural_net
Weight
p1389
(dp1390
g127
F-0.26351196469674365
sba(ineural_net
Weight
p1391
(dp1392
g127
F-0.40355061559456845
sba(ineural_net
Weight
p1393
(dp1394
g127
F-0.3742374561041477
sba(ineural_net
Weight
p1395
(dp1396
g127
F-0.40100185112021075
sbag1380
ag1343
ag1302
ag1257
ag1208
ag1155
ag1098
ag1037
ag972
asg156
(lp1397
sg158
Nsbag63
ag70
ag77
ag84
ag91
ag98
ag105
ag112
ag119
ag159
ag195
ag231
ag267
ag303
ag339
ag375
ag411
ag447
ag483
ag519
ag555
ag591
ag627
ag663
ag699
ag735
ag771
ag807
ag843
asg14
F-1.4294361125160364
sg879
F0.0011999356471530315
sg15
F0.19318655963957437
sg16
(lp1398
g881
ag920
asg123
(lp1399
g897
ag936
asg156
(lp1400
(ineural_net
Weight
p1401
(dp1402
g127
F-0.21012785462896688
sba(ineural_net
Weight
p1403
(dp1404
g127
F-0.3576900751814021
sba(ineural_net
Weight
p1405
(dp1406
g127
F-0.052466018901537
sba(ineural_net
Weight
p1407
(dp1408
g127
F-0.36087213666203566
sba(ineural_net
Weight
p1409
(dp1410
g127
F1.0791328049175324
sba(ineural_net
Weight
p1411
(dp1412
g127
F0.7800450851108452
sbag1395
ag1360
ag1321
ag1278
ag1231
ag1180
ag1125
ag1066
ag1003
ag136
ag174
ag210
ag246
ag282
ag318
ag354
ag390
ag426
ag462
ag498
ag534
ag570
ag606
ag642
ag678
ag714
ag750
ag786
ag822
ag858
asg158
(ineural_net
Weight
p1413
(dp1414
g127
F-9.004217590971933e-05
sbsg919
F0.007149601567683636
sbag60
ag67
ag74
ag81
ag88
ag95
ag102
ag109
ag116
asg123
(lp1415
(ineural_net
Weight
p1416
(dp1417
g127
F0.2965377862332452
sba(ineural_net
Weight
p1418
(dp1419
g127
F0.04502254731128577
sba(ineural_net
Weight
p1420
(dp1421
g127
F0.18139284225786803
sba(ineural_net
Weight
p1422
(dp1423
g127
F0.43242542685053126
sba(ineural_net
Weight
p1424
(dp1425
g127
F0.37476718752635996
sbag1411
ag1378
ag1341
ag1300
ag1255
ag1206
ag1153
ag1096
ag1035
ag970
asg156
(lp1426
sg158
Nsbag56
ag63
ag70
ag77
ag84
ag91
ag98
ag105
ag112
ag119
ag159
ag195
ag231
ag267
ag303
ag339
ag375
ag411
ag447
ag483
ag519
ag555
ag591
ag627
ag663
ag699
ag735
ag771
ag807
ag843
asg14
F-2.016450643180366
sg879
F0.0019202575678847165
sg15
F0.11748650099474817
sg16
(lp1427
g881
ag920
asg123
(lp1428
g895
ag934
asg156
(lp1429
(ineural_net
Weight
p1430
(dp1431
g127
F-0.2565932180476004
sba(ineural_net
Weight
p1432
(dp1433
g127
F-0.23282784420510091
sba(ineural_net
Weight
p1434
(dp1435
g127
F-0.14265337322230529
sba(ineural_net
Weight
p1436
(dp1437
g127
F-0.2892765583673464
sba(ineural_net
Weight
p1438
(dp1439
g127
F0.5368510992633955
sbag1424
ag1393
ag1358
ag1319
ag1276
ag1229
ag1178
ag1123
ag1064
ag1001
ag134
ag172
ag208
ag244
ag280
ag316
ag352
ag388
ag424
ag460
ag496
ag532
ag568
ag604
ag640
ag676
ag712
ag748
ag784
ag820
ag856
asg158
(ineural_net
Weight
p1440
(dp1441
g127
F-0.004965052540091517
sbsg919
F0.008595151143041248
sbag53
ag60
ag67
ag74
ag81
ag88
ag95
ag102
ag109
ag116
asg123
(lp1442
(ineural_net
Weight
p1443
(dp1444
g127
F0.39982540980976444
sba(ineural_net
Weight
p1445
(dp1446
g127
F-0.11742745911325882
sba(ineural_net
Weight
p1447
(dp1448
g127
F0.25050149391070853
sba(ineural_net
Weight
p1449
(dp1450
g127
F0.6195394363575316
sbag1438
ag1409
ag1376
ag1339
ag1298
ag1253
ag1204
ag1151
ag1094
ag1033
ag968
asg156
(lp1451
sg158
Nsbag49
ag56
ag63
ag70
ag77
ag84
ag91
ag98
ag105
ag112
ag119
ag159
ag195
ag231
ag267
ag303
ag339
ag375
ag411
ag447
ag483
ag519
ag555
ag591
ag627
ag663
ag699
ag735
ag771
ag807
ag843
asg14
F-1.8711295246180386
sg879
F0.0020560619778869425
sg15
F0.1334110812143964
sg16
(lp1452
g881
ag920
asg123
(lp1453
g893
ag932
asg156
(lp1454
(ineural_net
Weight
p1455
(dp1456
g127
F-0.2681090109435579
sba(ineural_net
Weight
p1457
(dp1458
g127
F-0.23526853093351946
sba(ineural_net
Weight
p1459
(dp1460
g127
F-0.10514456747201839
sba(ineural_net
Weight
p1461
(dp1462
g127
F-0.2976262140823208
sbag1449
ag1422
ag1391
ag1356
ag1317
ag1274
ag1227
ag1176
ag1121
ag1062
ag999
ag132
ag170
ag206
ag242
ag278
ag314
ag350
ag386
ag422
ag458
ag494
ag530
ag566
ag602
ag638
ag674
ag710
ag746
ag782
ag818
ag854
asg158
(ineural_net
Weight
p1463
(dp1464
g127
F-0.000916101113728203
sbsg919
F0.008589424496189442
sbag46
ag53
ag60
ag67
ag74
ag81
ag88
ag95
ag102
ag109
ag116
asg123
(lp1465
(ineural_net
Weight
p1466
(dp1467
g127
F-0.2974113178421252
sba(ineural_net
Weight
p1468
(dp1469
g127
F0.6646032064722263
sba(ineural_net
Weight
p1470
(dp1471
g127
F-0.23723942640956408
sbag1461
ag1436
ag1407
ag1374
ag1337
ag1296
ag1251
ag1202
ag1149
ag1092
ag1031
ag966
asg156
(lp1472
sg158
Nsbag42
ag49
ag56
ag63
ag70
ag77
ag84
ag91
ag98
ag105
ag112
ag119
ag159
ag195
ag231
ag267
ag303
ag339
ag375
ag411
ag447
ag483
ag519
ag555
ag591
ag627
ag663
ag699
ag735
ag771
ag807
ag843
asg14
F-2.202428172898157
sg879
F0.0012103575102084489
sg15
F0.0995326502136864
sg16
(lp1473
g881
ag920
asg123
(lp1474
g891
ag930
asg156
(lp1475
(ineural_net
Weight
p1476
(dp1477
g127
F-0.23031548231001003
sba(ineural_net
Weight
p1478
(dp1479
g127
F-0.15522785957770938
sba(ineural_net
Weight
p1480
(dp1481
g127
F-0.23951497603941554
sbag1470
ag1447
ag1420
ag1389
ag1354
ag1315
ag1272
ag1225
ag1174
ag1119
ag1060
ag997
ag130
ag168
ag204
ag240
ag276
ag312
ag348
ag384
ag420
ag456
ag492
ag528
ag564
ag600
ag636
ag672
ag708
ag744
ag780
ag816
ag852
asg158
(ineural_net
Weight
p1482
(dp1483
g127
F-0.0023387899684988956
sbsg919
F0.007629604990951854
sbag39
ag46
ag53
ag60
ag67
ag74
ag81
ag88
ag95
ag102
ag109
ag116
asg123
(lp1484
(ineural_net
Weight
p1485
(dp1486
g127
F-0.16613970422126983
sba(ineural_net
Weight
p1487
(dp1488
g127
F0.3069164418257719
sbag1480
ag1459
ag1434
ag1405
ag1372
ag1335
ag1294
ag1249
ag1200
ag1147
ag1090
ag1029
ag964
asg156
(lp1489
sg158
Nsbag35
ag42
ag49
ag56
ag63
ag70
ag77
ag84
ag91
ag98
ag105
ag112
ag119
ag159
ag195
ag231
ag267
ag303
ag339
ag375
ag411
ag447
ag483
ag519
ag555
ag591
ag627
ag663
ag699
ag735
ag771
ag807
ag843
asg14
F1.912725019407967
sg879
F-0.0012707971701422672
sg15
F0.871324980195882
sg16
(lp1490
g881
ag920
asg123
(lp1491
g889
ag928
asg156
(lp1492
(ineural_net
Weight
p1493
(dp1494
g127
F-0.011528538059253883
sba(ineural_net
Weight
p1495
(dp1496
g127
F0.07549805233562135
sbag1487
ag1468
ag1445
ag1418
ag1387
ag1352
ag1313
ag1270
ag1223
ag1172
ag1117
ag1058
ag995
ag128
ag166
ag202
ag238
ag274
ag310
ag346
ag382
ag418
ag454
ag490
ag526
ag562
ag598
ag634
ag670
ag706
ag742
ag778
ag814
ag850
asg158
(ineural_net
Weight
p1497
(dp1498
g127
F-0.002615592796684328
sbsg919
F-0.013227232883373071
sbag32
ag39
ag46
ag53
ag60
ag67
ag74
ag81
ag88
ag95
ag102
ag109
ag116
asg123
(lp1499
(ineural_net
Weight
p1500
(dp1501
g127
F-0.22071832011728476
sbag1495
ag1478
ag1457
ag1432
ag1403
ag1370
ag1333
ag1292
ag1247
ag1198
ag1145
ag1088
ag1027
ag962
asg156
(lp1502
sg158
Nsbag28
ag35
ag42
ag49
ag56
ag63
ag70
ag77
ag84
ag91
ag98
ag105
ag112
ag119
ag159
ag195
ag231
ag267
ag303
ag339
ag375
ag411
ag447
ag483
ag519
ag555
ag591
ag627
ag663
ag699
ag735
ag771
ag807
ag843
asg14
F-2.10689541239496
sg879
F0.001623978174674856
sg15
F0.1084284278848755
sg16
(lp1503
g881
ag920
asg123
(lp1504
g887
ag926
asg156
(lp1505
(ineural_net
Weight
p1506
(dp1507
g127
F-0.28448022604932
sbag1500
ag1485
ag1466
ag1443
ag1416
ag1385
ag1350
ag1311
ag1268
ag1221
ag1170
ag1115
ag1056
ag993
ag125
ag164
ag200
ag236
ag272
ag308
ag344
ag380
ag416
ag452
ag488
ag524
ag560
ag596
ag632
ag668
ag704
ag740
ag776
ag812
ag848
asg158
(ineural_net
Weight
p1508
(dp1509
g127
F0.003602509152535254
sbsg919
F0.008510290857063754
sbag25
ag32
ag39
ag46
ag53
ag60
ag67
ag74
ag81
ag88
ag95
ag102
ag109
ag116
asg123
(lp1510
g1506
ag1493
ag1476
ag1455
ag1430
ag1401
ag1368
ag1331
ag1290
ag1245
ag1196
ag1143
ag1086
ag1025
ag960
asg156
(lp1511
sg158
Nsbag21
ag28
ag35
ag42
ag49
ag56
ag63
ag70
ag77
ag84
ag91
ag98
ag105
ag112
ag119
ag159
ag195
ag231
ag267
ag303
ag339
ag375
ag411
ag447
ag483
ag519
ag555
ag591
ag627
ag663
ag699
ag735
ag771
ag807
ag843
asS'complete'
p1512
I01
sS'outputs'
p1513
(lp1514
g881
ag920
asS'node_set'
p1515
(dp1516
g67
I01
sg267
I01
sg627
I01
sg77
I01
sg807
I01
sg116
I01
sg88
I01
sg303
I01
sg11
I01
sg84
I01
sg25
I01
sg881
I01
sg81
I01
sg39
I01
sg339
I01
sg699
I01
sg18
I01
sg91
I01
sg46
I01
sg375
I01
sg28
I01
sg98
I01
sg74
I01
sg32
I01
sg411
I01
sg21
I01
sg105
I01
sg920
I01
sg771
I01
sg447
I01
sg42
I01
sg112
I01
sg35
I01
sg483
I01
sg843
I01
sg119
I01
sg60
I01
sg102
I01
sg519
I01
sg663
I01
sg56
I01
sg159
I01
sg49
I01
sg555
I01
sg195
I01
sg95
I01
sg53
I01
sg735
I01
sg109
I01
sg591
I01
sg70
I01
sg231
I01
sg63
I01
ssg156
(lp1517
g1506
ag1508
ag1500
ag1485
ag1466
ag1443
ag1416
ag1385
ag1350
ag1311
ag1268
ag1221
ag1170
ag1115
ag1056
ag993
ag125
ag164
ag200
ag236
ag272
ag308
ag344
ag380
ag416
ag452
ag488
ag524
ag560
ag596
ag632
ag668
ag704
ag740
ag776
ag812
ag848
ag1493
ag1497
ag1495
ag1487
ag1468
ag1445
ag1418
ag1387
ag1352
ag1313
ag1270
ag1223
ag1172
ag1117
ag1058
ag995
ag128
ag166
ag202
ag238
ag274
ag310
ag346
ag382
ag418
ag454
ag490
ag526
ag562
ag598
ag634
ag670
ag706
ag742
ag778
ag814
ag850
ag1476
ag1482
ag1478
ag1480
ag1470
ag1447
ag1420
ag1389
ag1354
ag1315
ag1272
ag1225
ag1174
ag1119
ag1060
ag997
ag130
ag168
ag204
ag240
ag276
ag312
ag348
ag384
ag420
ag456
ag492
ag528
ag564
ag600
ag636
ag672
ag708
ag744
ag780
ag816
ag852
ag1455
ag1463
ag1457
ag1459
ag1461
ag1449
ag1422
ag1391
ag1356
ag1317
ag1274
ag1227
ag1176
ag1121
ag1062
ag999
ag132
ag170
ag206
ag242
ag278
ag314
ag350
ag386
ag422
ag458
ag494
ag530
ag566
ag602
ag638
ag674
ag710
ag746
ag782
ag818
ag854
ag1430
ag1440
ag1432
ag1434
ag1436
ag1438
ag1424
ag1393
ag1358
ag1319
ag1276
ag1229
ag1178
ag1123
ag1064
ag1001
ag134
ag172
ag208
ag244
ag280
ag316
ag352
ag388
ag424
ag460
ag496
ag532
ag568
ag604
ag640
ag676
ag712
ag748
ag784
ag820
ag856
ag1401
ag1413
ag1403
ag1405
ag1407
ag1409
ag1411
ag1395
ag1360
ag1321
ag1278
ag1231
ag1180
ag1125
ag1066
ag1003
ag136
ag174
ag210
ag246
ag282
ag318
ag354
ag390
ag426
ag462
ag498
ag534
ag570
ag606
ag642
ag678
ag714
ag750
ag786
ag822
ag858
ag1368
ag1382
ag1370
ag1372
ag1374
ag1376
ag1378
ag1380
ag1362
ag1323
ag1280
ag1233
ag1182
ag1127
ag1068
ag1005
ag138
ag176
ag212
ag248
ag284
ag320
ag356
ag392
ag428
ag464
ag500
ag536
ag572
ag608
ag644
ag680
ag716
ag752
ag788
ag824
ag860
ag1331
ag1347
ag1333
ag1335
ag1337
ag1339
ag1341
ag1343
ag1345
ag1325
ag1282
ag1235
ag1184
ag1129
ag1070
ag1007
ag140
ag178
ag214
ag250
ag286
ag322
ag358
ag394
ag430
ag466
ag502
ag538
ag574
ag610
ag646
ag682
ag718
ag754
ag790
ag826
ag862
ag1290
ag1308
ag1292
ag1294
ag1296
ag1298
ag1300
ag1302
ag1304
ag1306
ag1284
ag1237
ag1186
ag1131
ag1072
ag1009
ag142
ag180
ag216
ag252
ag288
ag324
ag360
ag396
ag432
ag468
ag504
ag540
ag576
ag612
ag648
ag684
ag720
ag756
ag792
ag828
ag864
ag1245
ag1265
ag1247
ag1249
ag1251
ag1253
ag1255
ag1257
ag1259
ag1261
ag1263
ag1239
ag1188
ag1133
ag1074
ag1011
ag144
ag182
ag218
ag254
ag290
ag326
ag362
ag398
ag434
ag470
ag506
ag542
ag578
ag614
ag650
ag686
ag722
ag758
ag794
ag830
ag866
ag1196
ag1218
ag1198
ag1200
ag1202
ag1204
ag1206
ag1208
ag1210
ag1212
ag1214
ag1216
ag1190
ag1135
ag1076
ag1013
ag146
ag184
ag220
ag256
ag292
ag328
ag364
ag400
ag436
ag472
ag508
ag544
ag580
ag616
ag652
ag688
ag724
ag760
ag796
ag832
ag868
ag1143
ag1167
ag1145
ag1147
ag1149
ag1151
ag1153
ag1155
ag1157
ag1159
ag1161
ag1163
ag1165
ag1137
ag1078
ag1015
ag148
ag186
ag222
ag258
ag294
ag330
ag366
ag402
ag438
ag474
ag510
ag546
ag582
ag618
ag654
ag690
ag726
ag762
ag798
ag834
ag870
ag1086
ag1112
ag1088
ag1090
ag1092
ag1094
ag1096
ag1098
ag1100
ag1102
ag1104
ag1106
ag1108
ag1110
ag1080
ag1017
ag150
ag188
ag224
ag260
ag296
ag332
ag368
ag404
ag440
ag476
ag512
ag548
ag584
ag620
ag656
ag692
ag728
ag764
ag800
ag836
ag872
ag1025
ag1053
ag1027
ag1029
ag1031
ag1033
ag1035
ag1037
ag1039
ag1041
ag1043
ag1045
ag1047
ag1049
ag1051
ag1019
ag152
ag190
ag226
ag262
ag298
ag334
ag370
ag406
ag442
ag478
ag514
ag550
ag586
ag622
ag658
ag694
ag730
ag766
ag802
ag838
ag874
ag960
ag990
ag962
ag964
ag966
ag968
ag970
ag972
ag974
ag976
ag978
ag980
ag982
ag984
ag986
ag988
ag154
ag192
ag228
ag264
ag300
ag336
ag372
ag408
ag444
ag480
ag516
ag552
ag588
ag624
ag660
ag696
ag732
ag768
ag804
ag840
ag876
ag887
ag917
ag889
ag891
ag893
ag895
ag897
ag899
ag901
ag903
ag905
ag907
ag909
ag911
ag913
ag915
ag926
ag956
ag928
ag930
ag932
ag934
ag936
ag938
ag940
ag942
ag944
ag946
ag948
ag950
ag952
ag954
asS'hidden_nodes'
p1518
(lp1519
g18
ag25
ag32
ag39
ag46
ag53
ag60
ag67
ag74
ag81
ag88
ag95
ag102
ag109
ag116
asbsS'FeedForwardFn'
p1520
cneural_net_impl
FeedForward
p1521
sS'TrainFn'
p1522
cneural_net_impl
Train
p1523
sb.