(dp0
((I0
I0
I0
I4
I4
I4
I1
I4
I4
I-2
I-1
tp1
I2
tp2
F-1.0
s((I0
I1
I4
I4
I4
I1
I4
I4
I4
I2
I-1
tp3
I1
tp4
F19.0
s((I1
I0
I4
I4
I4
I4
I0
I4
I4
I-1
I-6
tp5
I1
tp6
F-1.0
s((I0
I1
I1
I4
I1
I1
I1
I4
I4
I-6
I-3
tp7
I1
tp8
F-2.3125
s((I1
I4
I1
I0
I4
I4
I4
I4
I1
I-1
I4
tp9
I1
tp10
F-1.0
s((I1
I4
I4
I4
I1
I4
I1
I4
I4
I-8
I-4
tp11
I0
tp12
F-1.0
s((I1
I0
I4
I4
I4
I4
I1
I4
I4
I1
I-5
tp13
I3
tp14
F-1.0
s((I3
I1
I1
I4
I1
I4
I0
I4
I4
I1
I0
tp15
I2
tp16
F-1.0
s((I3
I1
I4
I4
I3
I1
I4
I1
I4
I-1
I4
tp17
I1
tp18
F-1.75
s((I1
I4
I4
I1
I4
I4
I4
I4
I4
I-3
I2
tp19
I0
tp20
F-1.0
s((I1
I4
I4
I4
I0
I4
I4
I1
I4
I4
I3
tp21
I1
tp22
F-2.3125
s((I1
I4
I4
I1
I4
I4
I4
I4
I4
I5
I6
tp23
I0
tp24
F-1.0
s((I1
I4
I4
I1
I1
I1
I4
I1
I4
I-6
I1
tp25
I0
tp26
F-1.0
s((I1
I3
I4
I1
I1
I1
I4
I1
I4
I-2
I-2
tp27
I1
tp28
F-1.75
s((I0
I4
I4
I4
I1
I2
I4
I1
I4
I5
I1
tp29
I0
tp30
F-1.0
s((I2
I4
I4
I0
I1
I4
I4
I0
I4
I2
I2
tp31
I2
tp32
F-1.0
s((I1
I4
I4
I1
I4
I4
I4
I4
I4
I4
I-1
tp33
I2
tp34
F-2.3125
s((I1
I4
I4
I1
I4
I4
I4
I1
I1
I3
I-1
tp35
I3
tp36
F-2.734375
s((I1
I4
I1
I4
I0
I4
I0
I4
I4
I0
I-2
tp37
I2
tp38
F-1.0
s((I1
I1
I4
I4
I1
I1
I4
I4
I4
I3
I-5
tp39
I2
tp40
F-1.75
s((I1
I4
I1
I1
I4
I4
I0
I4
I1
I-2
I2
tp41
I3
tp42
F-2.734375
s((I1
I1
I4
I4
I4
I4
I4
I4
I4
I0
I-1
tp43
I3
tp44
F-1.75
s((I1
I0
I4
I0
I1
I4
I4
I4
I4
I2
I7
tp45
I2
tp46
F-1.0
s((I1
I4
I4
I1
I4
I4
I4
I0
I4
I-3
I1
tp47
I0
tp48
F-1.0
s((I0
I1
I4
I4
I1
I1
I4
I4
I4
I-8
I-4
tp49
I2
tp50
F-1.0
s((I0
I1
I2
I1
I4
I4
I1
I0
I4
I-1
I-5
tp51
I0
tp52
F-1.0
s((I0
I4
I1
I4
I4
I4
I4
I4
I1
I-1
I3
tp53
I2
tp54
F-1.0
s((I0
I1
I0
I1
I0
I1
I1
I1
I4
I1
I-1
tp55
I1
tp56
F-2.734375
s((I0
I4
I0
I4
I4
I4
I2
I4
I4
I-10
I-6
tp57
I2
tp58
F-1.0
s((I1
I4
I1
I1
I4
I4
I4
I4
I1
I3
I-1
tp59
I2
tp60
F-2.734375
s((I0
I4
I1
I4
I4
I4
I1
I4
I4
I-5
I-2
tp61
I0
tp62
F-1.0
s((I1
I4
I4
I4
I1
I4
I4
I1
I4
I3
I5
tp63
I2
tp64
F-1.0
s((I1
I1
I1
I1
I1
I1
I0
I1
I4
I2
I2
tp65
I1
tp66
F-1.75
s((I0
I1
I4
I4
I1
I1
I0
I1
I0
I2
I1
tp67
I3
tp68
F-1.0
s((I1
I1
I0
I1
I4
I4
I4
I4
I1
I-7
I1
tp69
I1
tp70
F-1.0
s((I0
I4
I1
I1
I4
I4
I4
I1
I4
I-4
I5
tp71
I0
tp72
F-1.0
s((I1
I4
I0
I4
I4
I4
I4
I4
I4
I-2
I-2
tp73
I3
tp74
F-1.0
s((I1
I4
I0
I0
I4
I4
I4
I4
I0
I-1
I3
tp75
I3
tp76
F-1.0
s((I1
I4
I2
I0
I0
I4
I4
I0
I0
I-1
I0
tp77
I1
tp78
F-1.0
s((I1
I4
I1
I1
I1
I4
I4
I1
I3
I-1
I0
tp79
I3
tp80
F-1.0
s((I1
I4
I4
I0
I1
I4
I4
I1
I4
I0
I4
tp81
I3
tp82
F-1.0
s((I1
I4
I4
I1
I1
I4
I4
I1
I1
I0
I0
tp83
I1
tp84
F-1.75
s((I1
I1
I4
I1
I1
I4
I1
I1
I1
I0
I-3
tp85
I0
tp86
F-1.0
s((I1
I4
I2
I0
I4
I4
I1
I4
I4
I-2
I2
tp87
I2
tp88
F-1.75
s((I1
I1
I1
I1
I1
I4
I1
I1
I1
I3
I-2
tp89
I0
tp90
F-1.0
s((I1
I4
I4
I1
I1
I1
I4
I1
I4
I6
I-10
tp91
I3
tp92
F-1.0
s((I1
I4
I0
I1
I1
I1
I4
I1
I1
I2
I3
tp93
I1
tp94
F-2.734375
s((I1
I1
I1
I4
I1
I1
I1
I1
I0
I-2
I1
tp95
I0
tp96
F-1.0
s((I1
I1
I1
I4
I4
I4
I2
I4
I4
I0
I-1
tp97
I2
tp98
F-1.0
s((I1
I3
I4
I4
I4
I4
I1
I4
I4
I-2
I-2
tp99
I1
tp100
F-1.0
s((I1
I4
I4
I3
I4
I4
I4
I1
I4
I1
I1
tp101
I0
tp102
F-1.75
s((I1
I4
I4
I4
I1
I4
I4
I1
I4
I6
I7
tp103
I2
tp104
F-1.0
s((I1
I4
I1
I4
I4
I4
I1
I4
I1
I-1
I1
tp105
I3
tp106
F-1.0
s((I1
I0
I4
I4
I4
I1
I4
I4
I4
I0
I-4
tp107
I0
tp108
F-1.0
s((I1
I4
I1
I1
I4
I4
I4
I1
I4
I3
I0
tp109
I1
tp110
F-1.0
s((I1
I4
I1
I4
I4
I4
I4
I4
I4
I-6
I-3
tp111
I0
tp112
F-1.0
s((I1
I4
I4
I4
I1
I4
I4
I1
I4
I1
I2
tp113
I1
tp114
F-1.0
s((I1
I4
I1
I4
I4
I4
I0
I4
I4
I-2
I5
tp115
I3
tp116
F-1.0
s((I1
I4
I1
I4
I4
I4
I4
I4
I1
I-5
I6
tp117
I1
tp118
F-1.0
s((I1
I4
I1
I1
I4
I4
I4
I4
I1
I5
I7
tp119
I2
tp120
F-1.0
s((I1
I1
I1
I1
I4
I4
I1
I4
I4
I5
I6
tp121
I3
tp122
F-2.3125
s((I0
I4
I4
I1
I4
I4
I4
I4
I1
I-6
I1
tp123
I1
tp124
F-1.0
s((I0
I4
I4
I1
I4
I4
I4
I1
I1
I3
I0
tp125
I2
tp126
F-1.0
s((I1
I4
I1
I1
I4
I4
I4
I0
I1
I-8
I2
tp127
I3
tp128
F-1.0
s((I1
I4
I1
I1
I1
I1
I4
I1
I3
I-3
I0
tp129
I1
tp130
F-2.734375
s((I1
I4
I1
I4
I1
I4
I4
I4
I1
I-13
I-6
tp131
I2
tp132
F-1.0
s((I2
I1
I1
I0
I4
I4
I0
I4
I4
I-9
I-5
tp133
I2
tp134
F-1.0
s((I1
I4
I4
I1
I1
I4
I4
I1
I4
I3
I-1
tp135
I0
tp136
F-1.0
s((I0
I1
I0
I4
I4
I4
I1
I4
I4
I-1
I-5
tp137
I2
tp138
F-1.0
s((I1
I4
I4
I1
I4
I4
I4
I4
I4
I-6
I-1
tp139
I0
tp140
F-1.0
s((I1
I1
I0
I4
I1
I0
I1
I4
I1
I-1
I-3
tp141
I3
tp142
F-3.2880859375
s((I1
I4
I4
I1
I1
I4
I4
I1
I1
I-5
I1
tp143
I0
tp144
F-1.0
s((I1
I4
I1
I1
I0
I4
I1
I1
I4
I2
I-4
tp145
I0
tp146
F-1.0
s((I0
I1
I4
I4
I4
I4
I1
I4
I4
I-2
I-1
tp147
I2
tp148
F-1.0
s((I1
I1
I4
I4
I4
I1
I4
I4
I4
I0
I-2
tp149
I1
tp150
F-1.0
s((I1
I1
I4
I1
I1
I0
I4
I4
I4
I-1
I2
tp151
I1
tp152
F-3.8732945919036865
s((I1
I4
I0
I4
I4
I4
I4
I4
I1
I-2
I0
tp153
I0
tp154
F-1.0
s((I0
I1
I0
I4
I4
I4
I4
I4
I4
I-5
I1
tp155
I1
tp156
F-1.0
s((I1
I4
I1
I1
I0
I4
I4
I1
I0
I3
I1
tp157
I0
tp158
F-1.0
s((I2
I1
I1
I1
I1
I4
I0
I1
I4
I-4
I5
tp159
I2
tp160
F-1.0
s((I3
I1
I1
I4
I1
I1
I4
I4
I4
I0
I-1
tp161
I2
tp162
F-1.0
s((I0
I4
I4
I1
I4
I4
I4
I4
I1
I-1
I3
tp163
I2
tp164
F-1.0
s((I1
I0
I1
I1
I4
I4
I0
I4
I1
I-2
I-3
tp165
I3
tp166
F-1.0
s((I0
I1
I0
I1
I1
I1
I4
I4
I4
I0
I-3
tp167
I1
tp168
F-2.3125
s((I1
I4
I4
I1
I4
I4
I4
I4
I3
I0
I2
tp169
I3
tp170
F-1.0
s((I1
I4
I0
I1
I4
I4
I4
I4
I1
I-1
I1
tp171
I3
tp172
F-1.0
s((I0
I4
I4
I1
I1
I1
I4
I0
I4
I-3
I6
tp173
I2
tp174
F-1.0
s((I1
I1
I4
I4
I1
I1
I4
I4
I4
I4
I3
tp175
I1
tp176
F-2.734375
s((I1
I0
I1
I1
I4
I4
I1
I4
I1
I-1
I2
tp177
I1
tp178
F-1.75
s((I0
I4
I1
I0
I4
I4
I4
I4
I1
I-2
I6
tp179
I2
tp180
F-1.0
s((I1
I1
I1
I4
I1
I1
I1
I4
I2
I-2
I-1
tp181
I1
tp182
F-1.0
s((I1
I1
I4
I1
I4
I1
I1
I4
I4
I-2
I2
tp183
I2
tp184
F-3.2880859375
s((I1
I1
I1
I0
I4
I4
I1
I4
I0
I-1
I-4
tp185
I2
tp186
F-3.05078125
s((I2
I1
I1
I4
I1
I4
I4
I4
I0
I-1
I2
tp187
I0
tp188
F-2.3125
s((I1
I4
I4
I1
I1
I4
I4
I1
I4
I3
I-4
tp189
I1
tp190
F-1.0
s((I1
I4
I1
I1
I4
I4
I4
I0
I1
I-3
I2
tp191
I3
tp192
F-1.0
s((I1
I4
I4
I0
I4
I4
I4
I4
I4
I0
I0
tp193
I3
tp194
F-1.0
s((I0
I0
I4
I4
I0
I1
I4
I1
I4
I2
I1
tp195
I0
tp196
F-1.0
s((I1
I4
I4
I1
I4
I4
I4
I0
I4
I1
I2
tp197
I1
tp198
F-1.0
s((I1
I1
I0
I2
I4
I4
I0
I3
I0
I4
I3
tp199
I3
tp200
F-1.0
s((I1
I4
I4
I1
I4
I4
I4
I3
I0
I-1
I2
tp201
I1
tp202
F-1.0
s((I1
I0
I4
I4
I1
I1
I4
I1
I4
I7
I-11
tp203
I3
tp204
F-1.0
s((I2
I1
I1
I4
I1
I4
I4
I4
I0
I-1
I2
tp205
I1
tp206
F-2.3125
s((I1
I1
I1
I0
I4
I4
I1
I4
I1
I-7
I0
tp207
I3
tp208
F-1.0
s((I1
I4
I1
I4
I4
I4
I1
I4
I4
I-3
I0
tp209
I0
tp210
F-1.0
s((I1
I4
I4
I1
I1
I1
I4
I1
I4
I6
I-11
tp211
I0
tp212
F-1.0
s((I2
I1
I1
I1
I1
I1
I1
I4
I0
I3
I-3
tp213
I1
tp214
F-1.0
s((I1
I4
I1
I1
I4
I4
I4
I4
I1
I-4
I0
tp215
I3
tp216
F-1.0
s((I1
I0
I4
I0
I2
I1
I4
I1
I4
I-3
I5
tp217
I2
tp218
F-1.75
s((I0
I4
I4
I1
I4
I4
I4
I4
I1
I-2
I5
tp219
I3
tp220
F-1.0
s((I1
I4
I4
I1
I4
I4
I4
I1
I4
I1
I1
tp221
I0
tp222
F-1.75
s((I1
I4
I4
I4
I1
I1
I4
I1
I4
I4
I-4
tp223
I0
tp224
F-1.0
s((I1
I4
I4
I3
I4
I4
I4
I4
I1
I0
I3
tp225
I1
tp226
F-1.0
s((I1
I1
I1
I1
I1
I1
I0
I1
I4
I2
I2
tp227
I0
tp228
F-3.05078125
s((I0
I1
I0
I4
I1
I1
I0
I1
I0
I2
I1
tp229
I0
tp230
F-1.0
s((I1
I4
I0
I0
I4
I4
I4
I4
I0
I-1
I3
tp231
I0
tp232
F-1.0
s((I1
I4
I1
I1
I0
I4
I1
I4
I1
I-4
I-1
tp233
I0
tp234
F-1.0
s((I1
I0
I4
I4
I1
I4
I4
I0
I4
I10
I-8
tp235
I3
tp236
F-1.0
s((I1
I4
I1
I1
I4
I4
I1
I0
I1
I0
I1
tp237
I0
tp238
F-1.0
s((I3
I4
I4
I0
I4
I4
I4
I4
I1
I2
I1
tp239
I3
tp240
F-1.0
s((I0
I1
I4
I1
I1
I1
I4
I2
I4
I-3
I6
tp241
I2
tp242
F-1.75
s((I3
I1
I4
I4
I1
I1
I4
I4
I4
I0
I-1
tp243
I3
tp244
F-1.0
s((I0
I4
I4
I4
I1
I1
I4
I4
I4
I1
I-1
tp245
I2
tp246
F-1.75
s((I1
I4
I4
I1
I2
I1
I4
I1
I1
I3
I-1
tp247
I2
tp248
F-1.0
s((I1
I4
I2
I1
I4
I4
I4
I4
I1
I0
I0
tp249
I0
tp250
F-1.0
s((I1
I4
I1
I4
I4
I4
I1
I4
I1
I-8
I1
tp251
I1
tp252
F-1.0
s((I1
I1
I0
I1
I1
I4
I4
I1
I1
I-7
I1
tp253
I1
tp254
F-1.0
s((I1
I1
I1
I4
I1
I1
I4
I1
I4
I4
I-3
tp255
I1
tp256
F-1.75
s((I1
I1
I0
I4
I4
I4
I1
I4
I4
I-6
I-1
tp257
I1
tp258
F-1.0
s((I1
I4
I2
I4
I4
I4
I1
I4
I4
I-2
I2
tp259
I3
tp260
F-1.75
s((I1
I2
I4
I4
I1
I1
I4
I4
I4
I1
I-1
tp261
I0
tp262
F-1.75
s((I0
I0
I1
I4
I1
I0
I1
I4
I4
I1
I-4
tp263
I1
tp264
F-3.466064453125
s((I2
I4
I4
I0
I1
I4
I4
I0
I4
I0
I0
tp265
I1
tp266
F-1.0
s((I1
I4
I1
I0
I4
I4
I1
I4
I1
I-1
I-3
tp267
I3
tp268
F-3.2880859375
s((I1
I1
I1
I0
I1
I0
I4
I4
I1
I11
I-8
tp269
I2
tp270
F-1.0
s((I1
I4
I4
I0
I4
I4
I4
I1
I4
I0
I2
tp271
I1
tp272
F-1.0
s((I0
I1
I0
I0
I4
I4
I0
I4
I0
I-1
I2
tp273
I0
tp274
F18.25
s((I1
I1
I4
I4
I1
I1
I1
I4
I4
I0
I-1
tp275
I2
tp276
F-1.0
s((I1
I4
I1
I0
I1
I0
I4
I1
I1
I3
I-2
tp277
I1
tp278
F-1.75
s((I1
I4
I4
I1
I1
I4
I4
I1
I0
I-5
I1
tp279
I1
tp280
F-1.0
s((I1
I4
I1
I1
I4
I4
I4
I4
I1
I-5
I0
tp281
I1
tp282
F-1.0
s((I1
I4
I1
I4
I4
I4
I4
I4
I3
I-3
I0
tp283
I2
tp284
F-1.0
s((I0
I0
I4
I1
I0
I4
I4
I1
I4
I0
I1
tp285
I0
tp286
F-1.75
s((I1
I3
I4
I4
I0
I4
I1
I4
I4
I-2
I-2
tp287
I2
tp288
F-1.0
s((I1
I4
I1
I1
I1
I1
I4
I4
I1
I2
I-4
tp289
I2
tp290
F-1.0
s((I1
I4
I4
I1
I4
I4
I4
I4
I1
I-6
I-2
tp291
I0
tp292
F-1.0
s((I3
I1
I4
I4
I4
I4
I1
I4
I4
I-4
I-2
tp293
I3
tp294
F-1.0
s((I0
I1
I4
I4
I4
I4
I1
I4
I4
I-10
I-3
tp295
I2
tp296
F-1.0
s((I1
I1
I4
I1
I4
I4
I1
I4
I4
I0
I1
tp297
I1
tp298
F-1.0
s((I1
I1
I1
I1
I4
I1
I1
I4
I1
I2
I-5
tp299
I1
tp300
F-1.0
s((I1
I4
I0
I1
I4
I4
I4
I4
I1
I-7
I1
tp301
I0
tp302
F-1.0
s((I1
I1
I4
I4
I1
I1
I4
I0
I4
I3
I5
tp303
I2
tp304
F-1.0
s((I1
I1
I1
I3
I4
I1
I1
I4
I1
I-4
I-1
tp305
I0
tp306
F-1.0
s((I1
I4
I4
I4
I1
I4
I4
I1
I4
I2
I3
tp307
I0
tp308
F-1.0
s((I0
I4
I1
I4
I4
I4
I0
I4
I4
I-2
I-6
tp309
I3
tp310
F-1.0
s((I1
I4
I4
I1
I4
I4
I4
I0
I4
I-5
I8
tp311
I0
tp312
F-1.0
s((I1
I4
I1
I4
I0
I1
I4
I4
I0
I-3
I-2
tp313
I2
tp314
F-1.0
s((I1
I4
I1
I0
I1
I4
I4
I1
I1
I-4
I1
tp315
I1
tp316
F-2.3125
s((I1
I1
I1
I4
I4
I4
I3
I4
I4
I-3
I-2
tp317
I1
tp318
F-1.0
s((I1
I4
I4
I1
I4
I4
I4
I4
I4
I-4
I-2
tp319
I0
tp320
F-1.0
s((I1
I4
I4
I1
I1
I4
I4
I1
I1
I-4
I4
tp321
I0
tp322
F-1.0
s((I1
I1
I1
I1
I1
I4
I1
I1
I0
I-1
I-1
tp323
I0
tp324
F-3.05078125
s((I1
I4
I0
I0
I0
I4
I4
I0
I0
I-1
I0
tp325
I3
tp326
F-1.0
s((I1
I1
I1
I1
I1
I1
I4
I1
I3
I-3
I0
tp327
I2
tp328
F-3.2880859375
s((I1
I0
I4
I1
I4
I1
I1
I4
I4
I3
I-4
tp329
I3
tp330
F-1.0
s((I1
I4
I4
I2
I4
I4
I4
I1
I1
I-1
I3
tp331
I3
tp332
F-1.0
s((I1
I1
I4
I4
I4
I4
I3
I4
I4
I-3
I3
tp333
I3
tp334
F-1.0
s((I2
I1
I2
I1
I0
I1
I1
I1
I1
I1
I-1
tp335
I1
tp336
F-1.0
s((I1
I4
I1
I1
I4
I4
I4
I4
I0
I-1
I0
tp337
I2
tp338
F-1.0
s((I3
I1
I4
I1
I4
I4
I1
I4
I4
I-2
I-1
tp339
I0
tp340
F-1.0
s((I1
I1
I1
I0
I4
I1
I1
I4
I1
I3
I-5
tp341
I3
tp342
F-2.3125
s((I1
I2
I4
I1
I1
I1
I1
I1
I1
I-4
I4
tp343
I3
tp344
F-1.0
s((I1
I4
I0
I2
I4
I4
I4
I1
I1
I1
I3
tp345
I1
tp346
F-1.0
s((I1
I1
I1
I1
I1
I4
I1
I4
I1
I-8
I-2
tp347
I0
tp348
F-2.734375
s((I1
I4
I4
I1
I4
I4
I4
I4
I0
I-7
I5
tp349
I2
tp350
F-3.466064453125
s((I0
I4
I1
I1
I4
I4
I4
I4
I1
I2
I0
tp351
I0
tp352
F-1.0
s((I1
I1
I1
I4
I1
I4
I1
I1
I4
I2
I4
tp353
I2
tp354
F-1.0
s((I1
I4
I4
I1
I4
I4
I4
I4
I4
I0
I2
tp355
I3
tp356
F-1.0
s((I1
I4
I4
I4
I1
I1
I4
I0
I4
I1
I2
tp357
I1
tp358
F-1.0
s((I1
I1
I1
I1
I0
I1
I1
I0
I4
I1
I3
tp359
I0
tp360
F-2.3125
s((I1
I1
I0
I1
I1
I1
I1
I4
I1
I-1
I1
tp361
I1
tp362
F-3.2880859375
s((I1
I1
I1
I4
I0
I2
I1
I4
I4
I4
I-7
tp363
I3
tp364
F-3.466064453125
s((I1
I0
I1
I1
I1
I4
I4
I1
I0
I-1
I2
tp365
I0
tp366
F-1.0
s((I0
I1
I4
I1
I4
I1
I4
I4
I4
I2
I6
tp367
I1
tp368
F-1.0
s((I1
I1
I4
I4
I4
I1
I4
I4
I4
I-3
I-2
tp369
I1
tp370
F-1.0
s((I1
I4
I4
I4
I0
I1
I4
I4
I4
I1
I-1
tp371
I1
tp372
F-1.0
s((I1
I4
I4
I2
I2
I4
I4
I0
I4
I3
I2
tp373
I3
tp374
F-1.0
s((I0
I4
I4
I1
I4
I4
I4
I1
I4
I-4
I5
tp375
I3
tp376
F-1.0
s((I1
I1
I1
I0
I1
I2
I4
I1
I1
I3
I-2
tp377
I3
tp378
F-1.0
s((I1
I1
I0
I4
I4
I4
I4
I4
I4
I-7
I4
tp379
I0
tp380
F-3.2880859375
s((I1
I1
I1
I1
I1
I1
I4
I4
I1
I-5
I0
tp381
I0
tp382
F-1.75
s((I1
I4
I4
I4
I1
I4
I4
I1
I4
I1
I1
tp383
I0
tp384
F-1.0
s((I0
I1
I2
I1
I0
I1
I1
I1
I1
I1
I-1
tp385
I2
tp386
F18.25
s((I1
I4
I4
I4
I1
I4
I4
I0
I4
I3
I0
tp387
I1
tp388
F-1.0
s((I2
I4
I4
I1
I1
I4
I4
I1
I4
I1
I0
tp389
I3
tp390
F-1.0
s((I1
I1
I1
I4
I4
I4
I1
I4
I4
I-4
I-2
tp391
I1
tp392
F-1.0
s((I1
I4
I1
I4
I4
I4
I4
I4
I4
I-14
I-6
tp393
I3
tp394
F-1.0
s((I1
I4
I4
I2
I4
I4
I4
I4
I1
I-1
I3
tp395
I2
tp396
F-1.0
s((I1
I2
I4
I4
I1
I1
I4
I4
I4
I5
I-6
tp397
I2
tp398
F-1.0
s((I1
I4
I1
I4
I4
I4
I0
I4
I0
I-1
I0
tp399
I0
tp400
F-1.0
s((I1
I1
I1
I1
I1
I1
I4
I1
I1
I-4
I0
tp401
I3
tp402
F-3.05078125
s((I1
I4
I1
I1
I4
I4
I4
I1
I1
I2
I-1
tp403
I1
tp404
F-1.0
s((I1
I4
I4
I4
I0
I4
I4
I1
I4
I-3
I5
tp405
I1
tp406
F-1.0
s((I1
I4
I1
I1
I1
I4
I4
I1
I1
I1
I5
tp407
I3
tp408
F-2.3125
s((I1
I0
I4
I4
I4
I4
I4
I4
I4
I0
I0
tp409
I1
tp410
F-1.0
s((I0
I4
I4
I0
I1
I4
I4
I0
I4
I2
I2
tp411
I2
tp412
F16.7119140625
s((I0
I4
I0
I4
I4
I4
I0
I4
I4
I-1
I-1
tp413
I1
tp414
F-1.0
s((I1
I1
I4
I1
I1
I1
I1
I1
I4
I3
I-5
tp415
I0
tp416
F-2.3125
s((I1
I0
I1
I0
I1
I4
I4
I1
I4
I3
I-1
tp417
I2
tp418
F-1.0
s((I1
I1
I4
I4
I1
I1
I4
I4
I4
I1
I-3
tp419
I1
tp420
F-1.0
s((I1
I0
I4
I4
I4
I0
I4
I4
I4
I-1
I-3
tp421
I2
tp422
F-1.0
s((I3
I4
I1
I1
I4
I4
I4
I4
I1
I0
I2
tp423
I0
tp424
F-1.0
s((I1
I1
I4
I4
I1
I1
I4
I4
I4
I5
I-7
tp425
I1
tp426
F-3.2880859375
s((I1
I4
I2
I1
I4
I4
I4
I1
I1
I-4
I1
tp427
I3
tp428
F-3.2880859375
s((I1
I1
I1
I1
I1
I1
I0
I1
I4
I2
I2
tp429
I2
tp430
F-3.05078125
s((I0
I1
I4
I1
I1
I2
I4
I1
I2
I-3
I4
tp431
I1
tp432
F-2.3125
s((I1
I1
I4
I4
I4
I4
I4
I4
I4
I0
I-3
tp433
I1
tp434
F-1.0
s((I0
I4
I1
I1
I1
I4
I4
I1
I1
I7
I7
tp435
I1
tp436
F-11.0
s((I1
I4
I4
I0
I2
I4
I4
I0
I4
I3
I2
tp437
I2
tp438
F-1.0
s((I1
I4
I1
I1
I4
I4
I4
I4
I1
I-6
I1
tp439
I2
tp440
F-1.0
s((I1
I4
I4
I0
I4
I4
I4
I4
I0
I-5
I2
tp441
I2
tp442
F-1.0
s((I1
I1
I1
I4
I4
I4
I1
I4
I4
I2
I-6
tp443
I0
tp444
F-1.0
s((I1
I1
I4
I4
I4
I4
I4
I4
I4
I1
I-3
tp445
I1
tp446
F-1.0
s((I1
I1
I4
I4
I1
I1
I1
I1
I4
I0
I-2
tp447
I2
tp448
F-1.0
s((I1
I1
I4
I4
I0
I1
I1
I4
I4
I9
I-11
tp449
I1
tp450
F-1.75
s((I0
I4
I1
I4
I1
I4
I4
I4
I1
I-1
I-2
tp451
I3
tp452
F-1.75
s((I2
I1
I4
I4
I4
I4
I4
I4
I4
I-8
I-2
tp453
I2
tp454
F-1.0
s((I1
I0
I4
I4
I4
I1
I0
I4
I4
I1
I-2
tp455
I3
tp456
F-1.0
s((I0
I4
I1
I4
I4
I4
I4
I4
I4
I-1
I0
tp457
I0
tp458
F-1.0
s((I0
I4
I4
I0
I4
I4
I4
I1
I1
I5
I4
tp459
I1
tp460
F-1.0
s((I1
I4
I1
I1
I4
I4
I4
I4
I1
I-1
I4
tp461
I3
tp462
F-1.75
s((I1
I1
I1
I4
I4
I4
I0
I4
I4
I-7
I0
tp463
I0
tp464
F-1.0
s((I0
I4
I4
I4
I1
I1
I4
I1
I4
I3
I-3
tp465
I0
tp466
F-1.0
s((I1
I4
I4
I1
I4
I4
I4
I4
I1
I-6
I1
tp467
I3
tp468
F-1.0
s((I1
I1
I1
I0
I2
I1
I4
I4
I4
I0
I2
tp469
I0
tp470
F-1.0
s((I1
I1
I4
I1
I1
I1
I4
I1
I4
I5
I-2
tp471
I1
tp472
F-1.0
s((I1
I1
I4
I4
I1
I1
I4
I4
I4
I-2
I-3
tp473
I1
tp474
F-1.0
s((I1
I1
I1
I4
I1
I4
I2
I4
I4
I-4
I0
tp475
I1
tp476
F-2.3125
s((I1
I1
I4
I1
I4
I0
I4
I4
I4
I-1
I2
tp477
I1
tp478
F-1.0
s((I1
I3
I4
I4
I1
I3
I4
I4
I1
I-1
I3
tp479
I1
tp480
F-1.0
s((I0
I0
I4
I0
I0
I0
I4
I1
I4
I0
I-2
tp481
I3
tp482
F-1.0
s((I1
I1
I0
I4
I4
I4
I1
I4
I4
I-4
I-3
tp483
I3
tp484
F-1.0
s((I1
I0
I4
I4
I4
I4
I1
I4
I4
I-1
I-1
tp485
I0
tp486
F-2.3125
s((I0
I0
I1
I0
I1
I4
I4
I2
I4
I5
I3
tp487
I0
tp488
F-1.0
s((I0
I1
I4
I4
I4
I4
I4
I4
I4
I0
I-1
tp489
I1
tp490
F-1.75
s((I1
I4
I4
I1
I1
I4
I4
I0
I4
I1
I2
tp491
I2
tp492
F-2.3125
s((I1
I1
I1
I4
I4
I1
I1
I4
I4
I-5
I-3
tp493
I0
tp494
F-3.6996612548828125
s((I1
I1
I4
I4
I4
I4
I1
I4
I4
I-2
I-4
tp495
I2
tp496
F-1.0
s((I1
I4
I4
I4
I1
I4
I4
I4
I4
I3
I4
tp497
I3
tp498
F-1.75
s((I1
I1
I4
I4
I4
I4
I1
I4
I4
I-7
I-3
tp499
I3
tp500
F-1.0
s((I1
I0
I1
I1
I1
I1
I1
I1
I1
I-2
I2
tp501
I3
tp502
F-1.0
s((I0
I4
I1
I4
I4
I4
I4
I4
I4
I-9
I1
tp503
I2
tp504
F-1.0
s((I1
I1
I4
I4
I1
I1
I4
I4
I4
I3
I-2
tp505
I1
tp506
F-1.0
s((I1
I1
I1
I1
I4
I4
I2
I4
I1
I-5
I4
tp507
I1
tp508
F-1.0
s((I0
I0
I4
I0
I1
I4
I4
I2
I4
I5
I3
tp509
I3
tp510
F-1.0
s((I1
I4
I1
I4
I4
I4
I4
I4
I4
I-3
I-1
tp511
I0
tp512
F-1.0
s((I1
I1
I4
I4
I1
I1
I4
I0
I4
I5
I-3
tp513
I1
tp514
F-1.0
s((I1
I4
I4
I1
I4
I4
I4
I0
I1
I3
I2
tp515
I0
tp516
F-1.0
s((I1
I2
I0
I4
I1
I1
I0
I4
I4
I1
I-1
tp517
I3
tp518
F-3.59954833984375
s((I0
I4
I1
I4
I4
I4
I4
I4
I4
I-1
I-2
tp519
I1
tp520
F-1.0
s((I1
I1
I4
I4
I4
I4
I4
I4
I4
I-2
I-5
tp521
I1
tp522
F-1.0
s((I1
I4
I4
I4
I1
I4
I4
I0
I4
I4
I-1
tp523
I1
tp524
F-1.0
s((I1
I1
I2
I4
I1
I0
I1
I4
I1
I2
I-2
tp525
I1
tp526
F-1.0
s((I0
I4
I4
I4
I1
I1
I4
I4
I4
I4
I0
tp527
I0
tp528
F-1.0
s((I0
I1
I0
I4
I4
I4
I1
I4
I4
I-2
I-3
tp529
I3
tp530
F-2.734375
s((I0
I4
I4
I4
I0
I1
I4
I4
I4
I0
I-5
tp531
I1
tp532
F19.0
s((I1
I1
I1
I1
I1
I1
I1
I1
I0
I-7
I-2
tp533
I1
tp534
F-2.3125
s((I0
I4
I4
I1
I4
I4
I4
I2
I4
I2
I3
tp535
I1
tp536
F-1.0
s((I1
I1
I1
I1
I1
I1
I4
I1
I4
I3
I-4
tp537
I2
tp538
F-2.3125
s((I1
I4
I1
I1
I1
I4
I0
I1
I1
I-2
I2
tp539
I3
tp540
F-1.0
s((I1
I2
I0
I4
I1
I1
I0
I4
I4
I1
I-1
tp541
I1
tp542
F-1.0
s((I2
I4
I3
I4
I1
I4
I4
I4
I4
I-3
I1
tp543
I3
tp544
F-1.0
s((I3
I4
I1
I4
I4
I4
I0
I4
I4
I-2
I-1
tp545
I2
tp546
F-1.0
s((I1
I1
I4
I4
I1
I1
I4
I1
I4
I1
I1
tp547
I0
tp548
F-1.0
s((I0
I4
I4
I1
I4
I4
I4
I1
I4
I10
I-7
tp549
I2
tp550
F-1.0
s((I1
I4
I1
I4
I4
I4
I1
I4
I4
I-5
I2
tp551
I0
tp552
F-1.0
s((I1
I1
I4
I1
I1
I4
I1
I1
I4
I-3
I-1
tp553
I1
tp554
F-1.0
s((I1
I4
I4
I1
I4
I4
I4
I4
I4
I0
I1
tp555
I0
tp556
F-1.0
s((I1
I4
I4
I1
I1
I4
I4
I0
I4
I12
I-8
tp557
I1
tp558
F-1.0
s((I1
I1
I0
I4
I1
I1
I1
I4
I4
I2
I-3
tp559
I0
tp560
F-1.0
s((I1
I4
I4
I0
I4
I1
I4
I0
I1
I1
I-2
tp561
I3
tp562
F-1.0
s((I0
I4
I1
I1
I4
I4
I1
I4
I1
I-4
I1
tp563
I2
tp564
F18.25
s((I0
I1
I0
I1
I1
I1
I4
I4
I4
I0
I-3
tp565
I3
tp566
F-2.3125
s((I0
I1
I4
I4
I4
I1
I4
I4
I4
I-1
I-5
tp567
I0
tp568
F-1.0
s((I1
I1
I4
I1
I1
I1
I4
I0
I4
I4
I-5
tp569
I3
tp570
F-1.0
s((I0
I4
I1
I4
I4
I4
I0
I4
I4
I-11
I-7
tp571
I1
tp572
F-1.0
s((I1
I1
I1
I1
I1
I4
I0
I1
I4
I2
I2
tp573
I0
tp574
F-3.2880859375
s((I1
I4
I4
I1
I4
I4
I4
I4
I4
I-5
I9
tp575
I3
tp576
F-1.0
s((I0
I4
I4
I0
I1
I1
I4
I0
I1
I0
I3
tp577
I0
tp578
F-1.0
s((I1
I4
I1
I1
I4
I4
I1
I4
I0
I-5
I-1
tp579
I2
tp580
F-1.0
s((I1
I1
I4
I4
I1
I0
I4
I0
I4
I3
I0
tp581
I3
tp582
F-1.0
s((I1
I0
I1
I1
I0
I4
I2
I4
I1
I0
I-2
tp583
I2
tp584
F-3.7747459411621094
s((I1
I4
I1
I4
I4
I4
I4
I4
I1
I-4
I-4
tp585
I0
tp586
F-1.0
s((I1
I4
I4
I4
I0
I4
I4
I0
I1
I-3
I0
tp587
I0
tp588
F-1.0
s((I1
I1
I1
I0
I1
I1
I4
I1
I1
I0
I-1
tp589
I1
tp590
F-2.734375
s((I1
I4
I4
I0
I0
I1
I4
I1
I4
I12
I-9
tp591
I0
tp592
F-1.0
s((I1
I1
I4
I4
I4
I4
I4
I4
I4
I5
I-12
tp593
I3
tp594
F-1.0
s((I1
I1
I1
I4
I1
I1
I1
I4
I4
I1
I-3
tp595
I0
tp596
F-1.0
s((I1
I1
I0
I0
I2
I1
I4
I1
I4
I3
I4
tp597
I2
tp598
F-1.0
s((I1
I1
I4
I4
I0
I0
I4
I4
I4
I2
I-4
tp599
I0
tp600
F-1.75
s((I1
I4
I4
I1
I4
I4
I4
I1
I4
I5
I5
tp601
I0
tp602
F-1.0
s((I1
I0
I4
I4
I4
I1
I1
I4
I4
I3
I-4
tp603
I2
tp604
F-1.0
s((I0
I0
I1
I4
I4
I4
I1
I4
I4
I-9
I0
tp605
I3
tp606
F-1.75
s((I1
I1
I4
I4
I4
I4
I4
I4
I4
I4
I-4
tp607
I3
tp608
F-1.0
s((I1
I1
I1
I4
I4
I4
I3
I4
I4
I0
I-1
tp609
I1
tp610
F-1.0
s((I0
I4
I4
I1
I1
I1
I4
I3
I4
I2
I1
tp611
I1
tp612
F-1.0
s((I1
I1
I0
I0
I1
I1
I4
I4
I1
I-5
I0
tp613
I1
tp614
F-1.75
s((I1
I4
I1
I1
I1
I4
I4
I1
I1
I2
I5
tp615
I1
tp616
F-1.75
s((I0
I4
I4
I0
I1
I4
I4
I0
I1
I0
I3
tp617
I1
tp618
F-1.75
s((I1
I4
I4
I4
I0
I0
I4
I0
I4
I6
I3
tp619
I1
tp620
F-1.0
s((I1
I4
I1
I0
I4
I4
I4
I4
I1
I0
I2
tp621
I3
tp622
F-2.734375
s((I1
I1
I4
I4
I1
I0
I0
I4
I4
I-6
I-2
tp623
I1
tp624
F-1.0
s((I1
I4
I4
I1
I1
I1
I4
I1
I1
I-4
I1
tp625
I2
tp626
F-1.0
s((I0
I1
I4
I4
I4
I4
I1
I4
I4
I-1
I-4
tp627
I0
tp628
F-1.0
s((I1
I4
I4
I1
I0
I4
I4
I1
I4
I-1
I3
tp629
I2
tp630
F-2.734375
s((I1
I1
I4
I4
I1
I1
I1
I4
I4
I-2
I0
tp631
I0
tp632
F-1.75
s((I1
I4
I4
I1
I1
I4
I4
I1
I4
I5
I-1
tp633
I1
tp634
F-1.0
s((I1
I1
I4
I0
I1
I1
I1
I1
I0
I0
I-2
tp635
I2
tp636
F-2.734375
s((I1
I4
I1
I0
I4
I4
I1
I4
I1
I-1
I-3
tp637
I2
tp638
F-3.05078125
s((I1
I4
I1
I4
I4
I4
I1
I4
I4
I-3
I-5
tp639
I0
tp640
F-1.0
s((I1
I1
I4
I0
I4
I4
I1
I4
I4
I-4
I-1
tp641
I2
tp642
F-1.75
s((I1
I4
I4
I4
I1
I4
I4
I1
I4
I5
I-1
tp643
I2
tp644
F-1.0
s((I1
I1
I4
I0
I0
I1
I4
I1
I4
I3
I4
tp645
I3
tp646
F-1.0
s((I1
I1
I4
I4
I4
I4
I4
I4
I4
I-1
I-3
tp647
I1
tp648
F-1.0
s((I1
I4
I1
I1
I0
I4
I4
I1
I0
I3
I1
tp649
I3
tp650
F-3.9287282079458237
s((I0
I4
I1
I4
I4
I4
I4
I4
I4
I1
I-4
tp651
I2
tp652
F-1.0
s((I1
I4
I1
I4
I4
I4
I1
I4
I4
I-4
I-2
tp653
I0
tp654
F-1.0
s((I0
I1
I1
I1
I1
I1
I1
I0
I1
I-4
I0
tp655
I0
tp656
F-1.75
s((I1
I4
I1
I4
I4
I4
I1
I4
I1
I-5
I0
tp657
I1
tp658
F-1.0
s((I1
I1
I3
I1
I1
I1
I1
I1
I1
I-3
I-1
tp659
I1
tp660
F-3.05078125
s((I1
I0
I4
I1
I1
I0
I4
I4
I4
I-1
I-3
tp661
I0
tp662
F-3.2880859375
s((I1
I1
I4
I4
I4
I4
I4
I4
I4
I0
I-1
tp663
I0
tp664
F-1.0
s((I1
I4
I4
I4
I1
I4
I4
I4
I4
I2
I0
tp665
I2
tp666
F-1.0
s((I1
I4
I1
I4
I4
I4
I4
I4
I1
I-7
I0
tp667
I0
tp668
F-1.0
s((I1
I0
I1
I4
I4
I1
I1
I4
I4
I-3
I-3
tp669
I1
tp670
F-1.0
s((I1
I4
I2
I0
I4
I4
I1
I4
I4
I-2
I2
tp671
I3
tp672
F-1.0
s((I1
I1
I0
I4
I1
I0
I1
I4
I1
I-1
I-3
tp673
I0
tp674
F-3.6996612548828125
s((I1
I1
I0
I0
I1
I1
I1
I0
I0
I-1
I-2
tp675
I0
tp676
F-3.2880859375
s((I1
I2
I0
I1
I1
I1
I1
I1
I1
I-4
I4
tp677
I3
tp678
F-2.734375
s((I1
I1
I0
I3
I4
I4
I4
I1
I1
I1
I1
tp679
I2
tp680
F-1.0
s((I1
I1
I2
I4
I1
I1
I1
I4
I1
I2
I-3
tp681
I1
tp682
F-3.9699322127271444
s((I1
I1
I1
I1
I1
I1
I3
I4
I1
I-3
I-2
tp683
I3
tp684
F-1.0
s((I0
I4
I4
I1
I4
I4
I4
I1
I4
I1
I1
tp685
I0
tp686
F19.0
s((I1
I0
I0
I4
I4
I1
I0
I4
I4
I1
I-2
tp687
I2
tp688
F-1.0
s((I0
I1
I4
I4
I4
I4
I4
I4
I4
I-4
I-2
tp689
I0
tp690
F-1.0
s((I1
I0
I4
I4
I4
I1
I1
I4
I4
I0
I-2
tp691
I2
tp692
F-1.0
s((I1
I4
I4
I4
I3
I1
I4
I4
I4
I1
I-1
tp693
I1
tp694
F-1.0
s((I2
I1
I2
I1
I4
I4
I2
I1
I4
I1
I1
tp695
I1
tp696
F-1.0
s((I1
I4
I0
I1
I1
I1
I4
I1
I1
I2
I3
tp697
I2
tp698
F-3.05078125
s((I1
I2
I4
I4
I4
I4
I4
I4
I4
I-8
I-3
tp699
I2
tp700
F-1.0
s((I1
I4
I1
I4
I4
I4
I4
I4
I4
I-7
I-2
tp701
I2
tp702
F-1.0
s((I1
I4
I4
I1
I4
I4
I4
I4
I4
I-4
I7
tp703
I2
tp704
F-1.0
s((I2
I4
I1
I0
I1
I4
I4
I0
I2
I2
I2
tp705
I3
tp706
F-1.75
s((I1
I4
I4
I1
I4
I4
I4
I4
I1
I0
I3
tp707
I1
tp708
F-1.0
s((I0
I4
I4
I4
I4
I4
I4
I4
I4
I0
I0
tp709
I2
tp710
F19.0
s((I1
I3
I4
I4
I4
I1
I1
I4
I4
I0
I-2
tp711
I1
tp712
F-1.0
s((I1
I4
I4
I1
I4
I4
I4
I1
I4
I2
I4
tp713
I0
tp714
F-1.0
s((I1
I4
I4
I0
I1
I0
I4
I1
I4
I0
I2
tp715
I1
tp716
F-1.75
s((I1
I1
I1
I4
I4
I4
I0
I4
I0
I0
I-2
tp717
I0
tp718
F-1.0
s((I1
I1
I4
I1
I1
I4
I4
I1
I1
I-5
I1
tp719
I2
tp720
F-1.0
s((I1
I1
I4
I4
I1
I1
I4
I1
I4
I1
I0
tp721
I2
tp722
F-1.0
s((I1
I0
I4
I4
I0
I1
I1
I4
I4
I-2
I-3
tp723
I3
tp724
F-1.0
s((I1
I0
I0
I0
I4
I1
I0
I4
I4
I1
I-2
tp725
I1
tp726
F-1.0
s((I1
I0
I1
I4
I1
I1
I1
I1
I1
I-2
I2
tp727
I2
tp728
F-1.0
s((I1
I4
I4
I4
I0
I4
I4
I4
I4
I2
I-2
tp729
I0
tp730
F-1.0
s((I1
I1
I4
I4
I4
I1
I4
I4
I4
I4
I-5
tp731
I2
tp732
F-1.0
s((I1
I4
I1
I1
I4
I4
I4
I4
I4
I0
I2
tp733
I2
tp734
F-1.0
s((I1
I1
I4
I4
I4
I0
I4
I4
I4
I10
I-13
tp735
I3
tp736
F-1.0
s((I1
I1
I1
I1
I1
I1
I4
I1
I1
I-7
I-1
tp737
I2
tp738
F-2.3125
s((I2
I4
I4
I4
I1
I1
I4
I1
I4
I5
I-5
tp739
I2
tp740
F-1.0
s((I1
I1
I4
I4
I4
I4
I4
I4
I4
I11
I-15
tp741
I0
tp742
F-1.0
s((I0
I4
I4
I0
I4
I4
I4
I4
I0
I-2
I0
tp743
I3
tp744
F-1.0
s((I1
I1
I4
I4
I2
I1
I4
I4
I4
I1
I-3
tp745
I1
tp746
F-1.75
s((I1
I4
I1
I1
I4
I4
I1
I4
I1
I-4
I-1
tp747
I0
tp748
F-1.0
s((I1
I0
I4
I4
I4
I1
I0
I4
I4
I-5
I0
tp749
I1
tp750
F-1.0
s((I1
I1
I4
I3
I4
I4
I4
I1
I4
I1
I1
tp751
I3
tp752
F-1.0
s((I0
I4
I4
I4
I1
I0
I4
I4
I4
I8
I-11
tp753
I3
tp754
F-1.0
s((I3
I1
I1
I0
I1
I1
I1
I0
I1
I0
I3
tp755
I0
tp756
F-3.05078125
s((I1
I1
I4
I4
I1
I0
I1
I4
I4
I2
I-5
tp757
I3
tp758
F-1.75
s((I0
I4
I4
I4
I1
I0
I4
I1
I4
I0
I-3
tp759
I0
tp760
F-1.0
s((I1
I4
I0
I4
I1
I4
I4
I1
I4
I1
I1
tp761
I3
tp762
F-3.2880859375
s((I0
I1
I1
I1
I1
I1
I1
I4
I0
I3
I-3
tp763
I3
tp764
F-2.734375
s((I0
I0
I0
I0
I4
I4
I1
I4
I4
I-2
I-1
tp765
I3
tp766
F-1.0
s((I0
I1
I0
I4
I4
I0
I1
I4
I4
I-3
I-3
tp767
I1
tp768
F-1.0
s((I0
I1
I2
I1
I4
I4
I1
I0
I1
I0
I-1
tp769
I2
tp770
F-1.0
s((I1
I4
I1
I4
I4
I4
I0
I4
I4
I-2
I-1
tp771
I3
tp772
F-1.0
s((I1
I1
I4
I1
I4
I1
I4
I4
I4
I5
I-8
tp773
I2
tp774
F-1.75
s((I1
I4
I1
I4
I4
I4
I4
I4
I4
I-6
I6
tp775
I0
tp776
F-1.0
s((I1
I4
I4
I1
I4
I4
I4
I1
I4
I8
I7
tp777
I1
tp778
F-1.0
s((I1
I2
I0
I1
I1
I1
I1
I1
I1
I2
I3
tp779
I2
tp780
F-3.05078125
s((I1
I1
I4
I4
I1
I1
I4
I1
I4
I-3
I-2
tp781
I1
tp782
F-3.2880859375
s((I1
I1
I4
I1
I1
I4
I1
I4
I4
I0
I1
tp783
I0
tp784
F-1.0
s((I0
I4
I1
I4
I1
I4
I4
I4
I4
I-1
I-2
tp785
I3
tp786
F-1.0
s((I1
I4
I4
I1
I1
I4
I4
I3
I0
I-1
I2
tp787
I3
tp788
F-1.0
s((I2
I4
I4
I3
I1
I4
I4
I1
I4
I1
I2
tp789
I3
tp790
F-1.0
s((I0
I1
I1
I1
I4
I1
I1
I4
I0
I11
I-9
tp791
I1
tp792
F-1.0
s((I1
I4
I4
I4
I1
I1
I4
I4
I4
I1
I-1
tp793
I0
tp794
F-1.0
s((I1
I0
I4
I4
I4
I4
I4
I4
I4
I-10
I-4
tp795
I3
tp796
F-1.0
s((I1
I1
I1
I4
I4
I1
I1
I4
I4
I-13
I-7
tp797
I1
tp798
F-1.0
s((I1
I1
I4
I1
I1
I1
I4
I1
I1
I4
I-2
tp799
I2
tp800
F-2.3125
s((I0
I0
I4
I4
I1
I2
I4
I4
I4
I2
I-1
tp801
I1
tp802
F-3.6996612548828125
s((I0
I4
I4
I4
I0
I1
I4
I1
I4
I1
I-3
tp803
I1
tp804
F-1.75
s((I0
I4
I4
I1
I4
I4
I4
I4
I1
I2
I1
tp805
I3
tp806
F-1.0
s((I1
I1
I4
I4
I1
I1
I4
I1
I4
I-3
I-2
tp807
I0
tp808
F-1.0
s((I0
I4
I1
I1
I4
I4
I4
I4
I4
I3
I3
tp809
I3
tp810
F-2.734375
s((I1
I1
I1
I0
I0
I1
I1
I1
I4
I4
I-3
tp811
I1
tp812
F-1.75
s((I0
I4
I4
I4
I1
I4
I4
I1
I4
I-2
I3
tp813
I3
tp814
F19.0
s((I1
I4
I4
I4
I0
I4
I4
I4
I4
I9
I-11
tp815
I1
tp816
F-1.0
s((I1
I1
I4
I4
I1
I4
I1
I4
I4
I-3
I-1
tp817
I2
tp818
F-1.0
s((I1
I4
I4
I4
I1
I4
I4
I1
I4
I2
I2
tp819
I3
tp820
F-1.0
s((I1
I4
I4
I4
I1
I1
I4
I4
I4
I7
I6
tp821
I3
tp822
F-1.0
s((I0
I4
I4
I1
I4
I4
I4
I1
I4
I3
I3
tp823
I1
tp824
F-1.0
s((I2
I4
I1
I0
I1
I4
I0
I0
I2
I2
I2
tp825
I2
tp826
F-1.0
s((I1
I4
I4
I4
I1
I1
I4
I4
I4
I6
I-12
tp827
I0
tp828
F-1.0
s((I1
I1
I3
I0
I1
I1
I1
I4
I0
I-1
I3
tp829
I3
tp830
F-2.734375
s((I1
I1
I2
I1
I4
I4
I1
I4
I1
I-5
I5
tp831
I2
tp832
F-1.0
s((I1
I1
I1
I1
I4
I4
I1
I4
I1
I-4
I-1
tp833
I2
tp834
F-1.0
s((I1
I1
I1
I1
I1
I1
I1
I1
I4
I0
I-1
tp835
I3
tp836
F-2.734375
s((I1
I4
I1
I4
I4
I4
I1
I4
I4
I4
I-9
tp837
I0
tp838
F-1.0
s((I1
I3
I4
I4
I1
I1
I3
I4
I4
I-2
I3
tp839
I0
tp840
F-1.0
s((I1
I4
I0
I4
I4
I4
I1
I4
I4
I-6
I1
tp841
I3
tp842
F-1.0
s((I1
I1
I4
I0
I4
I4
I4
I4
I1
I-4
I6
tp843
I3
tp844
F-1.0
s((I0
I1
I1
I4
I4
I4
I1
I4
I4
I-1
I-4
tp845
I0
tp846
F-2.734375
s((I1
I4
I1
I4
I4
I4
I4
I4
I0
I-6
I0
tp847
I0
tp848
F-1.75
s((I1
I1
I4
I4
I4
I1
I1
I4
I4
I4
I-3
tp849
I1
tp850
F-1.0
s((I0
I4
I4
I4
I1
I4
I4
I4
I4
I3
I-2
tp851
I0
tp852
F-1.0
s((I0
I1
I4
I4
I1
I4
I4
I4
I4
I0
I-1
tp853
I1
tp854
F-2.734375
s((I1
I0
I4
I4
I0
I1
I4
I1
I4
I-3
I5
tp855
I1
tp856
F-1.0
s((I1
I4
I0
I1
I4
I4
I4
I1
I1
I2
I3
tp857
I2
tp858
F-3.05078125
s((I1
I4
I4
I4
I0
I4
I4
I4
I4
I-1
I3
tp859
I2
tp860
F-1.0
s((I1
I4
I4
I1
I4
I4
I4
I1
I0
I-4
I7
tp861
I3
tp862
F-1.0
s((I1
I4
I4
I0
I4
I4
I4
I4
I4
I2
I9
tp863
I2
tp864
F-1.0
s((I1
I4
I1
I1
I4
I4
I1
I4
I2
I-5
I6
tp865
I3
tp866
F-1.0
s((I1
I4
I4
I1
I0
I4
I4
I0
I4
I2
I-3
tp867
I2
tp868
F-2.3125
s((I1
I0
I1
I1
I1
I0
I2
I1
I1
I1
I-2
tp869
I0
tp870
F-1.0
s((I1
I2
I4
I1
I3
I3
I4
I1
I4
I4
I1
tp871
I3
tp872
F-1.0
s((I1
I1
I0
I0
I1
I1
I1
I1
I1
I-5
I0
tp873
I2
tp874
F-1.0
s((I1
I0
I4
I4
I1
I4
I1
I4
I4
I-1
I5
tp875
I2
tp876
F-1.0
s((I1
I1
I1
I1
I1
I1
I1
I1
I1
I-4
I0
tp877
I3
tp878
F-3.05078125
s((I0
I4
I4
I1
I0
I4
I4
I1
I4
I0
I1
tp879
I0
tp880
F-1.0
s((I1
I1
I3
I2
I1
I1
I1
I4
I1
I-1
I-1
tp881
I1
tp882
F-1.0
s((I1
I4
I4
I4
I1
I4
I4
I1
I4
I2
I4
tp883
I0
tp884
F-1.0
s((I3
I4
I4
I2
I1
I4
I4
I1
I0
I1
I1
tp885
I1
tp886
F-1.0
s((I0
I4
I4
I4
I1
I4
I4
I1
I4
I7
I-10
tp887
I2
tp888
F-1.0
s((I1
I1
I4
I4
I4
I1
I4
I4
I4
I2
I-5
tp889
I3
tp890
F-1.0
s((I1
I1
I4
I0
I1
I1
I4
I0
I4
I0
I-4
tp891
I2
tp892
F-1.0
s((I1
I0
I1
I1
I4
I4
I0
I0
I4
I9
I-10
tp893
I1
tp894
F-1.0
s((I0
I4
I4
I0
I4
I4
I4
I0
I4
I0
I2
tp895
I2
tp896
F-1.0
s((I1
I4
I4
I1
I4
I4
I4
I1
I4
I1
I3
tp897
I3
tp898
F-1.0
s((I0
I0
I4
I4
I4
I4
I4
I4
I4
I3
I-1
tp899
I1
tp900
F-1.0
s((I1
I4
I4
I0
I4
I4
I4
I4
I4
I0
I0
tp901
I0
tp902
F13.25
s((I1
I4
I4
I1
I4
I4
I4
I4
I1
I-1
I4
tp903
I3
tp904
F-1.0
s((I1
I4
I4
I1
I4
I4
I4
I0
I4
I2
I-1
tp905
I3
tp906
F-1.0
s((I0
I4
I1
I4
I4
I4
I4
I4
I0
I-1
I2
tp907
I3
tp908
F19.0
s((I1
I4
I4
I1
I1
I4
I4
I1
I4
I3
I6
tp909
I2
tp910
F-1.0
s((I1
I1
I4
I1
I1
I1
I4
I1
I4
I4
I-2
tp911
I1
tp912
F-2.3125
s((I0
I4
I1
I0
I1
I1
I1
I2
I1
I-1
I1
tp913
I0
tp914
F-1.0
s((I1
I1
I1
I4
I1
I1
I0
I1
I4
I6
I6
tp915
I1
tp916
F-1.75
s((I1
I4
I4
I4
I1
I1
I4
I4
I4
I2
I-4
tp917
I2
tp918
F-1.0
s((I0
I1
I1
I1
I4
I4
I4
I4
I4
I-1
I0
tp919
I2
tp920
F-2.734375
s((I1
I4
I4
I4
I1
I4
I4
I4
I4
I1
I0
tp921
I0
tp922
F-1.75
s((I1
I4
I0
I1
I4
I4
I4
I4
I0
I4
I4
tp923
I2
tp924
F-1.0
s((I1
I1
I1
I1
I0
I4
I1
I1
I4
I-1
I-2
tp925
I3
tp926
F-2.3125
s((I1
I4
I4
I4
I1
I1
I4
I0
I4
I3
I5
tp927
I0
tp928
F-1.0
s((I1
I1
I4
I4
I4
I1
I4
I4
I4
I1
I-2
tp929
I3
tp930
F-1.0
s((I2
I1
I1
I1
I1
I4
I1
I1
I0
I2
I4
tp931
I3
tp932
F-1.0
s((I1
I1
I4
I4
I4
I4
I1
I4
I4
I-2
I0
tp933
I1
tp934
F-1.0
s((I1
I4
I0
I4
I4
I4
I1
I4
I4
I-1
I-1
tp935
I3
tp936
F-3.05078125
s((I0
I1
I4
I4
I0
I1
I4
I4
I4
I-1
I-3
tp937
I1
tp938
F-2.3125
s((I1
I1
I1
I1
I1
I1
I1
I1
I0
I-7
I-2
tp939
I0
tp940
F-3.59954833984375
s((I1
I1
I1
I1
I4
I1
I1
I4
I0
I-7
I-2
tp941
I1
tp942
F-1.0
s((I0
I1
I4
I4
I4
I4
I2
I4
I4
I-2
I1
tp943
I0
tp944
F17.6875
s((I1
I4
I1
I4
I1
I4
I4
I4
I4
I4
I-2
tp945
I2
tp946
F-1.0
s((I1
I4
I4
I1
I1
I4
I4
I1
I1
I0
I5
tp947
I3
tp948
F-1.0
s((I1
I0
I4
I1
I4
I1
I1
I4
I4
I3
I-4
tp949
I2
tp950
F-1.75
s((I1
I1
I1
I1
I4
I1
I1
I1
I4
I-8
I-3
tp951
I0
tp952
F-1.0
s((I1
I4
I1
I0
I1
I4
I4
I1
I2
I0
I2
tp953
I3
tp954
F-2.3125
s((I0
I1
I1
I4
I1
I1
I0
I4
I4
I-3
I-3
tp955
I3
tp956
F-1.0
s((I1
I0
I4
I4
I4
I4
I0
I4
I4
I-10
I-7
tp957
I1
tp958
F-1.0
s((I1
I0
I1
I1
I1
I1
I1
I4
I1
I-5
I-2
tp959
I2
tp960
F-3.59954833984375
s((I1
I4
I4
I4
I1
I0
I4
I1
I4
I3
I-2
tp961
I3
tp962
F-1.0
s((I1
I4
I4
I4
I1
I4
I4
I4
I4
I3
I-2
tp963
I0
tp964
F-1.0
s((I1
I4
I1
I1
I4
I4
I4
I4
I1
I-7
I-1
tp965
I1
tp966
F-1.0
s((I1
I0
I4
I4
I0
I4
I0
I4
I4
I-1
I-6
tp967
I0
tp968
F-1.0
s((I1
I1
I1
I4
I4
I4
I1
I4
I4
I-2
I1
tp969
I2
tp970
F-1.0
s((I1
I1
I1
I1
I1
I1
I1
I0
I1
I-4
I-1
tp971
I0
tp972
F-3.2880859375
s((I0
I0
I4
I4
I4
I4
I4
I4
I4
I0
I-1
tp973
I1
tp974
F-1.0
s((I1
I1
I4
I1
I1
I1
I4
I0
I4
I4
I-5
tp975
I1
tp976
F-1.75
s((I1
I4
I4
I1
I4
I4
I4
I4
I4
I1
I2
tp977
I2
tp978
F-1.0
s((I1
I4
I4
I1
I1
I4
I4
I1
I4
I0
I4
tp979
I3
tp980
F-1.75
s((I1
I4
I4
I4
I0
I0
I4
I4
I4
I2
I-4
tp981
I0
tp982
F-1.0
s((I1
I4
I4
I0
I4
I4
I4
I4
I1
I-4
I6
tp983
I0
tp984
F-1.0
s((I0
I1
I2
I1
I1
I1
I1
I4
I1
I0
I1
tp985
I2
tp986
F-1.0
s((I1
I1
I4
I1
I1
I1
I3
I3
I1
I-3
I-1
tp987
I1
tp988
F-2.3125
s((I1
I0
I4
I1
I1
I0
I0
I1
I4
I1
I-2
tp989
I3
tp990
F-1.0
s((I1
I1
I1
I1
I1
I4
I1
I0
I1
I1
I2
tp991
I3
tp992
F-3.05078125
s((I0
I1
I4
I4
I4
I1
I4
I4
I4
I11
I-9
tp993
I2
tp994
F-1.0
s((I1
I3
I1
I4
I1
I1
I3
I4
I4
I-2
I3
tp995
I2
tp996
F-1.0
s((I0
I1
I1
I4
I4
I1
I0
I4
I1
I-5
I-1
tp997
I1
tp998
F-1.0
s((I1
I0
I4
I4
I3
I1
I4
I4
I4
I2
I0
tp999
I0
tp1000
F-1.0
s((I1
I4
I4
I4
I1
I4
I4
I4
I4
I4
I-2
tp1001
I3
tp1002
F-1.0
s((I1
I4
I4
I4
I1
I0
I4
I4
I4
I11
I-8
tp1003
I2
tp1004
F-1.0
s((I0
I4
I4
I1
I4
I4
I4
I2
I1
I3
I3
tp1005
I2
tp1006
F-1.0
s((I1
I4
I4
I4
I4
I4
I4
I4
I4
I0
I0
tp1007
I0
tp1008
F-2.3125
s((I1
I4
I1
I4
I4
I4
I1
I4
I4
I-5
I-3
tp1009
I1
tp1010
F-1.0
s((I0
I4
I4
I0
I4
I4
I4
I4
I4
I-4
I0
tp1011
I3
tp1012
F-1.0
s((I1
I4
I0
I1
I1
I4
I4
I1
I1
I6
I7
tp1013
I2
tp1014
F-2.3125
s((I0
I1
I0
I4
I4
I1
I1
I4
I4
I1
I-1
tp1015
I2
tp1016
F-1.0
s((I1
I1
I4
I0
I0
I1
I1
I1
I4
I4
I-3
tp1017
I1
tp1018
F-3.05078125
s((I2
I1
I4
I1
I0
I1
I4
I1
I1
I2
I-1
tp1019
I3
tp1020
F-1.0
s((I1
I4
I4
I4
I1
I1
I4
I4
I4
I5
I-3
tp1021
I1
tp1022
F-1.0
s((I1
I1
I0
I1
I4
I4
I4
I4
I1
I0
I-1
tp1023
I3
tp1024
F-1.0
s((I1
I1
I1
I1
I4
I4
I1
I4
I1
I-7
I1
tp1025
I2
tp1026
F-1.0
s((I1
I1
I1
I4
I4
I4
I2
I4
I4
I-4
I0
tp1027
I0
tp1028
F-2.734375
s((I0
I0
I4
I1
I0
I0
I0
I1
I4
I-1
I-2
tp1029
I1
tp1030
F-2.3125
s((I0
I1
I4
I4
I4
I4
I4
I4
I4
I-4
I-2
tp1031
I3
tp1032
F-1.0
s((I1
I1
I4
I1
I4
I4
I4
I1
I4
I4
I-2
tp1033
I1
tp1034
F-1.0
s((I1
I1
I1
I4
I4
I4
I1
I4
I4
I0
I0
tp1035
I1
tp1036
F-1.0
s((I1
I4
I4
I4
I1
I1
I4
I4
I4
I3
I-5
tp1037
I0
tp1038
F-1.0
s((I1
I4
I1
I4
I4
I4
I4
I4
I3
I-1
I3
tp1039
I0
tp1040
F-1.0
s((I0
I4
I1
I4
I1
I4
I3
I4
I4
I-3
I-2
tp1041
I3
tp1042
F-1.0
s((I1
I4
I4
I4
I1
I4
I4
I4
I4
I8
I6
tp1043
I1
tp1044
F-2.3125
s((I1
I4
I0
I0
I1
I4
I4
I1
I0
I2
I2
tp1045
I3
tp1046
F-1.0
s((I1
I1
I1
I4
I4
I4
I1
I4
I4
I-1
I-2
tp1047
I1
tp1048
F-1.0
s((I1
I1
I1
I1
I1
I1
I1
I1
I4
I3
I-3
tp1049
I0
tp1050
F-1.0
s((I1
I4
I4
I1
I4
I4
I4
I0
I4
I0
I1
tp1051
I3
tp1052
F-1.0
s((I1
I4
I4
I0
I4
I4
I4
I4
I4
I9
I-8
tp1053
I3
tp1054
F-1.0
s((I1
I4
I0
I1
I4
I4
I1
I1
I1
I0
I3
tp1055
I2
tp1056
F-1.0
s((I0
I4
I1
I4
I4
I4
I0
I4
I4
I-3
I-3
tp1057
I0
tp1058
F-1.0
s((I1
I4
I1
I1
I1
I1
I4
I4
I1
I1
I-1
tp1059
I1
tp1060
F-1.0
s((I1
I1
I0
I2
I1
I4
I4
I1
I1
I-4
I6
tp1061
I0
tp1062
F-1.0
s((I1
I1
I4
I4
I0
I1
I4
I4
I4
I4
I-6
tp1063
I0
tp1064
F-2.3125
s((I0
I0
I1
I1
I4
I4
I1
I4
I1
I-2
I5
tp1065
I1
tp1066
F-1.0
s((I1
I0
I1
I4
I4
I4
I1
I4
I4
I-7
I-2
tp1067
I3
tp1068
F-1.75
s((I1
I4
I4
I1
I0
I4
I4
I1
I1
I-5
I7
tp1069
I0
tp1070
F-1.0
s((I1
I1
I4
I0
I4
I4
I4
I1
I4
I2
I5
tp1071
I3
tp1072
F-1.0
s((I1
I0
I4
I0
I4
I4
I4
I4
I4
I0
I0
tp1073
I1
tp1074
F-1.0
s((I0
I4
I1
I4
I4
I4
I1
I4
I4
I-2
I-2
tp1075
I2
tp1076
F-1.0
s((I1
I1
I1
I4
I1
I1
I1
I4
I4
I1
I-3
tp1077
I3
tp1078
F-3.959909616969526
s((I1
I1
I4
I4
I4
I1
I4
I4
I4
I5
I-8
tp1079
I2
tp1080
F-1.0
s((I1
I4
I4
I1
I1
I4
I4
I0
I4
I1
I2
tp1081
I3
tp1082
F-1.75
s((I1
I1
I1
I1
I0
I4
I1
I1
I0
I-1
I-2
tp1083
I0
tp1084
F-1.0
s((I1
I4
I1
I1
I4
I4
I4
I1
I1
I-6
I-1
tp1085
I1
tp1086
F-1.0
s((I1
I4
I4
I0
I4
I4
I4
I4
I4
I2
I7
tp1087
I0
tp1088
F-1.0
s((I0
I4
I4
I1
I4
I4
I4
I4
I4
I3
I3
tp1089
I3
tp1090
F-1.0
s((I0
I4
I1
I0
I4
I4
I4
I0
I4
I0
I2
tp1091
I1
tp1092
F-1.0
s((I1
I1
I4
I4
I4
I4
I1
I4
I4
I3
I-4
tp1093
I1
tp1094
F-1.0
s((I1
I4
I2
I4
I4
I4
I1
I4
I4
I-2
I2
tp1095
I2
tp1096
F-1.0
s((I1
I1
I1
I0
I1
I0
I1
I1
I1
I2
I-5
tp1097
I0
tp1098
F-1.0
s((I0
I2
I4
I4
I4
I2
I4
I4
I4
I3
I0
tp1099
I2
tp1100
F19.0
s((I1
I1
I4
I4
I1
I1
I1
I1
I4
I2
I3
tp1101
I1
tp1102
F-1.75
s((I1
I4
I0
I1
I1
I1
I4
I1
I1
I2
I3
tp1103
I0
tp1104
F-1.0
s((I0
I4
I4
I0
I2
I1
I4
I1
I4
I5
I2
tp1105
I0
tp1106
F19.0
s((I1
I4
I4
I1
I1
I4
I4
I1
I1
I-3
I1
tp1107
I1
tp1108
F-1.0
s((I1
I4
I2
I1
I4
I4
I4
I1
I1
I-4
I1
tp1109
I2
tp1110
F-2.734375
s((I0
I4
I1
I4
I4
I4
I3
I4
I4
I-3
I-2
tp1111
I1
tp1112
F-1.0
s((I1
I4
I4
I1
I4
I4
I4
I4
I1
I-5
I4
tp1113
I3
tp1114
F-1.0
s((I1
I4
I1
I4
I4
I4
I4
I4
I0
I-4
I-2
tp1115
I2
tp1116
F-1.0
s((I0
I1
I0
I1
I1
I1
I4
I4
I1
I0
I-3
tp1117
I1
tp1118
F-13.466064453125
s((I0
I4
I4
I4
I2
I4
I4
I1
I4
I2
I0
tp1119
I1
tp1120
F-1.0
s((I0
I1
I4
I4
I4
I4
I4
I4
I4
I-8
I-4
tp1121
I1
tp1122
F-1.0
s((I1
I1
I1
I4
I1
I1
I4
I1
I4
I4
I-3
tp1123
I0
tp1124
F-1.75
s((I1
I1
I0
I4
I4
I4
I1
I4
I1
I1
I6
tp1125
I1
tp1126
F-1.0
s((I0
I4
I4
I1
I4
I4
I4
I4
I4
I0
I1
tp1127
I0
tp1128
F19.0
s((I1
I1
I1
I4
I1
I1
I3
I4
I4
I-3
I-2
tp1129
I2
tp1130
F-1.0
s((I1
I4
I0
I4
I4
I4
I4
I4
I1
I-7
I1
tp1131
I2
tp1132
F-1.0
s((I0
I4
I1
I4
I4
I4
I4
I4
I4
I-1
I6
tp1133
I2
tp1134
F-1.0
s((I1
I0
I1
I4
I4
I1
I1
I4
I4
I1
I-2
tp1135
I1
tp1136
F-1.0
s((I0
I4
I1
I4
I4
I4
I4
I4
I4
I-4
I1
tp1137
I1
tp1138
F-1.0
s((I2
I1
I1
I4
I4
I4
I1
I4
I1
I3
I-6
tp1139
I3
tp1140
F-1.0
s((I1
I4
I4
I1
I4
I4
I4
I1
I4
I3
I-1
tp1141
I1
tp1142
F-1.0
s((I1
I1
I1
I1
I0
I4
I1
I1
I4
I2
I-4
tp1143
I0
tp1144
F-3.59954833984375
s((I1
I4
I1
I4
I4
I4
I1
I4
I4
I-4
I-1
tp1145
I1
tp1146
F-1.0
s((I1
I0
I1
I4
I1
I0
I0
I1
I1
I10
I-10
tp1147
I1
tp1148
F-1.0
s((I1
I1
I4
I0
I1
I1
I1
I1
I0
I0
I-2
tp1149
I1
tp1150
F-3.466064453125
s((I1
I4
I1
I4
I4
I4
I4
I4
I1
I-6
I0
tp1151
I0
tp1152
F-1.0
s((I0
I4
I1
I1
I4
I4
I1
I1
I1
I-1
I3
tp1153
I0
tp1154
F-1.0
s((I0
I1
I4
I4
I1
I0
I4
I1
I4
I4
I-4
tp1155
I0
tp1156
F-1.0
s((I0
I1
I1
I4
I1
I4
I4
I4
I4
I0
I-1
tp1157
I2
tp1158
F-1.0
s((I1
I1
I4
I4
I1
I0
I1
I4
I4
I2
I-5
tp1159
I1
tp1160
F-1.0
s((I3
I4
I1
I4
I2
I4
I4
I4
I4
I-2
I1
tp1161
I3
tp1162
F-1.0
s((I1
I4
I1
I4
I4
I4
I1
I4
I4
I-1
I-3
tp1163
I2
tp1164
F-1.0
s((I3
I1
I3
I1
I1
I4
I1
I1
I4
I-2
I4
tp1165
I3
tp1166
F-2.3125
s((I3
I1
I3
I4
I4
I4
I1
I4
I4
I-2
I4
tp1167
I1
tp1168
F-1.0
s((I1
I4
I4
I4
I0
I1
I4
I4
I4
I-3
I-2
tp1169
I3
tp1170
F-1.0
s((I0
I4
I1
I1
I4
I4
I1
I1
I1
I-1
I3
tp1171
I3
tp1172
F-2.734375
s((I0
I4
I1
I1
I4
I4
I4
I4
I2
I0
I3
tp1173
I1
tp1174
F-1.0
s((I1
I4
I4
I4
I4
I4
I4
I4
I4
I0
I0
tp1175
I3
tp1176
F-2.3125
s((I1
I1
I1
I0
I1
I4
I0
I1
I2
I0
I2
tp1177
I2
tp1178
F-1.0
s((I1
I1
I1
I1
I1
I1
I1
I0
I0
I-6
I0
tp1179
I3
tp1180
F-2.3125
s((I1
I4
I1
I1
I4
I4
I4
I4
I0
I-12
I-6
tp1181
I1
tp1182
F-1.0
s((I1
I1
I1
I4
I0
I4
I1
I4
I4
I2
I-2
tp1183
I3
tp1184
F-1.75
s((I1
I1
I3
I1
I1
I1
I1
I1
I1
I-3
I-1
tp1185
I2
tp1186
F-2.3125
s((I1
I0
I4
I4
I4
I4
I0
I4
I4
I1
I-2
tp1187
I1
tp1188
F-1.0
s((I1
I0
I1
I4
I4
I1
I1
I4
I1
I3
I-3
tp1189
I0
tp1190
F-1.0
s((I0
I0
I0
I1
I4
I4
I0
I4
I1
I-2
I-2
tp1191
I2
tp1192
F-3.466064453125
s((I1
I4
I4
I4
I1
I4
I4
I1
I4
I1
I4
tp1193
I3
tp1194
F-1.75
s((I1
I1
I1
I1
I4
I4
I2
I1
I1
I1
I3
tp1195
I3
tp1196
F-3.2880859375
s((I0
I0
I1
I0
I1
I1
I4
I2
I4
I5
I3
tp1197
I3
tp1198
F-1.75
s((I0
I4
I1
I0
I4
I4
I1
I4
I1
I-9
I1
tp1199
I2
tp1200
F-1.0
s((I1
I4
I4
I1
I4
I4
I4
I4
I4
I1
I2
tp1201
I3
tp1202
F-1.0
s((I1
I1
I1
I1
I4
I4
I1
I1
I1
I-8
I-1
tp1203
I0
tp1204
F-2.3125
s((I1
I1
I1
I1
I1
I1
I3
I4
I1
I-3
I-2
tp1205
I2
tp1206
F-1.75
s((I0
I1
I4
I4
I1
I1
I4
I4
I4
I0
I-3
tp1207
I2
tp1208
F-1.0
s((I0
I1
I0
I4
I0
I0
I2
I0
I4
I-1
I-1
tp1209
I2
tp1210
F-1.0
s((I1
I4
I1
I1
I1
I4
I4
I1
I3
I-1
I4
tp1211
I0
tp1212
F-1.0
s((I1
I1
I4
I4
I1
I0
I4
I4
I4
I0
I-1
tp1213
I3
tp1214
F-1.0
s((I1
I4
I4
I1
I1
I4
I4
I1
I1
I2
I-3
tp1215
I3
tp1216
F-1.0
s((I0
I4
I4
I0
I4
I4
I4
I1
I4
I5
I4
tp1217
I2
tp1218
F-1.0
s((I0
I4
I4
I4
I1
I1
I4
I0
I4
I4
I4
tp1219
I1
tp1220
F-2.3125
s((I1
I4
I2
I1
I4
I4
I1
I4
I1
I-5
I5
tp1221
I0
tp1222
F-1.0
s((I0
I4
I4
I1
I4
I4
I4
I4
I1
I2
I1
tp1223
I2
tp1224
F-3.6996612548828125
s((I1
I4
I1
I1
I1
I1
I4
I1
I1
I-4
I1
tp1225
I2
tp1226
F-3.2880859375
s((I1
I4
I4
I0
I4
I4
I4
I4
I4
I0
I2
tp1227
I1
tp1228
F-1.0
s((I1
I1
I4
I1
I1
I1
I4
I0
I4
I4
I-5
tp1229
I0
tp1230
F-1.0
s((I2
I1
I1
I4
I4
I1
I3
I4
I4
I-1
I-2
tp1231
I0
tp1232
F-1.0
s((I1
I1
I4
I4
I4
I0
I4
I4
I4
I1
I-4
tp1233
I3
tp1234
F-1.0
s((I1
I1
I4
I4
I4
I1
I4
I4
I4
I3
I-6
tp1235
I1
tp1236
F-1.0
s((I1
I1
I1
I4
I4
I0
I1
I4
I4
I0
I-3
tp1237
I0
tp1238
F-3.6996612548828125
s((I1
I4
I4
I1
I1
I4
I4
I1
I4
I1
I2
tp1239
I0
tp1240
F-1.0
s((I2
I1
I4
I4
I0
I1
I4
I1
I4
I0
I-5
tp1241
I3
tp1242
F-1.0
s((I1
I4
I4
I0
I0
I4
I4
I4
I4
I0
I2
tp1243
I1
tp1244
F-1.0
s((I1
I4
I4
I1
I4
I4
I4
I1
I4
I1
I2
tp1245
I1
tp1246
F-1.0
s((I1
I1
I0
I4
I0
I1
I4
I4
I4
I1
I-1
tp1247
I0
tp1248
F-1.0
s((I1
I1
I0
I1
I4
I4
I1
I4
I0
I-5
I-2
tp1249
I1
tp1250
F-1.0
s((I0
I1
I4
I4
I4
I4
I4
I4
I4
I-1
I-5
tp1251
I3
tp1252
F-1.0
s((I1
I1
I4
I4
I4
I4
I4
I4
I4
I-1
I-4
tp1253
I0
tp1254
F-1.0
s((I0
I4
I4
I4
I0
I2
I4
I4
I4
I3
I1
tp1255
I0
tp1256
F19.0
s((I1
I4
I4
I1
I4
I4
I4
I4
I0
I-7
I2
tp1257
I2
tp1258
F-2.3125
s((I1
I1
I0
I4
I1
I1
I1
I4
I4
I2
I-3
tp1259
I3
tp1260
F-1.75
s((I0
I1
I0
I1
I1
I1
I4
I4
I4
I0
I-3
tp1261
I0
tp1262
F-2.3125
s((I1
I1
I1
I1
I4
I4
I1
I0
I1
I-1
I-1
tp1263
I1
tp1264
F-1.0
s((I1
I4
I4
I1
I1
I4
I4
I1
I4
I4
I-1
tp1265
I2
tp1266
F-1.0
s((I1
I1
I4
I4
I1
I1
I4
I4
I4
I4
I3
tp1267
I0
tp1268
F-1.0
s((I1
I4
I4
I1
I1
I4
I4
I1
I4
I4
I-3
tp1269
I0
tp1270
F-1.0
s((I1
I0
I1
I1
I1
I0
I0
I1
I1
I1
I-2
tp1271
I2
tp1272
F-1.0
s((I0
I4
I0
I4
I4
I4
I4
I4
I1
I-1
I3
tp1273
I2
tp1274
F-1.0
s((I0
I4
I0
I4
I1
I1
I4
I4
I4
I1
I-1
tp1275
I2
tp1276
F-1.0
s((I1
I0
I4
I1
I4
I4
I4
I4
I4
I11
I-10
tp1277
I3
tp1278
F-1.0
s((I1
I1
I1
I0
I4
I4
I1
I4
I0
I-1
I-4
tp1279
I3
tp1280
F-3.2880859375
s((I1
I4
I4
I1
I4
I4
I4
I4
I1
I-8
I0
tp1281
I3
tp1282
F-1.0
s((I1
I4
I1
I1
I1
I1
I4
I1
I1
I-4
I1
tp1283
I3
tp1284
F-1.75
s((I1
I4
I4
I3
I1
I4
I4
I1
I4
I0
I0
tp1285
I2
tp1286
F-2.734375
s((I1
I4
I4
I1
I1
I4
I4
I0
I4
I5
I4
tp1287
I0
tp1288
F-1.0
s((I1
I0
I4
I4
I4
I1
I4
I4
I4
I11
I-14
tp1289
I2
tp1290
F-1.0
s((I1
I1
I2
I1
I4
I4
I3
I4
I1
I0
I0
tp1291
I3
tp1292
F-1.0
s((I1
I4
I4
I1
I1
I4
I4
I2
I4
I0
I3
tp1293
I2
tp1294
F-3.05078125
s((I1
I0
I1
I1
I1
I4
I1
I1
I1
I-1
I2
tp1295
I2
tp1296
F-1.75
s((I1
I4
I4
I1
I0
I4
I4
I1
I4
I3
I1
tp1297
I2
tp1298
F-1.0
s((I1
I4
I4
I1
I4
I4
I4
I4
I0
I-2
I1
tp1299
I1
tp1300
F-1.0
s((I1
I1
I1
I4
I4
I4
I1
I4
I4
I-3
I0
tp1301
I2
tp1302
F-1.0
s((I1
I0
I4
I4
I4
I1
I4
I4
I4
I1
I-2
tp1303
I3
tp1304
F-1.0
s((I1
I4
I4
I4
I1
I4
I4
I1
I4
I5
I-2
tp1305
I2
tp1306
F-1.0
s((I0
I1
I4
I4
I4
I1
I4
I4
I4
I4
I3
tp1307
I3
tp1308
F-1.0
s((I1
I4
I4
I4
I1
I1
I4
I1
I4
I4
I-4
tp1309
I1
tp1310
F-2.3125
s((I1
I1
I4
I1
I1
I1
I4
I1
I4
I3
I-4
tp1311
I3
tp1312
F-1.0
s((I1
I4
I1
I1
I1
I4
I4
I1
I0
I-1
I0
tp1313
I2
tp1314
F-1.0
s((I1
I4
I4
I0
I4
I4
I4
I4
I1
I-1
I1
tp1315
I2
tp1316
F-1.0
s((I1
I1
I1
I1
I1
I1
I1
I1
I0
I-7
I-2
tp1317
I2
tp1318
F-2.3125
s((I1
I4
I1
I1
I1
I4
I4
I4
I1
I-7
I-1
tp1319
I2
tp1320
F-1.0
s((I1
I4
I4
I1
I0
I4
I4
I1
I4
I-1
I3
tp1321
I1
tp1322
F-1.0
s((I3
I4
I1
I1
I1
I1
I4
I1
I1
I1
I-1
tp1323
I0
tp1324
F-1.0
s((I0
I1
I0
I4
I0
I1
I1
I1
I1
I10
I-9
tp1325
I2
tp1326
F-1.0
s((I1
I4
I4
I3
I1
I4
I4
I1
I1
I1
I0
tp1327
I0
tp1328
F-1.75
s((I1
I1
I1
I4
I1
I1
I1
I1
I1
I-1
I1
tp1329
I0
tp1330
F-1.75
s((I1
I4
I0
I0
I4
I4
I4
I4
I1
I-3
I-2
tp1331
I1
tp1332
F-1.0
s((I1
I4
I0
I4
I4
I4
I4
I4
I4
I-4
I-2
tp1333
I3
tp1334
F-1.0
s((I0
I4
I1
I4
I1
I0
I4
I4
I4
I8
I-11
tp1335
I3
tp1336
F-1.75
s((I1
I2
I3
I4
I4
I1
I3
I4
I4
I-3
I0
tp1337
I1
tp1338
F-1.0
s((I1
I4
I4
I1
I4
I4
I4
I4
I0
I-12
I-6
tp1339
I3
tp1340
F-1.0
s((I1
I1
I4
I4
I4
I4
I1
I4
I4
I-3
I-1
tp1341
I0
tp1342
F-1.0
s((I2
I1
I1
I4
I0
I1
I1
I1
I1
I0
I-5
tp1343
I0
tp1344
F-1.0
s((I1
I4
I1
I4
I4
I4
I1
I4
I4
I-2
I-1
tp1345
I1
tp1346
F-1.0
s((I1
I4
I1
I1
I4
I4
I1
I4
I1
I-2
I-1
tp1347
I2
tp1348
F-1.0
s((I1
I1
I4
I0
I2
I1
I4
I4
I4
I0
I2
tp1349
I3
tp1350
F-1.0
s((I1
I0
I1
I1
I4
I4
I0
I4
I1
I-2
I-3
tp1351
I0
tp1352
F-3.2880859375
s((I0
I1
I4
I1
I4
I4
I4
I1
I2
I1
I3
tp1353
I1
tp1354
F-1.0
s((I1
I0
I4
I4
I4
I1
I0
I4
I4
I0
I-4
tp1355
I3
tp1356
F-1.0
s((I1
I1
I1
I1
I0
I1
I2
I4
I1
I4
I-6
tp1357
I1
tp1358
F-1.0
s((I1
I1
I1
I1
I1
I4
I2
I4
I1
I-4
I0
tp1359
I1
tp1360
F-1.0
s((I0
I0
I4
I4
I4
I4
I1
I4
I4
I-9
I0
tp1361
I3
tp1362
F-1.0
s((I1
I4
I1
I1
I0
I4
I4
I1
I0
I2
I-1
tp1363
I3
tp1364
F-1.0
s((I1
I0
I4
I1
I4
I0
I4
I4
I4
I-1
I-3
tp1365
I1
tp1366
F-1.0
s((I1
I1
I4
I4
I4
I4
I1
I4
I4
I-3
I-2
tp1367
I0
tp1368
F-1.0
s((I2
I1
I4
I4
I0
I2
I1
I4
I4
I3
I1
tp1369
I0
tp1370
F-1.75
s((I1
I4
I1
I4
I4
I4
I4
I4
I4
I-6
I0
tp1371
I0
tp1372
F-1.0
s((I2
I1
I4
I4
I3
I4
I4
I3
I4
I4
I2
tp1373
I2
tp1374
F-1.0
s((I2
I4
I3
I1
I1
I4
I1
I1
I3
I-3
I1
tp1375
I2
tp1376
F-1.0
s((I1
I4
I4
I1
I1
I4
I4
I0
I4
I2
I-2
tp1377
I2
tp1378
F-1.0
s((I1
I1
I4
I4
I1
I1
I4
I1
I4
I1
I-1
tp1379
I1
tp1380
F-3.05078125
s((I2
I1
I4
I4
I0
I2
I4
I4
I4
I3
I1
tp1381
I0
tp1382
F-1.0
s((I1
I1
I1
I1
I1
I1
I1
I1
I4
I-2
I1
tp1383
I2
tp1384
F-2.3125
s((I1
I1
I4
I4
I4
I4
I0
I4
I4
I1
I-7
tp1385
I3
tp1386
F-1.0
s((I1
I1
I1
I4
I4
I1
I1
I4
I4
I-3
I-3
tp1387
I1
tp1388
F-1.0
s((I3
I4
I1
I4
I4
I4
I4
I4
I4
I-2
I1
tp1389
I1
tp1390
F-1.0
s((I1
I4
I4
I4
I1
I1
I4
I4
I4
I-2
I-2
tp1391
I1
tp1392
F-1.0
s((I1
I1
I1
I1
I1
I4
I1
I1
I0
I-1
I-1
tp1393
I3
tp1394
F-3.466064453125
s((I1
I4
I1
I4
I4
I4
I1
I4
I4
I-9
I-2
tp1395
I1
tp1396
F-1.0
s((I1
I0
I1
I4
I4
I4
I4
I4
I4
I-6
I0
tp1397
I0
tp1398
F-2.734375
s((I1
I4
I4
I4
I1
I4
I4
I4
I4
I2
I4
tp1399
I3
tp1400
F-1.75
s((I1
I4
I1
I4
I4
I4
I1
I4
I4
I-2
I-3
tp1401
I2
tp1402
F-1.0
s((I0
I1
I1
I1
I4
I0
I1
I4
I1
I4
I-8
tp1403
I2
tp1404
F-1.0
s((I1
I4
I4
I4
I1
I1
I4
I4
I4
I2
I-2
tp1405
I3
tp1406
F-1.0
s((I1
I1
I4
I1
I1
I1
I4
I0
I4
I4
I-5
tp1407
I2
tp1408
F-2.3125
s((I1
I4
I1
I4
I4
I4
I4
I4
I4
I-1
I0
tp1409
I1
tp1410
F-1.0
s((I1
I4
I1
I4
I4
I4
I4
I4
I4
I-4
I5
tp1411
I0
tp1412
F-1.0
s((I1
I4
I1
I1
I1
I4
I1
I0
I1
I1
I4
tp1413
I2
tp1414
F-1.75
s((I1
I4
I1
I1
I4
I4
I4
I4
I1
I-1
I0
tp1415
I2
tp1416
F-3.05078125
s((I0
I4
I4
I0
I0
I4
I4
I1
I4
I1
I-3
tp1417
I2
tp1418
F-1.75
s((I0
I0
I4
I4
I0
I0
I0
I4
I4
I-1
I-2
tp1419
I2
tp1420
F-1.0
s((I0
I4
I0
I0
I4
I4
I4
I4
I0
I-1
I2
tp1421
I2
tp1422
F-1.0
s((I1
I1
I4
I4
I1
I1
I4
I4
I4
I3
I4
tp1423
I1
tp1424
F-2.3125
s((I2
I1
I1
I4
I4
I4
I1
I4
I4
I0
I-3
tp1425
I3
tp1426
F-2.3125
s((I0
I0
I0
I4
I4
I4
I1
I4
I4
I-4
I-3
tp1427
I2
tp1428
F-1.0
s((I1
I4
I4
I0
I1
I4
I4
I1
I4
I3
I-1
tp1429
I3
tp1430
F-1.0
s((I1
I4
I1
I1
I4
I4
I0
I4
I1
I-2
I2
tp1431
I2
tp1432
F-2.734375
s((I1
I4
I1
I4
I4
I4
I4
I4
I0
I-2
I4
tp1433
I0
tp1434
F-1.0
s((I1
I0
I1
I1
I1
I0
I4
I1
I0
I2
I-2
tp1435
I1
tp1436
F-1.0
s((I1
I1
I4
I4
I0
I1
I4
I4
I4
I0
I-4
tp1437
I1
tp1438
F-3.05078125
s((I0
I4
I4
I4
I1
I1
I4
I4
I4
I11
I-13
tp1439
I2
tp1440
F-1.0
s((I1
I4
I4
I4
I0
I1
I4
I4
I4
I1
I-3
tp1441
I2
tp1442
F-1.0
s((I1
I4
I1
I4
I4
I4
I1
I4
I1
I-6
I-2
tp1443
I1
tp1444
F-1.0
s((I1
I1
I4
I4
I4
I1
I4
I4
I4
I4
I-3
tp1445
I3
tp1446
F-1.0
s((I1
I4
I1
I2
I2
I4
I4
I0
I4
I3
I2
tp1447
I2
tp1448
F-1.0
s((I1
I0
I4
I1
I4
I1
I4
I4
I4
I11
I-14
tp1449
I0
tp1450
F-1.0
s((I0
I4
I1
I1
I4
I4
I1
I0
I1
I-4
I0
tp1451
I1
tp1452
F-1.0
s((I1
I4
I4
I0
I4
I4
I4
I1
I4
I3
I-1
tp1453
I1
tp1454
F-1.0
s((I1
I4
I4
I1
I4
I4
I4
I4
I2
I0
I1
tp1455
I3
tp1456
F-1.0
s((I0
I1
I1
I4
I1
I1
I1
I4
I4
I-6
I-3
tp1457
I0
tp1458
F-1.0
s((I1
I4
I1
I4
I0
I4
I1
I4
I1
I0
I0
tp1459
I0
tp1460
F-1.0
s((I2
I4
I3
I1
I1
I4
I1
I1
I3
I-3
I1
tp1461
I1
tp1462
F-3.05078125
s((I0
I1
I4
I4
I4
I1
I4
I4
I4
I-2
I-3
tp1463
I0
tp1464
F-1.0
s((I2
I3
I0
I1
I1
I1
I4
I1
I4
I1
I0
tp1465
I3
tp1466
F-1.0
s((I1
I4
I1
I3
I4
I4
I4
I4
I4
I-2
I0
tp1467
I1
tp1468
F-1.0
s((I1
I1
I4
I4
I1
I4
I4
I4
I4
I3
I-2
tp1469
I3
tp1470
F-1.0
s((I1
I0
I4
I4
I4
I4
I4
I4
I4
I-2
I-2
tp1471
I0
tp1472
F-1.0
s((I1
I4
I1
I4
I0
I4
I1
I4
I1
I-8
I1
tp1473
I1
tp1474
F-2.734375
s((I1
I4
I4
I4
I0
I1
I1
I4
I4
I10
I-12
tp1475
I2
tp1476
F-1.0
s((I1
I1
I1
I0
I1
I2
I4
I1
I1
I3
I-2
tp1477
I2
tp1478
F-1.0
s((I0
I0
I4
I4
I4
I4
I0
I4
I4
I-2
I-2
tp1479
I0
tp1480
F-1.0
s((I1
I1
I3
I4
I4
I4
I1
I4
I1
I-3
I-1
tp1481
I2
tp1482
F-1.0
s((I2
I4
I1
I4
I4
I4
I4
I4
I0
I-1
I2
tp1483
I0
tp1484
F-1.0
s((I1
I0
I1
I4
I4
I4
I1
I4
I4
I1
I-5
tp1485
I3
tp1486
F-1.75
s((I3
I4
I2
I3
I4
I4
I4
I3
I4
I3
I2
tp1487
I3
tp1488
F-1.75
s((I1
I4
I1
I1
I4
I4
I2
I4
I0
I-9
I-3
tp1489
I3
tp1490
F-1.0
s((I1
I1
I1
I4
I1
I1
I1
I1
I1
I-1
I1
tp1491
I1
tp1492
F-2.3125
s((I0
I1
I4
I4
I4
I0
I4
I4
I4
I9
I-12
tp1493
I1
tp1494
F-1.0
s((I1
I1
I4
I4
I1
I1
I4
I4
I4
I5
I-7
tp1495
I2
tp1496
F-1.0
s((I2
I1
I4
I4
I2
I2
I1
I4
I4
I3
I1
tp1497
I2
tp1498
F-1.0
s((I0
I1
I4
I1
I1
I2
I4
I1
I2
I-3
I4
tp1499
I0
tp1500
F-1.75
s((I1
I1
I1
I4
I4
I4
I1
I4
I1
I-4
I2
tp1501
I1
tp1502
F-1.0
s((I1
I1
I4
I1
I1
I1
I4
I1
I4
I4
I-2
tp1503
I0
tp1504
F-2.734375
s((I0
I4
I4
I1
I4
I4
I4
I4
I4
I0
I1
tp1505
I2
tp1506
F-1.0
s((I1
I4
I1
I1
I4
I4
I4
I1
I1
I-8
I-1
tp1507
I0
tp1508
F-1.0
s((I1
I1
I4
I4
I4
I0
I1
I4
I4
I0
I-3
tp1509
I3
tp1510
F-1.0
s((I1
I1
I4
I4
I4
I4
I4
I4
I4
I11
I-11
tp1511
I0
tp1512
F-3.6996612548828125
s((I1
I4
I4
I4
I0
I4
I4
I4
I4
I0
I0
tp1513
I0
tp1514
F-1.0
s((I1
I1
I1
I4
I4
I4
I4
I4
I4
I4
I-4
tp1515
I0
tp1516
F-1.0
s((I1
I1
I1
I1
I0
I4
I1
I1
I4
I2
I-4
tp1517
I2
tp1518
F-1.75
s((I1
I4
I4
I1
I1
I4
I4
I0
I4
I1
I2
tp1519
I1
tp1520
F-2.734375
s((I2
I1
I1
I4
I0
I1
I4
I1
I4
I0
I-5
tp1521
I1
tp1522
F-1.0
s((I1
I4
I1
I1
I4
I4
I1
I1
I1
I3
I-2
tp1523
I0
tp1524
F-1.0
s((I1
I4
I4
I1
I4
I4
I4
I4
I0
I-1
I4
tp1525
I1
tp1526
F-1.0
s((I0
I4
I4
I1
I4
I4
I4
I4
I4
I2
I6
tp1527
I0
tp1528
F-1.0
s((I0
I4
I1
I4
I4
I4
I4
I4
I4
I-1
I0
tp1529
I3
tp1530
F-1.0
s((I1
I1
I1
I4
I4
I4
I1
I4
I4
I-3
I-1
tp1531
I2
tp1532
F-1.0
s((I1
I4
I1
I4
I4
I4
I4
I4
I1
I-8
I-1
tp1533
I3
tp1534
F-1.0
s((I1
I1
I0
I1
I4
I4
I4
I4
I1
I-7
I1
tp1535
I0
tp1536
F-1.75
s((I1
I0
I4
I4
I4
I1
I4
I4
I4
I1
I-2
tp1537
I2
tp1538
F-1.0
s((I0
I4
I1
I4
I0
I4
I4
I4
I4
I-1
I0
tp1539
I3
tp1540
F-1.0
s((I1
I1
I0
I0
I1
I1
I1
I1
I1
I-5
I0
tp1541
I1
tp1542
F-1.75
s((I1
I4
I1
I1
I4
I4
I4
I4
I1
I0
I2
tp1543
I2
tp1544
F-1.0
s((I1
I4
I4
I1
I4
I4
I4
I1
I4
I2
I5
tp1545
I3
tp1546
F-1.0
s((I1
I1
I4
I4
I4
I1
I1
I4
I4
I-1
I-2
tp1547
I2
tp1548
F-1.0
s((I1
I0
I2
I1
I1
I0
I1
I4
I3
I0
I2
tp1549
I2
tp1550
F-1.0
s((I1
I0
I0
I4
I4
I1
I1
I4
I4
I8
I-12
tp1551
I3
tp1552
F-1.0
s((I1
I1
I4
I4
I4
I4
I1
I4
I4
I-1
I-2
tp1553
I1
tp1554
F-1.0
s((I2
I1
I1
I1
I1
I1
I0
I1
I0
I-4
I5
tp1555
I1
tp1556
F-1.0
s((I1
I1
I1
I1
I4
I1
I1
I0
I1
I2
I-3
tp1557
I2
tp1558
F-3.6996612548828125
s((I1
I1
I1
I4
I4
I4
I1
I4
I0
I-6
I0
tp1559
I3
tp1560
F-2.3125
s((I1
I1
I4
I4
I1
I1
I1
I4
I4
I-2
I0
tp1561
I1
tp1562
F-1.0
s((I1
I1
I4
I0
I1
I1
I4
I0
I4
I0
I-4
tp1563
I1
tp1564
F-3.05078125
s((I1
I1
I0
I0
I4
I1
I4
I4
I0
I-1
I3
tp1565
I2
tp1566
F-1.0
s((I0
I1
I0
I1
I4
I4
I1
I0
I1
I0
I-1
tp1567
I3
tp1568
F-2.3125
s((I1
I1
I4
I4
I1
I1
I0
I1
I4
I1
I0
tp1569
I2
tp1570
F-1.0
s((I1
I1
I4
I4
I0
I1
I1
I4
I4
I9
I-11
tp1571
I2
tp1572
F-1.0
s((I1
I1
I1
I1
I4
I0
I1
I4
I4
I-4
I-2
tp1573
I3
tp1574
F-3.466064453125
s((I0
I1
I4
I4
I4
I4
I0
I4
I4
I1
I-3
tp1575
I0
tp1576
F-1.0
s((I1
I1
I4
I4
I1
I1
I4
I1
I4
I6
I6
tp1577
I3
tp1578
F-1.0
s((I1
I1
I1
I0
I4
I4
I1
I4
I0
I-2
I-2
tp1579
I3
tp1580
F-3.2880859375
s((I1
I1
I1
I4
I4
I1
I1
I4
I4
I2
I-5
tp1581
I3
tp1582
F-1.0
s((I1
I4
I4
I0
I1
I4
I4
I4
I4
I-2
I-2
tp1583
I1
tp1584
F-1.0
s((I0
I2
I1
I4
I4
I4
I1
I4
I4
I3
I-7
tp1585
I3
tp1586
F-1.0
s((I3
I4
I4
I3
I4
I4
I4
I3
I4
I3
I2
tp1587
I3
tp1588
F-1.0
s((I1
I4
I1
I1
I1
I4
I4
I1
I3
I-1
I4
tp1589
I2
tp1590
F-2.734375
s((I1
I4
I1
I1
I4
I4
I4
I0
I1
I-8
I2
tp1591
I2
tp1592
F-1.0
s((I1
I4
I1
I1
I1
I1
I4
I1
I3
I-3
I0
tp1593
I0
tp1594
F-1.0
s((I1
I4
I1
I0
I1
I4
I1
I1
I1
I-6
I-2
tp1595
I0
tp1596
F-1.0
s((I0
I4
I4
I4
I1
I1
I4
I3
I4
I2
I1
tp1597
I2
tp1598
F-1.0
s((I1
I1
I1
I1
I0
I4
I1
I1
I1
I2
I-4
tp1599
I3
tp1600
F-1.0
s((I1
I4
I0
I4
I4
I4
I1
I4
I4
I-9
I-4
tp1601
I0
tp1602
F-1.0
s((I1
I1
I1
I1
I1
I1
I4
I1
I4
I3
I-4
tp1603
I3
tp1604
F-2.734375
s((I1
I4
I4
I1
I1
I1
I4
I2
I4
I1
I-4
tp1605
I2
tp1606
F-1.0
s((I1
I4
I1
I1
I1
I4
I4
I0
I4
I4
I-2
tp1607
I2
tp1608
F-2.734375
s((I1
I4
I4
I1
I4
I4
I4
I1
I4
I0
I4
tp1609
I1
tp1610
F-1.0
s((I1
I4
I4
I1
I4
I4
I4
I4
I1
I-4
I6
tp1611
I1
tp1612
F-1.0
s((I1
I4
I1
I1
I1
I4
I4
I1
I0
I-5
I1
tp1613
I3
tp1614
F-2.734375
s((I1
I4
I4
I4
I0
I4
I4
I1
I4
I1
I1
tp1615
I0
tp1616
F-1.0
s((I2
I1
I1
I4
I4
I4
I1
I4
I1
I3
I-6
tp1617
I2
tp1618
F-1.0
s((I1
I4
I1
I1
I0
I4
I1
I4
I1
I-3
I1
tp1619
I0
tp1620
F-1.0
s((I1
I4
I4
I4
I1
I4
I4
I4
I4
I4
I4
tp1621
I2
tp1622
F-1.0
s((I0
I0
I4
I4
I1
I0
I4
I4
I4
I2
I-2
tp1623
I1
tp1624
F-11.0
s((I1
I1
I1
I4
I4
I1
I1
I4
I4
I3
I-3
tp1625
I2
tp1626
F-1.0
s((I1
I1
I0
I4
I4
I4
I1
I4
I4
I-1
I-1
tp1627
I1
tp1628
F-1.0
s((I1
I1
I4
I1
I4
I4
I4
I4
I1
I-7
I1
tp1629
I3
tp1630
F-1.0
s((I0
I4
I1
I0
I0
I4
I4
I1
I1
I1
I-3
tp1631
I0
tp1632
F19.0
s((I2
I4
I0
I1
I1
I4
I4
I1
I4
I1
I0
tp1633
I1
tp1634
F-1.0
s((I1
I4
I4
I0
I4
I4
I4
I4
I4
I1
I2
tp1635
I3
tp1636
F-1.0
s((I1
I4
I4
I4
I1
I1
I4
I4
I4
I5
I-4
tp1637
I1
tp1638
F-1.0
s((I0
I1
I0
I1
I1
I1
I4
I4
I4
I0
I-3
tp1639
I2
tp1640
F-1.0
s((I1
I1
I0
I0
I1
I1
I4
I1
I1
I-5
I0
tp1641
I3
tp1642
F-1.0
s((I1
I1
I4
I4
I4
I1
I4
I4
I4
I4
I3
tp1643
I1
tp1644
F-1.0
s((I1
I4
I0
I1
I4
I4
I4
I4
I1
I-1
I1
tp1645
I2
tp1646
F-3.05078125
s((I0
I4
I4
I1
I4
I4
I4
I1
I1
I-1
I3
tp1647
I2
tp1648
F-1.75
s((I1
I4
I2
I1
I4
I4
I4
I4
I1
I-3
I3
tp1649
I2
tp1650
F-1.0
s((I1
I1
I1
I4
I1
I4
I1
I1
I4
I2
I4
tp1651
I3
tp1652
F-1.75
s((I1
I4
I1
I4
I4
I4
I0
I4
I4
I-1
I0
tp1653
I0
tp1654
F-1.0
s((I0
I1
I0
I1
I4
I4
I1
I0
I4
I-1
I-5
tp1655
I0
tp1656
F-3.05078125
s((I1
I4
I1
I1
I0
I4
I1
I0
I1
I-8
I1
tp1657
I0
tp1658
F-1.0
s((I1
I4
I0
I4
I4
I4
I4
I4
I1
I-1
I1
tp1659
I1
tp1660
F-1.0
s((I1
I1
I4
I1
I1
I1
I1
I1
I4
I3
I-4
tp1661
I0
tp1662
F-1.0
s((I1
I0
I4
I4
I1
I0
I4
I1
I4
I2
I-2
tp1663
I2
tp1664
F-1.0
s((I1
I1
I1
I4
I4
I4
I1
I4
I4
I-2
I-2
tp1665
I2
tp1666
F-1.0
s((I3
I1
I4
I4
I3
I1
I4
I1
I4
I-1
I4
tp1667
I2
tp1668
F-1.0
s((I1
I0
I4
I4
I4
I4
I4
I4
I4
I11
I-10
tp1669
I2
tp1670
F-1.0
s((I1
I0
I1
I4
I1
I4
I1
I4
I4
I-1
I-1
tp1671
I2
tp1672
F-1.0
s((I1
I4
I0
I1
I1
I4
I4
I1
I1
I6
I7
tp1673
I1
tp1674
F-1.75
s((I3
I1
I4
I4
I4
I1
I4
I4
I4
I-1
I4
tp1675
I1
tp1676
F-1.0
s((I1
I4
I1
I1
I4
I4
I4
I4
I1
I-4
I0
tp1677
I2
tp1678
F-1.0
s((I0
I1
I4
I4
I4
I4
I4
I4
I4
I0
I-3
tp1679
I3
tp1680
F-1.0
s((I2
I3
I0
I1
I1
I1
I4
I1
I0
I1
I0
tp1681
I2
tp1682
F-1.75
s((I1
I4
I4
I1
I4
I4
I4
I1
I4
I1
I1
tp1683
I1
tp1684
F-1.0
s((I1
I4
I0
I4
I4
I4
I0
I4
I1
I-3
I5
tp1685
I1
tp1686
F-1.0
s((I1
I1
I1
I1
I1
I1
I1
I1
I4
I-2
I1
tp1687
I3
tp1688
F-1.75
s((I1
I1
I1
I1
I1
I4
I1
I1
I4
I0
I0
tp1689
I3
tp1690
F-1.0
s((I1
I4
I1
I0
I1
I0
I4
I4
I1
I11
I-8
tp1691
I0
tp1692
F-1.0
s((I1
I1
I4
I1
I1
I4
I4
I4
I4
I1
I0
tp1693
I1
tp1694
F-1.0
s((I1
I1
I4
I4
I1
I0
I0
I4
I4
I-6
I-2
tp1695
I0
tp1696
F-1.0
s((I1
I1
I0
I1
I4
I0
I4
I4
I1
I4
I-3
tp1697
I1
tp1698
F-1.0
s((I0
I4
I1
I4
I4
I4
I1
I4
I4
I0
I-3
tp1699
I0
tp1700
F19.0
s((I1
I4
I4
I1
I4
I4
I4
I4
I1
I-4
I-3
tp1701
I0
tp1702
F-1.0
s((I1
I4
I4
I1
I4
I4
I4
I4
I4
I0
I0
tp1703
I0
tp1704
F-1.0
s((I0
I1
I4
I1
I1
I1
I4
I4
I4
I0
I-3
tp1705
I3
tp1706
F-1.0
s((I0
I4
I4
I1
I4
I4
I4
I4
I1
I-6
I1
tp1707
I2
tp1708
F-2.3125
s((I1
I4
I4
I4
I1
I4
I4
I4
I4
I3
I-4
tp1709
I3
tp1710
F-1.0
s((I1
I0
I1
I0
I4
I1
I2
I4
I1
I0
I0
tp1711
I1
tp1712
F-1.0
s((I1
I4
I4
I1
I1
I4
I4
I1
I0
I-7
I2
tp1713
I1
tp1714
F-1.75
s((I1
I1
I4
I4
I4
I4
I4
I4
I4
I5
I-9
tp1715
I1
tp1716
F-1.0
s((I0
I4
I1
I0
I4
I4
I1
I1
I1
I-2
I-1
tp1717
I2
tp1718
F-1.0
s((I1
I0
I4
I0
I4
I4
I4
I4
I4
I2
I7
tp1719
I1
tp1720
F-1.0
s((I0
I4
I4
I4
I1
I1
I4
I4
I4
I1
I-1
tp1721
I3
tp1722
F-1.0
s((I1
I1
I4
I0
I1
I1
I4
I4
I4
I-1
I-4
tp1723
I1
tp1724
F-1.0
s((I0
I4
I1
I1
I1
I1
I1
I0
I1
I-4
I0
tp1725
I0
tp1726
F-1.0
s((I0
I4
I1
I1
I4
I4
I4
I4
I1
I-1
I0
tp1727
I2
tp1728
F-1.75
s((I1
I4
I3
I1
I4
I4
I4
I4
I2
I0
I1
tp1729
I0
tp1730
F-1.0
s((I1
I1
I1
I4
I4
I1
I4
I4
I4
I4
I-3
tp1731
I1
tp1732
F-1.0
s((I1
I4
I4
I1
I1
I4
I4
I4
I0
I-1
I4
tp1733
I2
tp1734
F-1.0
s((I1
I1
I4
I4
I1
I1
I4
I4
I4
I-1
I-4
tp1735
I2
tp1736
F-1.0
s((I0
I4
I1
I1
I4
I4
I4
I4
I0
I-1
I0
tp1737
I1
tp1738
F-1.0
s((I1
I4
I1
I1
I4
I4
I4
I4
I1
I-5
I3
tp1739
I0
tp1740
F-1.0
s((I1
I1
I4
I4
I4
I4
I4
I4
I4
I0
I-1
tp1741
I1
tp1742
F-1.75
s((I1
I4
I4
I1
I4
I4
I4
I1
I4
I4
I-2
tp1743
I0
tp1744
F-1.0
s((I1
I0
I1
I4
I4
I4
I0
I4
I1
I-1
I2
tp1745
I3
tp1746
F-1.0
s((I1
I4
I1
I1
I4
I4
I1
I4
I1
I-3
I-4
tp1747
I1
tp1748
F-1.0
s((I0
I2
I4
I4
I0
I1
I4
I1
I4
I2
I1
tp1749
I3
tp1750
F19.0
s((I1
I4
I1
I1
I4
I4
I4
I4
I1
I-4
I3
tp1751
I2
tp1752
F-1.0
s((I1
I1
I1
I1
I4
I0
I4
I4
I1
I1
I-4
tp1753
I0
tp1754
F-1.0
s((I0
I0
I1
I1
I1
I4
I1
I0
I1
I-2
I-2
tp1755
I3
tp1756
F-1.0
s((I1
I1
I4
I4
I4
I4
I4
I4
I4
I1
I-2
tp1757
I0
tp1758
F-1.0
s((I1
I4
I4
I4
I1
I4
I4
I4
I4
I5
I-2
tp1759
I1
tp1760
F-1.0
s((I1
I4
I4
I4
I1
I4
I4
I4
I4
I4
I-4
tp1761
I2
tp1762
F-1.0
s((I1
I0
I1
I4
I4
I4
I0
I4
I1
I-2
I-3
tp1763
I3
tp1764
F-1.75
s((I0
I0
I4
I4
I4
I4
I1
I4
I4
I-9
I-6
tp1765
I0
tp1766
F-1.0
s((I1
I1
I4
I4
I4
I0
I4
I4
I4
I4
I-3
tp1767
I2
tp1768
F-1.0
s((I1
I1
I4
I4
I4
I4
I1
I4
I4
I-1
I-1
tp1769
I3
tp1770
F-1.0
s((I1
I1
I4
I1
I4
I4
I4
I4
I1
I-7
I1
tp1771
I0
tp1772
F-1.75
s((I1
I4
I4
I1
I4
I4
I4
I4
I1
I-7
I1
tp1773
I0
tp1774
F-1.0
s((I2
I2
I2
I4
I0
I1
I1
I1
I4
I2
I1
tp1775
I3
tp1776
F-1.0
s((I0
I4
I4
I4
I1
I0
I4
I1
I4
I12
I-10
tp1777
I0
tp1778
F-1.0
s((I1
I4
I2
I1
I4
I4
I4
I4
I1
I-4
I1
tp1779
I2
tp1780
F-3.05078125
s((I1
I1
I4
I4
I0
I1
I4
I1
I4
I1
I1
tp1781
I0
tp1782
F-2.734375
s((I2
I1
I1
I4
I4
I4
I4
I4
I0
I-1
I2
tp1783
I1
tp1784
F-1.0
s((I0
I1
I1
I4
I4
I4
I1
I4
I4
I3
I-6
tp1785
I3
tp1786
F18.25
s((I1
I1
I4
I4
I1
I1
I4
I4
I4
I2
I-3
tp1787
I0
tp1788
F-1.0
s((I1
I0
I1
I4
I4
I4
I0
I4
I1
I-2
I-3
tp1789
I0
tp1790
F-2.3125
s((I1
I4
I1
I4
I4
I4
I1
I4
I4
I-1
I0
tp1791
I2
tp1792
F-1.0
s((I1
I1
I1
I4
I4
I4
I1
I4
I0
I-2
I3
tp1793
I3
tp1794
F-1.0
s((I1
I4
I4
I0
I1
I0
I4
I1
I4
I0
I2
tp1795
I0
tp1796
F-1.0
s((I1
I4
I1
I1
I1
I4
I4
I1
I1
I4
I-1
tp1797
I0
tp1798
F-1.0
s((I1
I1
I4
I1
I1
I4
I4
I1
I1
I-5
I1
tp1799
I3
tp1800
F-1.0
s((I1
I4
I4
I2
I4
I4
I4
I1
I1
I-1
I3
tp1801
I2
tp1802
F-3.466064453125
s((I0
I1
I4
I4
I1
I4
I4
I4
I4
I0
I-1
tp1803
I3
tp1804
F-1.0
s((I1
I1
I1
I0
I4
I4
I0
I4
I1
I0
I-2
tp1805
I3
tp1806
F-1.0
s((I1
I4
I4
I4
I1
I4
I4
I0
I4
I1
I4
tp1807
I2
tp1808
F-1.0
s((I0
I1
I4
I4
I4
I4
I4
I4
I4
I0
I-1
tp1809
I0
tp1810
F28.9375
s((I1
I1
I0
I4
I4
I4
I1
I4
I4
I1
I-6
tp1811
I2
tp1812
F-1.0
s((I0
I3
I1
I0
I1
I1
I1
I2
I1
I-1
I1
tp1813
I1
tp1814
F-1.0
s((I0
I4
I4
I0
I1
I4
I4
I2
I4
I5
I3
tp1815
I0
tp1816
F-1.0
s((I1
I1
I0
I0
I4
I1
I4
I4
I0
I-1
I3
tp1817
I3
tp1818
F-1.0
s((I0
I1
I0
I4
I1
I4
I4
I4
I4
I-5
I1
tp1819
I2
tp1820
F-1.0
s((I1
I0
I4
I1
I1
I1
I4
I0
I4
I1
I-2
tp1821
I2
tp1822
F-1.0
s((I1
I0
I4
I1
I1
I0
I4
I1
I4
I2
I-2
tp1823
I3
tp1824
F-1.0
s((I1
I4
I1
I0
I4
I4
I1
I4
I1
I-5
I-1
tp1825
I0
tp1826
F-1.0
s((I1
I1
I4
I4
I2
I1
I4
I4
I4
I1
I-3
tp1827
I0
tp1828
F-1.0
s((I1
I1
I4
I4
I1
I0
I4
I4
I4
I5
I-9
tp1829
I2
tp1830
F-1.0
s((I1
I4
I1
I1
I4
I4
I4
I4
I1
I-3
I0
tp1831
I3
tp1832
F-1.75
s((I1
I1
I0
I1
I1
I1
I1
I4
I1
I-1
I1
tp1833
I0
tp1834
F-2.734375
s((I1
I1
I4
I4
I4
I2
I4
I4
I4
I1
I-6
tp1835
I0
tp1836
F-1.0
s((I1
I0
I1
I1
I1
I4
I4
I1
I0
I-1
I2
tp1837
I1
tp1838
F-3.05078125
s((I0
I1
I1
I0
I1
I1
I1
I0
I0
I0
I-2
tp1839
I0
tp1840
F-3.466064453125
s((I1
I4
I1
I1
I4
I4
I4
I1
I4
I0
I2
tp1841
I0
tp1842
F-1.0
s((I1
I1
I1
I4
I4
I0
I1
I4
I4
I-3
I0
tp1843
I1
tp1844
F-1.0
s((I1
I0
I4
I4
I4
I4
I1
I4
I4
I-7
I-2
tp1845
I3
tp1846
F-1.0
s((I1
I4
I0
I4
I1
I4
I4
I1
I4
I1
I1
tp1847
I2
tp1848
F-1.0
s((I0
I1
I1
I1
I1
I1
I1
I4
I0
I3
I-3
tp1849
I0
tp1850
F18.25
s((I1
I4
I1
I2
I2
I4
I4
I0
I4
I3
I2
tp1851
I0
tp1852
F-1.0
s((I1
I1
I4
I4
I0
I1
I4
I4
I4
I1
I-3
tp1853
I1
tp1854
F-1.0
s((I0
I4
I4
I1
I4
I4
I4
I4
I4
I2
I8
tp1855
I0
tp1856
F-1.0
s((I2
I4
I4
I1
I1
I4
I4
I1
I4
I1
I0
tp1857
I2
tp1858
F-1.0
s((I0
I4
I4
I4
I0
I4
I4
I1
I4
I1
I-3
tp1859
I2
tp1860
F-1.0
s((I1
I4
I4
I1
I4
I4
I4
I1
I4
I-5
I2
tp1861
I2
tp1862
F-1.0
s((I1
I1
I4
I4
I1
I0
I1
I4
I4
I-1
I-3
tp1863
I0
tp1864
F-1.0
s((I1
I0
I1
I4
I4
I4
I1
I4
I4
I-4
I0
tp1865
I0
tp1866
F-1.0
s((I1
I0
I1
I4
I4
I4
I1
I4
I4
I-1
I-1
tp1867
I1
tp1868
F-1.0
s((I1
I4
I4
I0
I1
I4
I4
I1
I4
I-3
I7
tp1869
I2
tp1870
F-1.0
s((I1
I4
I1
I1
I4
I4
I4
I4
I0
I-1
I2
tp1871
I0
tp1872
F-1.0
s((I0
I4
I0
I1
I0
I1
I4
I1
I0
I0
I-3
tp1873
I3
tp1874
F-1.0
s((I0
I4
I1
I4
I4
I4
I1
I4
I4
I-7
I-1
tp1875
I2
tp1876
F-1.0
s((I1
I4
I4
I1
I1
I4
I4
I1
I4
I4
I-1
tp1877
I3
tp1878
F-1.0
s((I1
I1
I4
I0
I4
I4
I4
I4
I0
I-2
I1
tp1879
I2
tp1880
F-1.0
s((I1
I4
I0
I0
I1
I4
I4
I1
I1
I-11
I-6
tp1881
I1
tp1882
F-1.0
s((I1
I4
I4
I4
I1
I1
I4
I4
I4
I1
I-1
tp1883
I1
tp1884
F-1.0
s((I0
I1
I1
I0
I1
I1
I1
I0
I1
I0
I3
tp1885
I1
tp1886
F-1.0
s((I1
I1
I1
I1
I0
I1
I1
I0
I4
I1
I3
tp1887
I1
tp1888
F-1.0
s((I1
I4
I4
I0
I4
I4
I4
I0
I4
I2
I0
tp1889
I3
tp1890
F-1.0
s((I2
I1
I1
I1
I1
I1
I1
I4
I1
I3
I-2
tp1891
I1
tp1892
F-1.0
s((I3
I3
I1
I4
I4
I2
I1
I4
I4
I-2
I0
tp1893
I1
tp1894
F-1.0
s((I1
I1
I1
I1
I4
I4
I1
I4
I4
I-3
I-1
tp1895
I0
tp1896
F-1.0
s((I0
I4
I0
I4
I4
I4
I4
I4
I4
I-2
I0
tp1897
I3
tp1898
F19.0
s((I0
I1
I1
I0
I1
I1
I1
I1
I4
I2
I-6
tp1899
I0
tp1900
F-1.0
s((I1
I4
I1
I4
I4
I4
I0
I4
I1
I-2
I2
tp1901
I2
tp1902
F-1.0
s((I1
I1
I1
I4
I4
I1
I1
I4
I4
I3
I3
tp1903
I3
tp1904
F-3.05078125
s((I1
I4
I4
I4
I0
I4
I4
I4
I4
I9
I-11
tp1905
I0
tp1906
F-1.0
s((I0
I4
I4
I4
I0
I0
I4
I0
I4
I1
I-2
tp1907
I3
tp1908
F-1.0
s((I1
I4
I2
I1
I4
I4
I4
I4
I1
I-4
I1
tp1909
I3
tp1910
F-3.05078125
s((I1
I4
I4
I1
I4
I4
I4
I4
I4
I-6
I0
tp1911
I1
tp1912
F-1.0
s((I1
I0
I4
I4
I1
I4
I4
I4
I4
I0
I0
tp1913
I1
tp1914
F-1.75
s((I1
I4
I4
I3
I1
I4
I4
I1
I1
I0
I0
tp1915
I0
tp1916
F-1.0
s((I1
I1
I4
I4
I4
I4
I1
I4
I4
I-1
I-4
tp1917
I2
tp1918
F-1.0
s((I1
I1
I1
I4
I1
I0
I4
I4
I4
I0
I-1
tp1919
I1
tp1920
F-1.0
s((I0
I1
I1
I4
I4
I4
I1
I4
I4
I-1
I-4
tp1921
I3
tp1922
F-2.734375
s((I2
I1
I1
I1
I1
I4
I0
I1
I0
I-4
I5
tp1923
I1
tp1924
F-1.0
s((I1
I4
I1
I1
I4
I4
I4
I1
I1
I-1
I0
tp1925
I3
tp1926
F-1.0
s((I2
I4
I4
I4
I3
I4
I4
I3
I4
I4
I2
tp1927
I0
tp1928
F-1.0
s((I1
I4
I4
I1
I4
I4
I4
I0
I4
I0
I4
tp1929
I2
tp1930
F-1.0
s((I0
I4
I4
I0
I0
I4
I4
I1
I4
I2
I-1
tp1931
I0
tp1932
F-1.0
s((I1
I1
I4
I4
I1
I1
I1
I1
I4
I0
I-2
tp1933
I1
tp1934
F-1.75
s((I1
I1
I1
I4
I4
I4
I1
I4
I4
I-2
I-4
tp1935
I3
tp1936
F-1.0
s((I0
I4
I1
I4
I4
I4
I4
I4
I4
I-1
I0
tp1937
I1
tp1938
F-1.0
s((I1
I4
I4
I1
I0
I4
I4
I1
I1
I11
I-7
tp1939
I2
tp1940
F-1.0
s((I1
I4
I4
I1
I1
I4
I4
I1
I1
I-3
I1
tp1941
I2
tp1942
F-3.2880859375
s((I2
I1
I1
I4
I1
I4
I4
I0
I0
I-1
I2
tp1943
I0
tp1944
F-3.59954833984375
s((I1
I4
I0
I1
I4
I4
I4
I1
I1
I2
I3
tp1945
I1
tp1946
F-1.0
s((I1
I1
I1
I1
I4
I4
I1
I4
I4
I-3
I0
tp1947
I2
tp1948
F-1.75
s((I1
I1
I1
I4
I1
I4
I2
I4
I4
I-4
I0
tp1949
I0
tp1950
F-3.05078125
s((I0
I4
I4
I1
I1
I4
I4
I1
I0
I2
I4
tp1951
I0
tp1952
F19.0
s((I1
I1
I0
I2
I4
I4
I3
I4
I0
I-2
I1
tp1953
I1
tp1954
F-1.0
s((I1
I4
I4
I4
I1
I4
I4
I1
I4
I4
I0
tp1955
I1
tp1956
F-1.0
s((I1
I4
I1
I1
I4
I4
I4
I4
I1
I0
I1
tp1957
I2
tp1958
F-1.0
s((I1
I0
I4
I4
I4
I4
I1
I4
I4
I-1
I-1
tp1959
I3
tp1960
F-1.0
s((I1
I0
I1
I1
I0
I4
I0
I4
I1
I0
I-2
tp1961
I3
tp1962
F-1.0
s((I1
I1
I1
I4
I4
I0
I1
I4
I4
I4
I-7
tp1963
I0
tp1964
F-1.0
s((I0
I4
I4
I0
I4
I4
I4
I0
I4
I0
I2
tp1965
I3
tp1966
F-1.0
s((I1
I1
I4
I4
I4
I2
I4
I4
I4
I1
I-4
tp1967
I3
tp1968
F-1.75
s((I1
I4
I1
I1
I1
I1
I4
I0
I4
I4
I-2
tp1969
I3
tp1970
F-1.0
s((I0
I4
I0
I0
I4
I4
I4
I4
I0
I-1
I2
tp1971
I3
tp1972
F-1.0
s((I0
I0
I0
I1
I4
I4
I1
I4
I4
I-4
I-3
tp1973
I1
tp1974
F19.0
s((I0
I1
I4
I1
I1
I2
I0
I1
I4
I3
I3
tp1975
I1
tp1976
F-1.0
s((I0
I4
I4
I4
I2
I3
I4
I1
I4
I2
I0
tp1977
I2
tp1978
F-1.0
s((I1
I1
I1
I4
I4
I4
I1
I4
I1
I-8
I-2
tp1979
I1
tp1980
F-1.0
s((I1
I4
I1
I0
I4
I4
I4
I0
I4
I2
I0
tp1981
I0
tp1982
F-1.0
s((I0
I4
I1
I4
I4
I4
I4
I4
I1
I-4
I1
tp1983
I3
tp1984
F-1.0
s((I1
I4
I4
I1
I0
I1
I4
I4
I1
I1
I-3
tp1985
I3
tp1986
F-1.0
s((I1
I4
I4
I4
I4
I4
I4
I4
I4
I0
I0
tp1987
I1
tp1988
F-1.75
s((I1
I1
I1
I1
I1
I1
I1
I1
I1
I4
I-2
tp1989
I3
tp1990
F-1.75
s((I1
I4
I1
I4
I4
I4
I1
I4
I1
I0
I0
tp1991
I1
tp1992
F-1.0
s((I1
I1
I0
I4
I1
I1
I1
I1
I4
I-7
I-3
tp1993
I0
tp1994
F-2.3125
s((I1
I4
I4
I4
I1
I4
I4
I4
I4
I1
I0
tp1995
I3
tp1996
F-1.0
s((I1
I0
I1
I4
I1
I1
I1
I4
I1
I-5
I-2
tp1997
I2
tp1998
F-1.0
s((I1
I1
I4
I4
I3
I1
I4
I4
I4
I-3
I-2
tp1999
I3
tp2000
F-1.0
s((I0
I4
I4
I0
I4
I4
I4
I0
I1
I0
I3
tp2001
I1
tp2002
F-1.0
s((I0
I1
I4
I4
I1
I1
I1
I4
I4
I3
I-2
tp2003
I3
tp2004
F-1.0
s((I1
I4
I0
I4
I4
I4
I1
I4
I4
I-1
I-1
tp2005
I0
tp2006
F-1.0
s((I1
I1
I4
I4
I4
I1
I1
I4
I4
I-3
I-3
tp2007
I3
tp2008
F-1.0
s((I2
I1
I0
I4
I4
I4
I4
I4
I4
I-2
I0
tp2009
I0
tp2010
F-1.0
s((I1
I1
I1
I1
I0
I0
I1
I1
I0
I-1
I-2
tp2011
I3
tp2012
F-3.59954833984375
s((I1
I2
I0
I4
I1
I1
I0
I4
I4
I1
I-1
tp2013
I0
tp2014
F-1.0
s((I1
I4
I4
I4
I2
I1
I4
I4
I4
I1
I-5
tp2015
I1
tp2016
F-1.0
s((I1
I4
I1
I4
I4
I4
I1
I4
I2
I-3
I1
tp2017
I1
tp2018
F-1.0
s((I1
I1
I4
I4
I1
I1
I4
I1
I4
I1
I1
tp2019
I1
tp2020
F-2.734375
s((I0
I2
I4
I4
I4
I4
I1
I4
I4
I-9
I-6
tp2021
I1
tp2022
F-1.0
s((I3
I4
I4
I1
I3
I4
I4
I0
I1
I3
I1
tp2023
I0
tp2024
F-1.0
s((I1
I0
I4
I4
I4
I4
I1
I4
I4
I-2
I-3
tp2025
I1
tp2026
F-1.0
s((I1
I4
I1
I4
I4
I4
I1
I4
I4
I-5
I0
tp2027
I3
tp2028
F-1.75
s((I1
I4
I0
I4
I4
I4
I4
I4
I4
I-7
I4
tp2029
I0
tp2030
F-1.0
s((I3
I1
I1
I0
I1
I1
I4
I1
I1
I-1
I2
tp2031
I2
tp2032
F-1.0
s((I1
I4
I1
I4
I0
I4
I1
I4
I4
I-4
I-1
tp2033
I3
tp2034
F-1.0
s((I0
I4
I0
I4
I4
I1
I0
I4
I4
I2
I-1
tp2035
I1
tp2036
F-1.0
s((I1
I1
I0
I4
I1
I1
I1
I4
I4
I-1
I-1
tp2037
I3
tp2038
F-1.0
s((I1
I4
I1
I1
I1
I4
I4
I1
I1
I-2
I0
tp2039
I3
tp2040
F-1.0
s((I1
I1
I4
I4
I4
I4
I1
I4
I4
I-3
I-1
tp2041
I1
tp2042
F-1.0
s((I1
I4
I4
I4
I1
I4
I4
I4
I4
I-2
I-2
tp2043
I2
tp2044
F-1.0
s((I1
I1
I4
I4
I4
I1
I4
I4
I4
I5
I-7
tp2045
I1
tp2046
F-1.0
s((I1
I1
I4
I0
I2
I1
I4
I4
I4
I0
I2
tp2047
I0
tp2048
F-2.734375
s((I1
I4
I4
I1
I0
I4
I4
I1
I1
I-1
I5
tp2049
I0
tp2050
F-1.0
s((I0
I4
I1
I4
I4
I4
I1
I4
I1
I-6
I4
tp2051
I1
tp2052
F-1.0
s((I1
I0
I4
I1
I1
I4
I2
I0
I0
I1
I0
tp2053
I0
tp2054
F-1.0
s((I0
I1
I4
I4
I0
I1
I4
I4
I4
I-1
I-3
tp2055
I2
tp2056
F19.0
s((I1
I1
I0
I0
I4
I1
I1
I4
I0
I-1
I3
tp2057
I1
tp2058
F-1.0
s((I1
I4
I4
I1
I0
I4
I4
I1
I4
I0
I3
tp2059
I0
tp2060
F-1.0
s((I1
I1
I4
I4
I4
I1
I1
I4
I4
I-2
I2
tp2061
I2
tp2062
F-1.0
s((I1
I0
I1
I1
I1
I4
I4
I1
I0
I-1
I2
tp2063
I2
tp2064
F-2.3125
s((I1
I4
I4
I4
I1
I4
I4
I1
I4
I3
I-1
tp2065
I2
tp2066
F-1.0
s((I1
I1
I4
I4
I0
I0
I4
I4
I4
I2
I-4
tp2067
I1
tp2068
F-1.0
s((I1
I4
I1
I4
I4
I4
I4
I4
I1
I-13
I-6
tp2069
I1
tp2070
F-1.0
s((I1
I4
I0
I4
I4
I4
I0
I4
I1
I-5
I-3
tp2071
I0
tp2072
F-1.0
s((I1
I4
I4
I1
I4
I4
I4
I1
I4
I3
I0
tp2073
I3
tp2074
F-1.0
s((I1
I1
I1
I4
I4
I4
I1
I4
I4
I-1
I-1
tp2075
I0
tp2076
F-2.734375
s((I1
I1
I4
I2
I4
I4
I4
I4
I0
I-2
I1
tp2077
I3
tp2078
F-1.0
s((I1
I4
I0
I0
I4
I4
I4
I4
I1
I-5
I0
tp2079
I1
tp2080
F-1.0
s((I1
I4
I1
I1
I4
I4
I4
I4
I1
I-8
I0
tp2081
I3
tp2082
F-3.59954833984375
s((I1
I1
I1
I4
I4
I1
I1
I4
I4
I-4
I-1
tp2083
I2
tp2084
F-1.0
s((I0
I4
I4
I1
I4
I4
I4
I1
I4
I0
I1
tp2085
I3
tp2086
F-1.0
s((I0
I4
I4
I1
I0
I1
I4
I1
I4
I1
I-3
tp2087
I1
tp2088
F19.0
s((I1
I1
I4
I4
I4
I4
I4
I4
I4
I5
I-9
tp2089
I0
tp2090
F-1.0
s((I1
I1
I4
I4
I2
I1
I4
I4
I4
I1
I-5
tp2091
I2
tp2092
F-1.0
s((I0
I1
I1
I4
I4
I4
I4
I4
I4
I-1
I0
tp2093
I2
tp2094
F-1.0
s((I0
I4
I4
I4
I0
I4
I4
I4
I4
I2
I-1
tp2095
I1
tp2096
F-1.0
s((I1
I4
I1
I0
I4
I4
I1
I4
I4
I-1
I-3
tp2097
I3
tp2098
F-1.0
s((I1
I0
I1
I4
I4
I4
I0
I4
I1
I-2
I-3
tp2099
I2
tp2100
F-1.0
s((I0
I0
I4
I4
I1
I0
I4
I4
I4
I1
I-4
tp2101
I1
tp2102
F-2.3125
s((I1
I0
I4
I1
I1
I1
I4
I2
I4
I1
I-2
tp2103
I2
tp2104
F-1.75
s((I1
I1
I1
I1
I0
I4
I1
I0
I1
I-8
I1
tp2105
I1
tp2106
F-1.0
s((I1
I4
I1
I1
I4
I4
I4
I1
I1
I1
I3
tp2107
I0
tp2108
F-1.0
s((I1
I1
I1
I1
I4
I4
I0
I1
I4
I0
I-2
tp2109
I3
tp2110
F-2.3125
s((I1
I4
I4
I0
I1
I4
I4
I1
I4
I3
I-2
tp2111
I1
tp2112
F-2.3125
s((I0
I4
I4
I4
I1
I4
I4
I0
I4
I2
I2
tp2113
I2
tp2114
F-1.0
s((I0
I1
I1
I4
I1
I1
I0
I1
I1
I-5
I-1
tp2115
I2
tp2116
F-1.0
s((I1
I4
I1
I1
I1
I4
I4
I0
I0
I2
I-2
tp2117
I3
tp2118
F-2.734375
s((I0
I0
I4
I0
I0
I1
I4
I4
I4
I3
I1
tp2119
I1
tp2120
F-1.0
s((I1
I4
I1
I1
I4
I4
I4
I1
I1
I3
I-1
tp2121
I3
tp2122
F-1.75
s((I0
I1
I1
I4
I1
I0
I1
I4
I4
I8
I-11
tp2123
I3
tp2124
F-2.3125
s((I1
I4
I0
I1
I4
I4
I1
I4
I1
I-5
I5
tp2125
I3
tp2126
F-1.0
s((I1
I1
I1
I4
I4
I4
I0
I4
I0
I-1
I0
tp2127
I0
tp2128
F-3.2880859375
s((I1
I1
I1
I1
I4
I4
I2
I4
I1
I-3
I2
tp2129
I1
tp2130
F-1.0
s((I0
I1
I1
I1
I1
I1
I1
I0
I1
I-4
I0
tp2131
I1
tp2132
F-1.0
s((I1
I4
I1
I2
I2
I4
I4
I0
I4
I3
I2
tp2133
I1
tp2134
F-1.0
s((I2
I4
I1
I1
I1
I4
I4
I1
I1
I-2
I3
tp2135
I1
tp2136
F-1.0
s((I1
I4
I1
I0
I0
I4
I0
I1
I1
I8
I-10
tp2137
I2
tp2138
F-1.0
s((I0
I4
I4
I1
I4
I4
I4
I4
I4
I-4
I-1
tp2139
I0
tp2140
F-1.0
s((I0
I4
I0
I1
I1
I1
I4
I1
I0
I1
I-1
tp2141
I3
tp2142
F-1.0
s((I1
I4
I4
I1
I4
I4
I4
I0
I4
I9
I-10
tp2143
I0
tp2144
F-1.0
s((I1
I4
I1
I3
I4
I4
I4
I2
I1
I-2
I2
tp2145
I3
tp2146
F-1.0
s((I1
I4
I4
I0
I4
I4
I4
I1
I4
I2
I5
tp2147
I0
tp2148
F-1.0
s((I1
I4
I4
I1
I4
I4
I4
I1
I1
I-1
I5
tp2149
I3
tp2150
F-1.0
s((I1
I1
I4
I1
I1
I4
I4
I0
I4
I0
I-3
tp2151
I1
tp2152
F-3.2880859375
s((I0
I0
I4
I4
I1
I0
I4
I4
I4
I1
I-4
tp2153
I0
tp2154
F-1.0
s((I1
I2
I3
I4
I1
I1
I3
I4
I4
I-3
I0
tp2155
I2
tp2156
F-1.0
s((I1
I1
I4
I0
I4
I0
I1
I4
I4
I-8
I-1
tp2157
I2
tp2158
F-1.0
s((I1
I4
I4
I1
I4
I4
I4
I4
I4
I-3
I3
tp2159
I3
tp2160
F-1.0
s((I1
I1
I0
I0
I1
I1
I1
I0
I0
I-1
I-2
tp2161
I1
tp2162
F-3.05078125
s((I1
I4
I1
I0
I1
I4
I4
I1
I4
I3
I-1
tp2163
I0
tp2164
F-1.0
s((I1
I4
I4
I1
I1
I4
I4
I0
I4
I1
I4
tp2165
I3
tp2166
F-1.0
s((I1
I1
I4
I2
I1
I1
I4
I0
I1
I0
I-4
tp2167
I3
tp2168
F-1.0
s((I1
I0
I4
I4
I1
I0
I4
I4
I4
I1
I-4
tp2169
I0
tp2170
F-1.0
s((I1
I1
I1
I4
I4
I4
I0
I4
I4
I-6
I0
tp2171
I3
tp2172
F-1.0
s((I1
I4
I4
I1
I1
I4
I4
I1
I1
I-7
I0
tp2173
I2
tp2174
F-2.734375
s((I1
I1
I4
I1
I0
I1
I4
I0
I4
I2
I-3
tp2175
I3
tp2176
F-1.0
s((I1
I4
I0
I4
I4
I4
I4
I4
I4
I-12
I-7
tp2177
I0
tp2178
F-1.0
s((I1
I4
I1
I4
I4
I4
I4
I4
I4
I-2
I0
tp2179
I2
tp2180
F-1.0
s((I1
I4
I1
I1
I4
I4
I1
I4
I1
I-3
I1
tp2181
I1
tp2182
F-1.0
s((I1
I1
I1
I4
I0
I0
I1
I4
I4
I-8
I0
tp2183
I2
tp2184
F-1.0
s((I1
I4
I1
I1
I4
I4
I4
I1
I1
I-1
I0
tp2185
I2
tp2186
F-3.2880859375
s((I1
I4
I4
I1
I4
I4
I4
I0
I4
I-1
I6
tp2187
I1
tp2188
F-1.0
s((I1
I1
I4
I4
I4
I4
I4
I4
I4
I5
I-11
tp2189
I2
tp2190
F-1.0
s((I1
I4
I4
I1
I4
I4
I4
I4
I1
I-3
I0
tp2191
I3
tp2192
F-1.0
s((I1
I4
I1
I1
I0
I4
I0
I4
I1
I0
I-2
tp2193
I0
tp2194
F-1.0
s((I1
I1
I4
I1
I0
I1
I4
I0
I4
I1
I3
tp2195
I0
tp2196
F-1.0
s((I1
I4
I4
I4
I0
I1
I4
I4
I4
I5
I3
tp2197
I0
tp2198
F-1.0
s((I1
I1
I4
I1
I1
I0
I4
I1
I4
I-1
I2
tp2199
I0
tp2200
F-3.05078125
s((I1
I1
I4
I1
I4
I1
I4
I4
I4
I1
I-1
tp2201
I0
tp2202
F-1.0
s((I1
I4
I1
I0
I1
I4
I4
I1
I1
I-4
I1
tp2203
I2
tp2204
F-2.3125
s((I1
I1
I1
I1
I1
I4
I1
I1
I0
I-1
I-1
tp2205
I2
tp2206
F-3.2880859375
s((I1
I2
I4
I0
I1
I4
I4
I1
I4
I-8
I-3
tp2207
I2
tp2208
F-1.0
s((I1
I1
I4
I4
I4
I0
I1
I4
I4
I-8
I-1
tp2209
I2
tp2210
F-1.0
s((I1
I1
I1
I1
I4
I4
I1
I0
I0
I-6
I0
tp2211
I0
tp2212
F-1.75
s((I1
I1
I4
I1
I4
I0
I4
I4
I1
I4
I-3
tp2213
I3
tp2214
F-1.0
s((I1
I1
I0
I4
I4
I4
I1
I4
I4
I-7
I-3
tp2215
I3
tp2216
F-2.734375
s((I1
I4
I4
I4
I1
I4
I4
I2
I4
I4
I2
tp2217
I1
tp2218
F-1.0
s((I1
I4
I0
I1
I4
I4
I1
I4
I0
I-5
I-2
tp2219
I0
tp2220
F-1.0
s((I0
I1
I1
I4
I4
I4
I0
I4
I4
I-9
I-5
tp2221
I2
tp2222
F-1.0
s((I1
I1
I1
I0
I4
I4
I1
I4
I2
I-1
I-4
tp2223
I3
tp2224
F-1.0
s((I0
I4
I0
I1
I4
I4
I4
I4
I1
I-1
I1
tp2225
I3
tp2226
F-1.0
s((I1
I0
I1
I4
I1
I1
I1
I1
I1
I-2
I2
tp2227
I3
tp2228
F-3.831059455871582
s((I1
I4
I2
I2
I1
I4
I4
I0
I2
I1
I2
tp2229
I1
tp2230
F-1.75
s((I1
I4
I1
I1
I4
I4
I4
I4
I1
I-7
I2
tp2231
I2
tp2232
F-1.0
s((I1
I4
I4
I4
I1
I4
I4
I4
I4
I3
I2
tp2233
I0
tp2234
F-1.0
s((I0
I1
I1
I1
I4
I4
I0
I1
I4
I-4
I5
tp2235
I1
tp2236
F19.0
s((I1
I4
I1
I4
I4
I4
I0
I4
I0
I1
I7
tp2237
I3
tp2238
F-1.0
s((I1
I1
I4
I4
I4
I1
I4
I4
I4
I5
I-10
tp2239
I2
tp2240
F-1.0
s((I1
I1
I4
I4
I1
I1
I4
I1
I4
I0
I-2
tp2241
I0
tp2242
F-1.0
s((I1
I4
I4
I1
I4
I4
I4
I1
I4
I3
I-1
tp2243
I2
tp2244
F-1.0
s((I1
I4
I1
I3
I1
I4
I4
I1
I1
I0
I4
tp2245
I1
tp2246
F-3.05078125
s((I1
I1
I4
I4
I2
I1
I4
I4
I4
I1
I-3
tp2247
I2
tp2248
F-1.0
s((I1
I0
I1
I4
I1
I1
I1
I1
I4
I1
I-2
tp2249
I1
tp2250
F-2.734375
s((I1
I1
I1
I4
I4
I4
I1
I4
I1
I-2
I1
tp2251
I0
tp2252
F-1.75
s((I1
I1
I1
I1
I1
I4
I1
I0
I1
I1
I2
tp2253
I0
tp2254
F-1.0
s((I1
I4
I4
I1
I1
I4
I4
I1
I4
I4
I-4
tp2255
I2
tp2256
F-1.75
s((I1
I0
I1
I1
I4
I4
I4
I4
I0
I-1
I2
tp2257
I1
tp2258
F-1.0
s((I1
I0
I1
I1
I1
I4
I4
I1
I0
I-1
I2
tp2259
I3
tp2260
F-2.3125
s((I1
I4
I4
I1
I4
I4
I4
I4
I1
I1
I4
tp2261
I2
tp2262
F-1.0
s((I1
I1
I4
I4
I1
I0
I1
I4
I4
I2
I-5
tp2263
I0
tp2264
F-1.0
s((I1
I4
I4
I1
I1
I4
I4
I1
I4
I3
I-3
tp2265
I2
tp2266
F-1.0
s((I1
I4
I4
I2
I4
I4
I4
I3
I4
I4
I3
tp2267
I2
tp2268
F-1.0
s((I1
I1
I1
I4
I1
I1
I4
I1
I1
I0
I-1
tp2269
I2
tp2270
F-1.0
s((I1
I1
I4
I4
I4
I4
I1
I4
I4
I-4
I-3
tp2271
I0
tp2272
F-1.0
s((I2
I4
I4
I4
I3
I4
I4
I3
I4
I4
I2
tp2273
I1
tp2274
F-1.0
s((I1
I1
I1
I1
I4
I4
I4
I1
I1
I1
I3
tp2275
I3
tp2276
F-2.734375
s((I1
I1
I4
I4
I4
I4
I1
I4
I4
I-4
I-1
tp2277
I2
tp2278
F-1.0
s((I1
I1
I1
I4
I3
I1
I4
I4
I4
I-3
I-2
tp2279
I0
tp2280
F-1.0
s((I0
I1
I1
I0
I4
I4
I0
I4
I4
I-9
I-5
tp2281
I2
tp2282
F18.25
s((I1
I1
I1
I4
I0
I0
I1
I4
I4
I-8
I0
tp2283
I3
tp2284
F-1.0
s((I1
I4
I4
I4
I4
I4
I4
I4
I4
I0
I0
tp2285
I2
tp2286
F-1.75
s((I1
I4
I1
I4
I4
I4
I1
I4
I4
I0
I6
tp2287
I1
tp2288
F-1.0
s((I0
I1
I1
I4
I1
I1
I1
I4
I4
I3
I-3
tp2289
I2
tp2290
F-1.0
s((I0
I4
I0
I4
I4
I4
I4
I4
I4
I-5
I1
tp2291
I0
tp2292
F-1.0
s((I1
I1
I0
I0
I2
I1
I4
I1
I4
I3
I4
tp2293
I3
tp2294
F-1.75
s((I1
I4
I4
I1
I1
I4
I4
I2
I1
I0
I3
tp2295
I0
tp2296
F-1.0
s((I0
I4
I1
I0
I0
I4
I4
I0
I4
I0
I2
tp2297
I0
tp2298
F-1.0
s((I0
I4
I2
I1
I4
I4
I1
I4
I1
I0
I1
tp2299
I1
tp2300
F-1.0
s((I1
I1
I1
I1
I0
I1
I1
I0
I4
I1
I3
tp2301
I3
tp2302
F-1.75
s((I1
I4
I4
I1
I4
I4
I4
I4
I4
I-7
I2
tp2303
I2
tp2304
F-2.3125
s((I1
I4
I4
I4
I1
I0
I4
I4
I4
I2
I-2
tp2305
I3
tp2306
F-1.0
s((I1
I0
I4
I4
I4
I0
I4
I4
I4
I-1
I-4
tp2307
I3
tp2308
F-1.0
s((I0
I1
I4
I4
I1
I0
I4
I4
I4
I9
I-12
tp2309
I3
tp2310
F-1.0
s((I1
I1
I4
I4
I4
I1
I3
I4
I4
I-3
I-1
tp2311
I1
tp2312
F-1.0
s((I1
I1
I4
I4
I1
I1
I4
I4
I4
I1
I-1
tp2313
I2
tp2314
F-1.0
s((I0
I4
I4
I4
I1
I4
I4
I4
I4
I3
I2
tp2315
I1
tp2316
F-1.0
s((I1
I0
I1
I4
I4
I4
I1
I4
I4
I4
I-9
tp2317
I3
tp2318
F-1.0
s((I0
I0
I0
I1
I4
I4
I0
I4
I1
I-1
I1
tp2319
I0
tp2320
F-1.75
s((I1
I0
I1
I0
I4
I4
I4
I0
I4
I2
I0
tp2321
I0
tp2322
F-3.7747459411621094
s((I1
I1
I1
I1
I1
I1
I1
I1
I1
I-4
I0
tp2323
I0
tp2324
F-3.466064453125
s((I1
I1
I4
I1
I1
I1
I1
I1
I4
I0
I-1
tp2325
I0
tp2326
F-1.0
s((I1
I3
I4
I4
I4
I1
I1
I4
I4
I1
I-1
tp2327
I1
tp2328
F-1.0
s((I1
I1
I1
I1
I4
I4
I1
I0
I4
I0
I1
tp2329
I3
tp2330
F-3.05078125
s((I0
I1
I1
I4
I1
I1
I1
I4
I4
I3
I-3
tp2331
I1
tp2332
F-1.0
s((I1
I1
I1
I1
I4
I4
I1
I1
I1
I3
I-2
tp2333
I3
tp2334
F-2.734375
s((I1
I4
I4
I4
I1
I4
I4
I0
I4
I10
I-8
tp2335
I0
tp2336
F-1.0
s((I1
I1
I4
I4
I4
I4
I4
I4
I4
I3
I-5
tp2337
I0
tp2338
F-2.3125
s((I1
I4
I1
I4
I4
I4
I0
I4
I4
I0
I-2
tp2339
I1
tp2340
F-1.0
s((I1
I4
I1
I1
I4
I4
I4
I4
I1
I-6
I1
tp2341
I1
tp2342
F-1.0
s((I1
I1
I1
I1
I4
I4
I0
I1
I4
I0
I-2
tp2343
I0
tp2344
F-1.75
s((I1
I1
I4
I4
I4
I0
I4
I4
I4
I-2
I-3
tp2345
I1
tp2346
F-1.0
s((I1
I0
I4
I4
I4
I4
I0
I4
I4
I-4
I-4
tp2347
I0
tp2348
F-1.0
s((I0
I4
I0
I4
I4
I4
I4
I4
I4
I-2
I-1
tp2349
I0
tp2350
F-1.0
s((I0
I4
I4
I1
I4
I4
I4
I4
I1
I-6
I7
tp2351
I3
tp2352
F-1.0
s((I0
I1
I1
I4
I4
I1
I1
I4
I4
I2
I-6
tp2353
I1
tp2354
F-1.0
s((I1
I0
I0
I4
I1
I0
I0
I4
I4
I0
I-4
tp2355
I0
tp2356
F-1.0
s((I0
I1
I0
I1
I4
I4
I1
I0
I1
I0
I-1
tp2357
I2
tp2358
F-1.0
s((I1
I1
I1
I1
I2
I1
I2
I4
I1
I4
I-6
tp2359
I1
tp2360
F-1.75
s((I1
I1
I0
I0
I1
I1
I1
I4
I0
I-1
I3
tp2361
I3
tp2362
F-1.75
s((I1
I1
I4
I4
I1
I1
I1
I4
I4
I2
I1
tp2363
I0
tp2364
F-3.05078125
s((I0
I4
I1
I0
I4
I4
I4
I4
I0
I-2
I0
tp2365
I2
tp2366
F-1.0
s((I1
I0
I4
I1
I1
I0
I4
I1
I4
I-1
I-3
tp2367
I3
tp2368
F-1.0
s((I1
I0
I4
I0
I2
I1
I4
I1
I4
I-3
I5
tp2369
I1
tp2370
F-1.0
s((I1
I1
I1
I3
I4
I1
I1
I4
I1
I-4
I-1
tp2371
I3
tp2372
F-1.75
s((I0
I4
I4
I4
I1
I4
I4
I4
I4
I2
I1
tp2373
I1
tp2374
F-3.466064453125
s((I1
I4
I1
I4
I4
I4
I4
I4
I1
I-3
I1
tp2375
I2
tp2376
F-1.0
s((I0
I1
I4
I1
I4
I4
I4
I4
I4
I2
I8
tp2377
I2
tp2378
F-1.0
s((I1
I4
I1
I4
I4
I4
I0
I4
I4
I-1
I0
tp2379
I3
tp2380
F-1.0
s((I1
I1
I1
I4
I4
I4
I1
I4
I1
I1
I-5
tp2381
I0
tp2382
F-1.0
s((I1
I0
I4
I1
I4
I4
I4
I4
I4
I11
I-10
tp2383
I2
tp2384
F-3.59954833984375
s((I1
I1
I1
I4
I4
I4
I1
I4
I4
I-1
I-1
tp2385
I2
tp2386
F-1.0
s((I1
I4
I1
I4
I1
I1
I4
I4
I4
I7
I6
tp2387
I3
tp2388
F-2.734375
s((I1
I4
I1
I4
I4
I4
I4
I4
I1
I-7
I1
tp2389
I2
tp2390
F-1.0
s((I1
I4
I4
I4
I1
I4
I4
I1
I4
I1
I1
tp2391
I3
tp2392
F-1.0
s((I1
I1
I1
I4
I1
I4
I0
I1
I4
I2
I2
tp2393
I2
tp2394
F-1.0
s((I1
I1
I1
I4
I4
I4
I1
I4
I0
I-2
I-4
tp2395
I0
tp2396
F-1.0
s((I0
I4
I4
I4
I1
I1
I4
I1
I4
I5
I-5
tp2397
I1
tp2398
F19.0
s((I1
I0
I0
I4
I1
I0
I0
I4
I4
I0
I-4
tp2399
I3
tp2400
F-3.2880859375
s((I1
I1
I1
I4
I1
I1
I0
I1
I4
I6
I6
tp2401
I0
tp2402
F-1.75
s((I0
I4
I1
I4
I4
I4
I1
I4
I4
I3
I-6
tp2403
I0
tp2404
F-1.0
s((I1
I4
I4
I4
I1
I1
I4
I4
I4
I2
I-4
tp2405
I3
tp2406
F-1.0
s((I0
I1
I4
I4
I4
I4
I4
I4
I4
I-8
I-2
tp2407
I0
tp2408
F19.0
s((I1
I4
I3
I4
I4
I4
I1
I4
I4
I-3
I4
tp2409
I2
tp2410
F-1.0
s((I1
I0
I4
I4
I4
I1
I4
I4
I4
I-8
I-5
tp2411
I1
tp2412
F-1.0
s((I1
I1
I1
I4
I4
I4
I0
I4
I4
I-4
I-3
tp2413
I1
tp2414
F-1.0
s((I1
I1
I4
I4
I4
I1
I4
I4
I4
I1
I-1
tp2415
I2
tp2416
F-1.0
s((I0
I4
I4
I1
I1
I4
I4
I1
I4
I0
I1
tp2417
I0
tp2418
F-11.0
s((I1
I1
I4
I4
I4
I4
I1
I4
I4
I0
I-2
tp2419
I2
tp2420
F-1.0
s((I1
I4
I4
I0
I4
I4
I4
I4
I4
I1
I4
tp2421
I2
tp2422
F-1.0
s((I0
I4
I1
I4
I4
I4
I4
I4
I4
I-9
I1
tp2423
I3
tp2424
F-2.3125
s((I1
I4
I4
I4
I2
I4
I4
I3
I4
I2
I2
tp2425
I0
tp2426
F-1.0
s((I1
I1
I0
I1
I0
I4
I1
I1
I4
I-6
I-1
tp2427
I0
tp2428
F-1.0
s((I1
I1
I4
I4
I1
I1
I4
I4
I4
I3
I-2
tp2429
I0
tp2430
F-1.0
s((I1
I4
I1
I4
I4
I4
I1
I4
I4
I2
I-4
tp2431
I1
tp2432
F-1.0
s((I1
I1
I1
I1
I1
I4
I4
I1
I1
I3
I-2
tp2433
I0
tp2434
F-1.0
s((I1
I4
I4
I1
I4
I4
I4
I4
I4
I2
I6
tp2435
I2
tp2436
F-1.0
s((I0
I4
I4
I1
I0
I1
I4
I1
I4
I0
I-3
tp2437
I3
tp2438
F-1.0
s((I0
I4
I4
I1
I4
I4
I4
I4
I4
I9
I-9
tp2439
I0
tp2440
F-1.0
s((I1
I1
I4
I4
I0
I1
I4
I4
I4
I4
I-6
tp2441
I1
tp2442
F-1.0
s((I1
I1
I4
I4
I4
I4
I4
I4
I4
I4
I-6
tp2443
I1
tp2444
F-1.0
s((I1
I1
I1
I4
I4
I0
I1
I4
I4
I4
I-7
tp2445
I3
tp2446
F-3.05078125
s((I0
I1
I4
I4
I4
I4
I1
I4
I4
I-2
I-3
tp2447
I3
tp2448
F-1.0
s((I1
I4
I4
I0
I1
I4
I4
I1
I4
I4
I1
tp2449
I1
tp2450
F-3.9465461559593678
s((I1
I1
I1
I4
I1
I1
I0
I4
I4
I-7
I0
tp2451
I0
tp2452
F-1.0
s((I1
I1
I4
I4
I1
I4
I4
I4
I4
I1
I0
tp2453
I2
tp2454
F-1.0
s((I1
I4
I4
I1
I4
I4
I4
I4
I4
I0
I1
tp2455
I3
tp2456
F-1.75
s((I1
I4
I1
I4
I4
I4
I1
I4
I4
I-2
I-2
tp2457
I0
tp2458
F-1.0
s((I3
I1
I4
I4
I1
I1
I4
I4
I4
I0
I-1
tp2459
I0
tp2460
F-2.3125
s((I1
I0
I1
I2
I2
I4
I4
I0
I4
I3
I2
tp2461
I1
tp2462
F-1.0
s((I1
I1
I4
I1
I1
I1
I4
I1
I4
I5
I-2
tp2463
I0
tp2464
F-1.0
s((I1
I1
I4
I1
I2
I1
I4
I4
I4
I1
I-5
tp2465
I1
tp2466
F-1.0
s((I1
I0
I4
I4
I4
I4
I1
I4
I4
I-1
I5
tp2467
I1
tp2468
F-1.0
s((I1
I1
I4
I4
I1
I4
I4
I0
I4
I0
I-3
tp2469
I2
tp2470
F-1.0
s((I1
I4
I1
I4
I4
I4
I1
I4
I4
I-1
I-1
tp2471
I0
tp2472
F-1.0
s((I1
I1
I4
I4
I0
I1
I4
I4
I4
I4
I-2
tp2473
I2
tp2474
F-1.0
s((I1
I4
I1
I1
I0
I4
I0
I4
I1
I0
I-2
tp2475
I1
tp2476
F-1.0
s((I1
I4
I1
I4
I4
I4
I1
I4
I1
I-4
I2
tp2477
I0
tp2478
F-1.0
s((I0
I0
I4
I4
I1
I1
I1
I4
I4
I2
I-7
tp2479
I0
tp2480
F-1.0
s((I1
I1
I4
I0
I4
I4
I1
I4
I0
I-1
I-4
tp2481
I3
tp2482
F-1.0
s((I1
I4
I1
I0
I1
I4
I4
I1
I1
I0
I4
tp2483
I3
tp2484
F-2.3125
s((I1
I1
I1
I1
I1
I1
I1
I1
I4
I0
I-1
tp2485
I2
tp2486
F-1.0
s((I1
I4
I4
I1
I1
I4
I4
I1
I1
I-7
I0
tp2487
I1
tp2488
F-3.466064453125
s((I0
I4
I4
I1
I4
I4
I4
I1
I2
I1
I3
tp2489
I0
tp2490
F-1.0
s((I0
I4
I4
I1
I1
I1
I4
I1
I4
I5
I-3
tp2491
I1
tp2492
F-1.0
s((I1
I4
I1
I1
I1
I4
I4
I1
I3
I-3
I0
tp2493
I1
tp2494
F-1.75
s((I1
I4
I1
I4
I4
I4
I4
I4
I4
I-10
I-2
tp2495
I2
tp2496
F-1.0
s((I1
I4
I4
I4
I0
I4
I4
I0
I4
I1
I2
tp2497
I1
tp2498
F-1.0
s((I1
I4
I4
I4
I1
I0
I4
I4
I4
I0
I-4
tp2499
I0
tp2500
F-1.0
s((I1
I1
I1
I1
I4
I4
I1
I1
I1
I3
I-2
tp2501
I0
tp2502
F-2.734375
s((I1
I1
I4
I1
I4
I4
I4
I1
I4
I1
I1
tp2503
I2
tp2504
F-1.0
s((I0
I4
I1
I4
I4
I4
I4
I4
I4
I-5
I-1
tp2505
I3
tp2506
F-1.0
s((I1
I4
I2
I4
I4
I4
I4
I4
I4
I-4
I1
tp2507
I3
tp2508
F-1.0
s((I1
I4
I4
I4
I1
I1
I4
I4
I4
I4
I-2
tp2509
I2
tp2510
F-1.0
s((I1
I1
I4
I0
I0
I1
I1
I1
I4
I4
I-3
tp2511
I0
tp2512
F-2.3125
s((I1
I1
I1
I4
I4
I1
I1
I4
I4
I-3
I-3
tp2513
I0
tp2514
F-1.0
s((I1
I1
I4
I2
I4
I4
I4
I4
I0
I-2
I1
tp2515
I0
tp2516
F-3.05078125
s((I1
I2
I1
I4
I4
I4
I1
I4
I4
I-4
I0
tp2517
I2
tp2518
F-1.0
s((I1
I1
I3
I1
I4
I1
I2
I4
I2
I0
I1
tp2519
I2
tp2520
F-1.0
s((I0
I1
I1
I0
I1
I1
I1
I0
I1
I0
I3
tp2521
I0
tp2522
F-11.0
s((I1
I1
I1
I4
I4
I4
I2
I4
I4
I-4
I0
tp2523
I1
tp2524
F-1.0
s((I1
I4
I0
I4
I1
I4
I4
I1
I4
I2
I2
tp2525
I2
tp2526
F-1.0
s((I1
I1
I1
I2
I1
I1
I4
I0
I1
I0
I-4
tp2527
I0
tp2528
F-1.0
s((I1
I1
I0
I1
I1
I1
I4
I0
I4
I4
I-5
tp2529
I3
tp2530
F-1.0
s((I1
I1
I4
I1
I4
I4
I4
I1
I4
I4
I-2
tp2531
I0
tp2532
F-1.75
s((I1
I4
I1
I4
I4
I4
I4
I4
I1
I-2
I4
tp2533
I3
tp2534
F-1.0
s((I1
I1
I1
I1
I1
I1
I3
I4
I1
I-3
I-2
tp2535
I0
tp2536
F-1.75
s((I0
I1
I0
I4
I4
I4
I4
I4
I4
I-1
I-5
tp2537
I0
tp2538
F-1.0
s((I1
I1
I0
I0
I1
I1
I1
I0
I0
I-1
I-2
tp2539
I3
tp2540
F-3.59954833984375
s((I1
I1
I1
I4
I4
I3
I0
I4
I0
I-1
I0
tp2541
I1
tp2542
F-1.0
s((I0
I0
I4
I4
I1
I0
I4
I4
I4
I1
I-4
tp2543
I3
tp2544
F-1.0
s((I1
I1
I0
I0
I0
I1
I4
I1
I4
I3
I4
tp2545
I1
tp2546
F-1.0
s((I1
I1
I4
I1
I0
I4
I4
I1
I4
I0
I3
tp2547
I1
tp2548
F-3.05078125
s((I1
I4
I4
I4
I1
I4
I4
I4
I4
I8
I6
tp2549
I0
tp2550
F-1.0
s((I1
I1
I1
I4
I4
I0
I1
I4
I4
I-4
I-2
tp2551
I2
tp2552
F-1.0
s((I1
I1
I4
I4
I4
I4
I1
I4
I4
I0
I-3
tp2553
I1
tp2554
F-1.75
s((I2
I4
I1
I1
I4
I4
I1
I4
I1
I-4
I1
tp2555
I2
tp2556
F-1.0
s((I1
I4
I4
I1
I4
I4
I4
I4
I4
I5
I7
tp2557
I3
tp2558
F-1.0
s((I1
I4
I4
I4
I1
I0
I4
I4
I4
I-9
I-4
tp2559
I3
tp2560
F-1.0
s((I1
I4
I4
I0
I1
I4
I4
I1
I4
I3
I-2
tp2561
I0
tp2562
F-1.75
s((I1
I4
I4
I1
I4
I4
I4
I4
I4
I2
I5
tp2563
I0
tp2564
F-1.0
s((I1
I1
I0
I0
I1
I1
I4
I4
I1
I-5
I0
tp2565
I2
tp2566
F-1.0
s((I1
I4
I0
I4
I3
I4
I4
I4
I1
I-1
I1
tp2567
I0
tp2568
F-1.0
s((I1
I0
I1
I1
I1
I0
I4
I1
I0
I2
I-2
tp2569
I0
tp2570
F-1.0
s((I1
I4
I2
I2
I1
I4
I4
I0
I2
I1
I2
tp2571
I0
tp2572
F-1.0
s((I1
I1
I1
I4
I4
I4
I0
I4
I4
I0
I-2
tp2573
I2
tp2574
F-1.0
s((I1
I4
I4
I1
I1
I4
I4
I1
I4
I-6
I2
tp2575
I1
tp2576
F-1.0
s((I2
I4
I3
I4
I4
I4
I4
I4
I4
I-3
I1
tp2577
I1
tp2578
F-1.0
s((I1
I4
I4
I4
I1
I4
I4
I0
I4
I1
I0
tp2579
I0
tp2580
F-1.0
s((I3
I4
I4
I4
I1
I4
I4
I4
I4
I1
I0
tp2581
I0
tp2582
F-1.0
s.