(dp0
((I0
I4
I4
I0
I0
tp1
I0
tp2
F55.11835797623038
s((I1
I1
I3
I4
I1
tp3
I0
tp4
F71.72623386014811
s((I2
I2
I2
I4
I1
tp5
I1
tp6
F51.07370778073109
s((I1
I4
I1
I4
I4
tp7
I3
tp8
F61.268372714837284
s((I2
I4
I1
I4
I2
tp9
I1
tp10
F-3.709875
s((I1
I3
I4
I3
I1
tp11
I3
tp12
F117.7060679288306
s((I1
I3
I4
I0
I1
tp13
I0
tp14
F38.47313162834061
s((I2
I1
I4
I0
I1
tp15
I2
tp16
F-1.95
s((I1
I3
I1
I4
I4
tp17
I3
tp18
F33.08634328359483
s((I1
I1
I0
I1
I0
tp19
I0
tp20
F68.54437350236638
s((I3
I4
I1
I1
I4
tp21
I1
tp22
F57.23305514888786
s((I3
I1
I1
I3
I4
tp23
I3
tp24
F22.32678586331382
s((I1
I0
I1
I1
I1
tp25
I3
tp26
F58.32722414494727
s((I1
I1
I1
I0
I3
tp27
I2
tp28
F-1.0
s((I1
I1
I0
I4
I0
tp29
I0
tp30
F33.85566771523109
s((I2
I4
I0
I1
I4
tp31
I3
tp32
F-1.0
s((I0
I4
I4
I3
I4
tp33
I1
tp34
F-6.649259369703225
s((I3
I1
I4
I4
I2
tp35
I3
tp36
F-1.0
s((I1
I4
I3
I1
I4
tp37
I1
tp38
F68.578253770848
s((I0
I4
I1
I4
I4
tp39
I1
tp40
F54.1493410823056
s((I1
I1
I3
I4
I2
tp41
I0
tp42
F16.289928029558688
s((I1
I4
I3
I0
I4
tp43
I3
tp44
F4.920586596355788
s((I1
I1
I1
I1
I4
tp45
I3
tp46
F58.97863900366202
s((I0
I4
I0
I0
I4
tp47
I3
tp48
F19.0
s((I1
I1
I4
I1
I3
tp49
I1
tp50
F-1.0
s((I1
I1
I1
I3
I1
tp51
I3
tp52
F45.6517854604181
s((I1
I3
I2
I1
I1
tp53
I1
tp54
F15.685601693841466
s((I1
I4
I1
I3
I1
tp55
I0
tp56
F47.27040607748961
s((I1
I1
I4
I4
I2
tp57
I0
tp58
F39.601469953123654
s((I2
I4
I1
I0
I4
tp59
I0
tp60
F10.256870921874997
s((I2
I2
I2
I1
I0
tp61
I1
tp62
F-1.0
s((I2
I2
I1
I2
I2
tp63
I3
tp64
F-1.0
s((I1
I1
I4
I3
I1
tp65
I2
tp66
F-1.443967044654092
s((I3
I1
I1
I2
I1
tp67
I3
tp68
F-1.0
s((I1
I0
I1
I2
I4
tp69
I1
tp70
F32.361644454364686
s((I0
I4
I3
I1
I4
tp71
I3
tp72
F-12.8525
s((I2
I2
I4
I4
I4
tp73
I2
tp74
F11.76574375
s((I0
I4
I1
I0
I4
tp75
I2
tp76
F-11.0
s((I2
I4
I4
I0
I1
tp77
I2
tp78
F-1.0
s((I1
I1
I4
I0
I1
tp79
I2
tp80
F61.297952788303014
s((I3
I4
I4
I1
I1
tp81
I0
tp82
F61.496851273174464
s((I2
I4
I3
I2
I4
tp83
I3
tp84
F-1.95
s((I2
I4
I4
I2
I4
tp85
I2
tp86
F-1.0
s((I1
I1
I4
I4
I1
tp87
I0
tp88
F63.13540947753897
s((I3
I1
I1
I4
I4
tp89
I3
tp90
F-1.0
s((I3
I4
I1
I1
I0
tp91
I3
tp92
F58.32722414494727
s((I1
I1
I4
I2
I1
tp93
I2
tp94
F-1.95
s((I3
I4
I4
I3
I4
tp95
I0
tp96
F15.197500000000002
s((I1
I4
I2
I0
I4
tp97
I3
tp98
F-1.95
s((I3
I1
I4
I4
I4
tp99
I0
tp100
F59.970623502366394
s((I1
I1
I0
I4
I4
tp101
I0
tp102
F49.6774710563836
s((I1
I3
I0
I1
I2
tp103
I0
tp104
F-1.95
s((I1
I0
I1
I3
I1
tp105
I1
tp106
F70.048058409792
s((I1
I1
I1
I1
I2
tp107
I2
tp108
F13.901321609149392
s((I1
I3
I4
I3
I4
tp109
I2
tp110
F12.472637195148128
s((I1
I2
I4
I4
I1
tp111
I2
tp112
F58.54266062957122
s((I2
I4
I4
I1
I4
tp113
I2
tp114
F-1.0
s((I1
I1
I4
I1
I3
tp115
I3
tp116
F-0.5883187319599021
s((I1
I0
I3
I4
I4
tp117
I0
tp118
F20.044448028098795
s((I2
I4
I4
I3
I1
tp119
I2
tp120
F-1.95
s((I1
I4
I4
I0
I3
tp121
I3
tp122
F72.70867389888787
s((I3
I1
I1
I2
I4
tp123
I0
tp124
F81.63571618852977
s((I1
I4
I0
I1
I2
tp125
I2
tp126
F3.3507406302967757
s((I1
I4
I1
I2
I0
tp127
I0
tp128
F56.25043232569396
s((I3
I0
I1
I4
I0
tp129
I3
tp130
F55.45034500240787
s((I0
I4
I4
I1
I4
tp131
I0
tp132
F60.048058409792006
s((I3
I1
I1
I0
I1
tp133
I0
tp134
F-9.733158334409895
s((I1
I0
I4
I1
I4
tp135
I3
tp136
F54.82203310235945
s((I0
I1
I0
I1
I3
tp137
I1
tp138
F18.05
s((I3
I4
I4
I1
I3
tp139
I0
tp140
F-1.0
s((I1
I4
I2
I1
I4
tp141
I0
tp142
F63.13540947753896
s((I3
I0
I0
I1
I4
tp143
I2
tp144
F11.31840862578125
s((I1
I1
I3
I3
I2
tp145
I1
tp146
F13.437625
s((I2
I0
I4
I4
I1
tp147
I3
tp148
F65.06416185871426
s((I1
I4
I4
I1
I3
tp149
I0
tp150
F68.578253770848
s((I1
I4
I4
I1
I2
tp151
I1
tp152
F-1.95
s((I3
I1
I4
I1
I0
tp153
I1
tp154
F44.149969440840586
s((I1
I4
I1
I4
I1
tp155
I2
tp156
F77.58807778830302
s((I3
I1
I4
I1
I1
tp157
I0
tp158
F76.55393037910328
s((I3
I4
I1
I4
I0
tp159
I3
tp160
F21.67248905437999
s((I1
I4
I0
I1
I4
tp161
I3
tp162
F76.41730001276622
s((I2
I4
I0
I4
I4
tp163
I0
tp164
F4.412625
s((I1
I1
I0
I4
I1
tp165
I3
tp166
F38.47313162834061
s((I3
I4
I4
I1
I4
tp167
I2
tp168
F61.297952788303014
s((I2
I4
I4
I4
I2
tp169
I2
tp170
F-1.0
s((I2
I2
I1
I1
I1
tp171
I3
tp172
F44.1440212721098
s((I0
I1
I0
I1
I1
tp173
I0
tp174
F88.02245459624002
s((I3
I4
I1
I4
I0
tp175
I2
tp176
F7.306826006992182
s((I1
I3
I1
I1
I4
tp177
I3
tp178
F42.36919618739719
s((I3
I1
I4
I1
I4
tp179
I2
tp180
F59.48609928405897
s((I2
I0
I2
I4
I1
tp181
I0
tp182
F-1.0
s((I1
I4
I0
I3
I1
tp183
I3
tp184
F53.37140239144347
s((I3
I1
I3
I1
I0
tp185
I2
tp186
F7.235154547656251
s((I3
I2
I3
I4
I4
tp187
I0
tp188
F-1.0
s((I1
I4
I3
I3
I4
tp189
I2
tp190
F-9.192798246747259
s((I2
I1
I0
I0
I1
tp191
I3
tp192
F-1.0
s((I1
I4
I4
I4
I3
tp193
I1
tp194
F-1.0
s((I1
I4
I4
I4
I0
tp195
I2
tp196
F64.1493410823056
s((I2
I4
I4
I4
I1
tp197
I2
tp198
F73.55774516337013
s((I1
I1
I1
I4
I4
tp199
I3
tp200
F61.407297694487994
s((I1
I1
I4
I3
I4
tp201
I3
tp202
F18.126731168356095
s((I0
I0
I4
I4
I4
tp203
I3
tp204
F50.4341462721098
s((I1
I4
I4
I1
I1
tp205
I0
tp206
F62.78292605878367
s((I1
I1
I1
I2
I3
tp207
I0
tp208
F34.24653308177266
s((I0
I1
I1
I1
I0
tp209
I0
tp210
F42.06900925944446
s((I1
I1
I2
I4
I4
tp211
I0
tp212
F62.05823103178103
s((I2
I1
I1
I4
I2
tp213
I1
tp214
F-1.0
s((I1
I1
I0
I1
I2
tp215
I1
tp216
F-1.95
s((I2
I1
I1
I4
I1
tp217
I2
tp218
F66.96530091713123
s((I0
I1
I1
I4
I4
tp219
I0
tp220
F19.0
s((I0
I4
I4
I4
I1
tp221
I0
tp222
F54.1493410823056
s((I0
I4
I1
I2
I4
tp223
I3
tp224
F22.183203598781937
s((I2
I0
I4
I1
I4
tp225
I0
tp226
F-1.0
s((I1
I0
I4
I4
I4
tp227
I0
tp228
F65.57679240874002
s((I2
I4
I4
I2
I1
tp229
I3
tp230
F62.86591485684286
s((I1
I1
I4
I1
I0
tp231
I0
tp232
F54.56071618852978
s((I1
I1
I4
I1
I0
tp233
I3
tp234
F64.1493410823056
s((I0
I4
I0
I1
I3
tp235
I0
tp236
F84.1493410823056
s((I2
I1
I0
I2
I0
tp237
I0
tp238
F12.206255528691921
s((I0
I4
I0
I4
I4
tp239
I0
tp240
F37.05
s((I3
I0
I1
I0
I4
tp241
I3
tp242
F52.977634120064124
s((I3
I1
I1
I1
I2
tp243
I2
tp244
F-1.0
s((I2
I2
I4
I1
I1
tp245
I1
tp246
F54.72521160381648
s((I1
I4
I4
I0
I4
tp247
I0
tp248
F55.23409486898048
s((I1
I1
I3
I4
I0
tp249
I1
tp250
F28.957496106299825
s((I1
I1
I1
I4
I3
tp251
I2
tp252
F58.658117477701566
s((I1
I4
I1
I0
I4
tp253
I0
tp254
F67.75283227187128
s((I1
I4
I4
I4
I1
tp255
I1
tp256
F-1.0
s((I0
I3
I4
I4
I4
tp257
I3
tp258
F34.1440212721098
s((I0
I4
I4
I4
I1
tp259
I2
tp260
F19.0
s((I2
I4
I2
I1
I4
tp261
I3
tp262
F-4.524381249999999
s((I0
I3
I1
I4
I4
tp263
I1
tp264
F47.11464470409542
s((I1
I1
I1
I3
I4
tp265
I3
tp266
F68.578253770848
s((I3
I1
I2
I1
I1
tp267
I0
tp268
F-1.95
s((I1
I3
I4
I1
I2
tp269
I1
tp270
F-1.0
s((I2
I1
I4
I1
I1
tp271
I0
tp272
F71.6357418489699
s((I1
I1
I0
I1
I3
tp273
I2
tp274
F76.96504968950455
s((I1
I3
I4
I4
I4
tp275
I0
tp276
F61.297952788303014
s((I1
I1
I1
I1
I0
tp277
I3
tp278
F58.97863900366202
s((I2
I0
I1
I4
I4
tp279
I2
tp280
F7.235154547656249
s((I3
I4
I4
I4
I1
tp281
I0
tp282
F65.91072421550872
s((I1
I4
I1
I0
I1
tp283
I2
tp284
F52.14754131044175
s((I1
I1
I2
I3
I4
tp285
I2
tp286
F-6.731591374218749
s((I1
I4
I2
I4
I4
tp287
I1
tp288
F50.71407175944446
s((I1
I1
I1
I4
I0
tp289
I2
tp290
F64.1493410823056
s((I1
I1
I4
I4
I4
tp291
I3
tp292
F71.6357418489699
s((I1
I1
I0
I4
I2
tp293
I3
tp294
F66.07153334023107
s((I1
I1
I4
I1
I2
tp295
I0
tp296
F65.1530898063836
s((I1
I1
I1
I1
I1
tp297
I3
tp298
F61.268372714837284
s((I1
I0
I3
I1
I1
tp299
I3
tp300
F3.3507406302967757
s((I1
I4
I1
I3
I0
tp301
I1
tp302
F38.47313162834061
s((I1
I1
I1
I0
I4
tp303
I2
tp304
F37.694557441626294
s((I1
I1
I1
I2
I4
tp305
I2
tp306
F94.47458767469057
s((I0
I1
I4
I4
I1
tp307
I2
tp308
F43.45639307510277
s((I1
I1
I4
I1
I4
tp309
I2
tp310
F58.97863900366202
s((I1
I1
I3
I4
I4
tp311
I2
tp312
F65.7755455932311
s((I1
I1
I1
I2
I2
tp313
I0
tp314
F35.21889578539273
s((I3
I4
I1
I0
I0
tp315
I2
tp316
F-1.0
s((I1
I1
I3
I4
I1
tp317
I2
tp318
F17.60942137157794
s((I1
I0
I4
I4
I0
tp319
I3
tp320
F74.78742990504422
s((I0
I4
I4
I1
I3
tp321
I1
tp322
F-11.95
s((I2
I4
I1
I1
I4
tp323
I0
tp324
F24.55451143506718
s((I2
I4
I2
I3
I0
tp325
I0
tp326
F-1.7898454523437501
s((I2
I4
I4
I1
I1
tp327
I1
tp328
F44.784972727187
s((I2
I1
I1
I0
I4
tp329
I0
tp330
F-1.0
s((I1
I1
I4
I1
I0
tp331
I1
tp332
F29.835053446316937
s((I0
I4
I0
I1
I4
tp333
I2
tp334
F105.31330896156197
s((I1
I0
I1
I1
I4
tp335
I3
tp336
F21.128490040021383
s((I1
I0
I1
I4
I4
tp337
I3
tp338
F45.6297036405634
s((I3
I4
I1
I3
I4
tp339
I3
tp340
F68.07132485981501
s((I1
I1
I2
I1
I1
tp341
I2
tp342
F48.540164244919666
s((I1
I1
I1
I1
I3
tp343
I2
tp344
F-1.95
s((I1
I4
I3
I1
I4
tp345
I3
tp346
F76.96504968950455
s((I2
I0
I2
I2
I1
tp347
I1
tp348
F12.751660046676713
s((I1
I1
I1
I1
I4
tp349
I1
tp350
F61.487997047420485
s((I1
I1
I3
I1
I3
tp351
I3
tp352
F9.028771806581045
s((I1
I0
I1
I1
I3
tp353
I3
tp354
F-4.524381249999999
s((I1
I1
I1
I0
I1
tp355
I2
tp356
F63.66775861682426
s((I2
I0
I2
I0
I4
tp357
I3
tp358
F-1.0
s((I1
I1
I1
I3
I1
tp359
I1
tp360
F59.44026527310662
s((I1
I4
I2
I3
I4
tp361
I1
tp362
F40.106961863460015
s((I3
I1
I1
I4
I1
tp363
I3
tp364
F44.1440212721098
s((I1
I2
I1
I4
I4
tp365
I2
tp366
F63.13540947753897
s((I0
I1
I4
I4
I4
tp367
I1
tp368
F38.46555879647223
s((I1
I0
I4
I3
I4
tp369
I0
tp370
F-1.9499999999999993
s((I0
I0
I4
I4
I4
tp371
I1
tp372
F103.03096734858684
s((I0
I4
I4
I1
I0
tp373
I0
tp374
F107.1431148255825
s((I0
I4
I4
I1
I1
tp375
I1
tp376
F83.3618779711695
s((I1
I4
I2
I1
I1
tp377
I1
tp378
F59.94187402819031
s((I2
I3
I4
I1
I1
tp379
I2
tp380
F-1.0
s((I1
I4
I1
I3
I4
tp381
I0
tp382
F56.76995745921519
s((I2
I4
I2
I4
I1
tp383
I3
tp384
F-2.8525
s((I3
I4
I4
I1
I1
tp385
I2
tp386
F-4.524381249999999
s((I0
I4
I4
I0
I4
tp387
I3
tp388
F31.718644481638165
s((I3
I1
I1
I4
I4
tp389
I1
tp390
F79.77624200530971
s((I1
I1
I3
I1
I1
tp391
I2
tp392
F41.550664871937485
s((I2
I4
I2
I2
I1
tp393
I0
tp394
F-1.0
s((I1
I2
I1
I2
I4
tp395
I3
tp396
F67.13992216714071
s((I1
I4
I2
I2
I4
tp397
I1
tp398
F57.02628362193747
s((I1
I4
I1
I4
I3
tp399
I0
tp400
F19.541102085986072
s((I3
I1
I4
I4
I4
tp401
I2
tp402
F67.27907602362566
s((I1
I1
I0
I4
I0
tp403
I3
tp404
F40.106961863460015
s((I2
I3
I1
I4
I4
tp405
I2
tp406
F40.18947421550873
s((I1
I3
I2
I4
I4
tp407
I1
tp408
F58.658117477701566
s((I1
I1
I1
I4
I1
tp409
I1
tp410
F76.55393037910328
s((I1
I0
I1
I4
I1
tp411
I3
tp412
F74.00415285944524
s((I1
I0
I4
I2
I4
tp413
I2
tp414
F-1.95
s((I1
I0
I4
I0
I4
tp415
I2
tp416
F72.71348969638102
s((I0
I0
I1
I1
I1
tp417
I3
tp418
F55.545655489302405
s((I3
I3
I1
I1
I4
tp419
I1
tp420
F101.86062915845841
s((I1
I2
I4
I4
I1
tp421
I0
tp422
F-1.0
s((I3
I4
I1
I3
I1
tp423
I1
tp424
F35.549475046923575
s((I2
I4
I2
I4
I2
tp425
I2
tp426
F-1.0
s((I0
I4
I4
I4
I1
tp427
I3
tp428
F54.04996410701581
s((I1
I4
I0
I4
I4
tp429
I1
tp430
F67.27907602362566
s((I1
I0
I2
I2
I1
tp431
I2
tp432
F-1.95
s((I2
I4
I3
I1
I4
tp433
I0
tp434
F9.442364671874998
s((I1
I4
I4
I0
I3
tp435
I1
tp436
F-1.95
s((I1
I4
I3
I4
I4
tp437
I2
tp438
F55.944780326780794
s((I0
I4
I4
I4
I0
tp439
I2
tp440
F77.32251902642398
s((I3
I0
I1
I4
I1
tp441
I0
tp442
F11.114077044342874
s((I1
I4
I2
I1
I3
tp443
I1
tp444
F-11.197466626964683
s((I1
I4
I0
I0
I4
tp445
I2
tp446
F46.600511760066496
s((I1
I4
I3
I4
I4
tp447
I0
tp448
F64.97915285944524
s((I2
I1
I1
I3
I4
tp449
I0
tp450
F88.75085829095603
s((I1
I1
I0
I0
I4
tp451
I2
tp452
F-2.8525
s((I3
I0
I4
I4
I1
tp453
I0
tp454
F-1.0
s((I1
I1
I0
I1
I1
tp455
I3
tp456
F-1.9500000000000028
s((I2
I3
I1
I0
I1
tp457
I0
tp458
F-1.0
s((I2
I4
I4
I2
I3
tp459
I2
tp460
F-1.0
s((I2
I0
I4
I1
I0
tp461
I2
tp462
F12.75166004667671
s((I0
I1
I4
I1
I1
tp463
I1
tp464
F36.29439475028024
s((I1
I4
I4
I1
I3
tp465
I2
tp466
F63.66957819374629
s((I0
I1
I1
I4
I0
tp467
I0
tp468
F52.89687450734055
s((I2
I2
I1
I0
I0
tp469
I2
tp470
F-1.0
s((I1
I4
I1
I4
I1
tp471
I0
tp472
F95.96504968950454
s((I1
I1
I0
I3
I3
tp473
I0
tp474
F4.075479704818857
s((I1
I4
I1
I4
I0
tp475
I1
tp476
F69.13093144724147
s((I0
I4
I4
I4
I3
tp477
I2
tp478
F36.28992802955869
s((I1
I1
I4
I2
I1
tp479
I1
tp480
F4.6444104713104455
s((I1
I3
I1
I1
I1
tp481
I3
tp482
F40.27450870951574
s((I1
I1
I3
I4
I3
tp483
I3
tp484
F-1.95
s((I1
I3
I3
I1
I2
tp485
I0
tp486
F-1.95
s((I1
I4
I0
I0
I1
tp487
I0
tp488
F50.354675830873255
s((I1
I2
I4
I4
I4
tp489
I3
tp490
F62.66578259844542
s((I1
I0
I1
I4
I4
tp491
I1
tp492
F65.24496762267995
s((I3
I1
I4
I1
I4
tp493
I0
tp494
F50.88475121818803
s((I2
I1
I4
I0
I2
tp495
I0
tp496
F-1.0
s((I1
I4
I0
I1
I1
tp497
I1
tp498
F73.9947803267808
s((I3
I4
I0
I1
I4
tp499
I1
tp500
F68.578253770848
s((I1
I4
I0
I1
I0
tp501
I0
tp502
F-3.7098749999999985
s((I1
I4
I3
I3
I4
tp503
I0
tp504
F63.60149030737715
s((I1
I4
I3
I4
I1
tp505
I1
tp506
F32.77200129457739
s((I1
I4
I3
I4
I0
tp507
I0
tp508
F25.815914856842863
s((I1
I1
I2
I1
I3
tp509
I3
tp510
F3.19199375
s((I2
I0
I4
I4
I4
tp511
I0
tp512
F-1.0
s((I2
I0
I4
I1
I1
tp513
I0
tp514
F-1.0
s((I3
I4
I1
I4
I4
tp515
I2
tp516
F-1.0
s((I1
I1
I2
I1
I4
tp517
I1
tp518
F84.5456554893024
s((I0
I4
I4
I0
I4
tp519
I1
tp520
F84.1493410823056
s((I2
I2
I2
I2
I1
tp521
I1
tp522
F-1.0
s((I1
I1
I4
I3
I4
tp523
I1
tp524
F17.049999999999997
s((I2
I1
I1
I4
I4
tp525
I1
tp526
F100.4995659733585
s((I1
I0
I3
I1
I4
tp527
I1
tp528
F39.60146995312367
s((I1
I2
I1
I1
I1
tp529
I1
tp530
F48.540164244919666
s((I1
I2
I1
I4
I1
tp531
I1
tp532
F-2.8525
s((I1
I4
I4
I1
I0
tp533
I3
tp534
F58.48496440897872
s((I1
I2
I1
I4
I0
tp535
I0
tp536
F8.668583734375
s((I1
I2
I1
I4
I4
tp537
I1
tp538
F5.941484706642575
s((I2
I1
I1
I4
I1
tp539
I0
tp540
F-1.0
s((I3
I1
I4
I2
I3
tp541
I0
tp542
F47.84643300121311
s((I1
I4
I4
I3
I4
tp543
I3
tp544
F26.330134120064123
s((I3
I4
I1
I1
I1
tp545
I0
tp546
F81.63571618852977
s((I3
I2
I4
I2
I1
tp547
I2
tp548
F-1.0
s((I3
I1
I0
I1
I1
tp549
I3
tp550
F-1.0
s((I2
I2
I1
I1
I1
tp551
I2
tp552
F-1.0
s((I1
I1
I0
I0
I1
tp553
I3
tp554
F7.235154547656247
s((I1
I1
I0
I1
I4
tp555
I2
tp556
F46.04040992035862
s((I1
I4
I3
I1
I1
tp557
I0
tp558
F22.32678586331382
s((I3
I1
I1
I1
I1
tp559
I3
tp560
F59.97945083829212
s((I0
I0
I0
I1
I4
tp561
I2
tp562
F-2.0297535617187528
s((I2
I1
I0
I1
I1
tp563
I1
tp564
F6.676431805893474
s((I2
I4
I1
I4
I4
tp565
I0
tp566
F-1.0
s((I1
I1
I4
I2
I4
tp567
I1
tp568
F-1.0
s((I1
I0
I1
I1
I0
tp569
I3
tp570
F45.6297036405634
s((I1
I4
I1
I0
I4
tp571
I2
tp572
F29.36787970644563
s((I1
I1
I4
I1
I1
tp573
I1
tp574
F62.78292605878367
s((I1
I4
I4
I4
I1
tp575
I3
tp576
F56.045655489302405
s((I1
I4
I4
I2
I1
tp577
I3
tp578
F37.29544175064809
s((I1
I0
I0
I4
I4
tp579
I3
tp580
F-1.95
s((I2
I1
I4
I1
I4
tp581
I3
tp582
F31.966189164679612
s((I0
I1
I3
I4
I0
tp583
I0
tp584
F52.449709626260294
s((I3
I4
I3
I0
I1
tp585
I0
tp586
F-2.8525
s((I1
I2
I4
I1
I1
tp587
I3
tp588
F56.203368171472235
s((I0
I4
I1
I4
I4
tp589
I2
tp590
F48.643779755844484
s((I0
I4
I4
I4
I2
tp591
I1
tp592
F-11.0
s((I1
I1
I1
I4
I1
tp593
I2
tp594
F69.8319334029965
s((I2
I0
I0
I4
I4
tp595
I1
tp596
F71.8618280735838
s((I1
I4
I4
I2
I0
tp597
I3
tp598
F1.2318709218749988
s((I1
I4
I1
I2
I4
tp599
I2
tp600
F69.8319334029965
s((I3
I0
I1
I1
I1
tp601
I1
tp602
F49.702832271871294
s((I1
I4
I1
I3
I1
tp603
I3
tp604
F26.509621300984833
s((I3
I1
I1
I0
I4
tp605
I3
tp606
F43.05290797951913
s((I2
I0
I1
I1
I1
tp607
I1
tp608
F-1.0
s((I1
I4
I2
I4
I4
tp609
I3
tp610
F63.59848080957762
s((I3
I1
I0
I4
I4
tp611
I1
tp612
F48.36787970644563
s((I1
I1
I4
I4
I4
tp613
I1
tp614
F59.406430379103284
s((I1
I1
I2
I0
I3
tp615
I3
tp616
F-1.95
s((I1
I1
I4
I3
I1
tp617
I1
tp618
F18.79227020369584
s((I1
I4
I4
I4
I2
tp619
I1
tp620
F22.075810301059402
s((I1
I1
I1
I1
I0
tp621
I2
tp622
F55.944780326780794
s((I1
I4
I1
I1
I3
tp623
I0
tp624
F61.487997047420485
s((I1
I4
I1
I1
I0
tp625
I3
tp626
F37.88997919807909
s((I1
I1
I1
I2
I4
tp627
I0
tp628
F83.31331537640823
s((I1
I1
I3
I4
I4
tp629
I0
tp630
F61.407297694487994
s((I2
I2
I4
I4
I4
tp631
I1
tp632
F-1.95
s((I0
I0
I4
I4
I1
tp633
I2
tp634
F28.780235215598786
s((I1
I0
I4
I4
I1
tp635
I0
tp636
F65.57679240874002
s((I0
I4
I4
I2
I4
tp637
I0
tp638
F63.24026712720841
s((I1
I3
I4
I1
I0
tp639
I2
tp640
F93.81945534140921
s((I2
I1
I1
I0
I4
tp641
I2
tp642
F-1.0
s((I3
I4
I1
I1
I0
tp643
I0
tp644
F-1.95
s((I2
I1
I4
I4
I1
tp645
I3
tp646
F42.392894609938296
s((I1
I0
I1
I1
I4
tp647
I1
tp648
F64.83615923492047
s((I1
I1
I0
I4
I4
tp649
I3
tp650
F49.86471798284668
s((I0
I4
I1
I1
I4
tp651
I0
tp652
F8.942900512692198
s((I1
I1
I3
I3
I1
tp653
I2
tp654
F87.44049827091918
s((I2
I0
I1
I1
I1
tp655
I0
tp656
F-1.0
s((I2
I4
I1
I4
I1
tp657
I2
tp658
F34.1975
s((I2
I4
I1
I1
I1
tp659
I3
tp660
F-1.0
s((I2
I4
I1
I1
I1
tp661
I0
tp662
F96.57303447753893
s((I3
I1
I4
I4
I3
tp663
I1
tp664
F-1.0
s((I2
I1
I1
I0
I1
tp665
I0
tp666
F10.177456562499996
s((I2
I1
I4
I4
I4
tp667
I3
tp668
F68.07132485981501
s((I2
I1
I2
I4
I4
tp669
I3
tp670
F-2.8525
s((I2
I2
I4
I0
I2
tp671
I1
tp672
F-1.95
s((I2
I1
I1
I1
I2
tp673
I1
tp674
F8.668583734374996
s((I3
I1
I1
I4
I0
tp675
I2
tp676
F49.28529148493437
s((I1
I4
I4
I1
I4
tp677
I3
tp678
F58.643779755844484
s((I1
I3
I3
I1
I1
tp679
I1
tp680
F-1.0
s((I1
I1
I4
I4
I4
tp681
I2
tp682
F59.406430379103284
s((I0
I1
I4
I4
I4
tp683
I3
tp684
F49.44026527310662
s((I3
I1
I4
I2
I4
tp685
I3
tp686
F59.48609928405897
s((I0
I4
I4
I1
I1
tp687
I3
tp688
F92.61575200945128
s((I1
I4
I2
I1
I4
tp689
I3
tp690
F-1.0
s((I1
I1
I4
I4
I0
tp691
I2
tp692
F55.43610886014812
s((I2
I2
I1
I4
I0
tp693
I2
tp694
F17.05
s((I3
I2
I4
I4
I1
tp695
I0
tp696
F-1.0
s((I1
I3
I1
I1
I0
tp697
I3
tp698
F-1.0
s((I1
I2
I1
I0
I1
tp699
I3
tp700
F57.204954079095415
s((I2
I4
I1
I4
I0
tp701
I1
tp702
F-1.0
s((I1
I1
I3
I1
I1
tp703
I0
tp704
F-2.8350599225811415
s((I1
I0
I4
I3
I1
tp705
I0
tp706
F32.77200129457739
s((I1
I2
I4
I2
I0
tp707
I0
tp708
F7.235154547656247
s((I2
I1
I1
I2
I4
tp709
I0
tp710
F9.442364671874998
s((I1
I1
I0
I4
I1
tp711
I0
tp712
F59.94187402819031
s((I1
I4
I1
I4
I3
tp713
I2
tp714
F51.98558913152141
s((I2
I2
I0
I1
I0
tp715
I2
tp716
F43.194082717573295
s((I1
I1
I0
I3
I2
tp717
I1
tp718
F-3.709875
s((I2
I0
I2
I2
I2
tp719
I2
tp720
F-1.0
s((I1
I4
I4
I1
I4
tp721
I1
tp722
F57.33693280976359
s((I0
I4
I1
I3
I4
tp723
I2
tp724
F22.183203598781937
s((I1
I0
I1
I4
I1
tp725
I1
tp726
F50.354675830873255
s((I3
I1
I4
I4
I1
tp727
I3
tp728
F24.554511435067184
s((I1
I0
I4
I0
I4
tp729
I0
tp730
F24.370579532519443
s((I0
I1
I4
I4
I1
tp731
I1
tp732
F16.118481296706108
s((I2
I1
I1
I1
I1
tp733
I0
tp734
F-2.8525
s((I1
I3
I4
I4
I1
tp735
I3
tp736
F64.18889561925486
s((I1
I1
I4
I1
I4
tp737
I3
tp738
F55.774304348969906
s((I2
I1
I4
I4
I2
tp739
I2
tp740
F-1.0
s((I1
I4
I4
I2
I4
tp741
I1
tp742
F59.48609928405897
s((I1
I2
I1
I1
I4
tp743
I3
tp744
F35.549475046923575
s((I0
I4
I4
I4
I4
tp745
I1
tp746
F99.21407175944445
s((I1
I1
I3
I1
I4
tp747
I3
tp748
F-3.7098750000000025
s((I1
I4
I4
I0
I0
tp749
I0
tp750
F44.503832088292135
s((I1
I4
I0
I1
I3
tp751
I3
tp752
F3.19199375
s((I1
I1
I3
I4
I4
tp753
I3
tp754
F-5.298162187499999
s((I0
I1
I4
I0
I3
tp755
I2
tp756
F-11.95
s((I1
I1
I1
I4
I4
tp757
I0
tp758
F62.915122222444374
s((I3
I0
I0
I4
I4
tp759
I1
tp760
F-2.852499999999999
s((I1
I4
I0
I0
I4
tp761
I0
tp762
F41.48895102362566
s((I1
I4
I4
I3
I1
tp763
I1
tp764
F-1.0
s((I3
I1
I1
I4
I1
tp765
I1
tp766
F58.566194167760564
s((I3
I4
I3
I4
I0
tp767
I3
tp768
F-1.0
s((I1
I3
I3
I1
I4
tp769
I1
tp770
F74.00415285944524
s((I0
I1
I1
I4
I4
tp771
I3
tp772
F45.468252009451284
s((I3
I4
I4
I0
I0
tp773
I1
tp774
F-1.0
s((I2
I4
I3
I1
I1
tp775
I0
tp776
F-1.0
s((I1
I2
I1
I1
I0
tp777
I0
tp778
F40.93682020850431
s((I1
I1
I1
I1
I3
tp779
I0
tp780
F67.27907602362566
s((I1
I1
I1
I1
I0
tp781
I0
tp782
F57.53442860449662
s((I1
I4
I1
I4
I0
tp783
I3
tp784
F56.573011179959884
s((I1
I1
I0
I3
I0
tp785
I1
tp786
F-1.0
s((I0
I4
I4
I4
I0
tp787
I0
tp788
F81.407297694488
s((I1
I1
I1
I4
I3
tp789
I1
tp790
F39.90026258054317
s((I3
I1
I4
I1
I1
tp791
I2
tp792
F61.297952788303014
s((I1
I0
I1
I4
I0
tp793
I2
tp794
F48.962226160050136
s((I3
I4
I4
I4
I1
tp795
I1
tp796
F-1.0
s((I3
I4
I4
I2
I1
tp797
I0
tp798
F26.118481296706108
s((I1
I1
I4
I2
I0
tp799
I2
tp800
F-1.0
s((I1
I3
I1
I1
I1
tp801
I1
tp802
F54.61552759809266
s((I1
I3
I4
I4
I0
tp803
I0
tp804
F-1.0
s((I2
I2
I4
I4
I2
tp805
I1
tp806
F-1.95
s((I1
I3
I3
I1
I2
tp807
I2
tp808
F47.52002239169453
s((I1
I1
I3
I4
I0
tp809
I2
tp810
F-1.0
s((I1
I1
I4
I0
I4
tp811
I2
tp812
F108.58003433611819
s((I3
I1
I4
I4
I1
tp813
I1
tp814
F-5.298162187499999
s((I1
I2
I2
I1
I1
tp815
I2
tp816
F78.48183701407382
s((I1
I4
I4
I0
I1
tp817
I3
tp818
F53.63540947753897
s((I0
I0
I1
I4
I4
tp819
I2
tp820
F67.74084234858685
s((I1
I1
I1
I1
I2
tp821
I0
tp822
F16.289928029558688
s((I1
I4
I3
I4
I1
tp823
I3
tp824
F87.44049827091916
s((I1
I1
I2
I1
I0
tp825
I2
tp826
F45.6297036405634
s((I3
I1
I1
I4
I1
tp827
I0
tp828
F-1.9499999999999993
s((I2
I4
I0
I1
I1
tp829
I1
tp830
F-1.0
s((I2
I1
I1
I4
I4
tp831
I3
tp832
F-1.0
s((I3
I4
I4
I4
I1
tp833
I3
tp834
F59.19378407261103
s((I1
I2
I1
I4
I1
tp835
I3
tp836
F61.03064170104996
s((I0
I2
I0
I4
I4
tp837
I3
tp838
F-11.0
s((I3
I1
I3
I1
I4
tp839
I1
tp840
F-1.0
s((I2
I1
I4
I0
I2
tp841
I1
tp842
F-1.95
s((I1
I1
I4
I1
I1
tp843
I2
tp844
F65.69189230998737
s((I1
I1
I4
I1
I1
tp845
I0
tp846
F55.944780326780794
s((I1
I1
I1
I1
I1
tp847
I0
tp848
F43.1608945440997
s((I1
I3
I1
I4
I1
tp849
I0
tp850
F87.44049827091918
s((I1
I4
I4
I3
I4
tp851
I1
tp852
F37.10161377028701
s((I1
I1
I4
I4
I1
tp853
I3
tp854
F58.20749620522441
s((I3
I0
I1
I1
I4
tp855
I3
tp856
F49.14471684544612
s((I1
I4
I1
I1
I4
tp857
I3
tp858
F67.0539547565214
s((I3
I1
I1
I1
I4
tp859
I0
tp860
F54.711590768052254
s((I3
I4
I4
I1
I4
tp861
I0
tp862
F-1.0
s((I1
I1
I1
I3
I3
tp863
I3
tp864
F-1.0
s((I1
I1
I3
I4
I1
tp865
I1
tp866
F59.94187402819031
s((I1
I4
I1
I1
I2
tp867
I1
tp868
F63.59848080957762
s((I2
I4
I1
I1
I4
tp869
I3
tp870
F4.57972697925976
s((I1
I4
I1
I4
I4
tp871
I0
tp872
F59.76242563049464
s((I2
I4
I1
I4
I2
tp873
I0
tp874
F32.0525578806456
s((I3
I1
I1
I1
I1
tp875
I1
tp876
F72.11679720502933
s((I1
I1
I4
I0
I1
tp877
I1
tp878
F78.95173985204762
s((I2
I1
I4
I4
I1
tp879
I0
tp880
F33.79032663269411
s((I1
I1
I4
I0
I0
tp881
I0
tp882
F31.100810301059404
s((I1
I3
I1
I4
I4
tp883
I2
tp884
F-1.0
s((I3
I4
I1
I1
I4
tp885
I0
tp886
F71.72623386014811
s((I1
I1
I2
I0
I4
tp887
I0
tp888
F33.03862741406092
s((I1
I1
I2
I1
I1
tp889
I1
tp890
F65.1530898063836
s((I1
I0
I1
I1
I1
tp891
I0
tp892
F50.105801852701575
s((I2
I4
I1
I2
I0
tp893
I2
tp894
F-1.0
s((I1
I4
I3
I1
I4
tp895
I0
tp896
F64.83874795564932
s((I0
I4
I1
I4
I4
tp897
I0
tp898
F90.048058409792
s((I1
I1
I1
I4
I1
tp899
I0
tp900
F45.11315603267368
s((I0
I4
I0
I0
I4
tp901
I0
tp902
F0.2568709218749916
s((I1
I4
I1
I2
I4
tp903
I0
tp904
F67.05393037910328
s((I1
I1
I1
I3
I1
tp905
I2
tp906
F13.25952266589372
s((I2
I4
I4
I1
I1
tp907
I2
tp908
F-1.0
s((I3
I1
I3
I1
I1
tp909
I2
tp910
F-1.95
s((I3
I1
I1
I0
I4
tp911
I1
tp912
F-1.0
s((I1
I4
I1
I0
I0
tp913
I3
tp914
F63.667758616824244
s((I1
I4
I4
I4
I4
tp915
I1
tp916
F63.66957819374629
s((I2
I2
I1
I4
I0
tp917
I1
tp918
F-1.0
s((I1
I4
I1
I1
I1
tp919
I3
tp920
F55.944780326780794
s((I2
I1
I1
I1
I4
tp921
I3
tp922
F49.67462052289106
s((I1
I1
I4
I3
I1
tp923
I3
tp924
F64.1493410823056
s((I1
I4
I4
I4
I2
tp925
I3
tp926
F48.46555879647223
s((I1
I0
I3
I4
I1
tp927
I3
tp928
F52.14754131044175
s((I2
I4
I3
I4
I1
tp929
I1
tp930
F77.24378407261102
s((I2
I4
I2
I0
I0
tp931
I0
tp932
F-11.45
s((I1
I0
I2
I1
I1
tp933
I3
tp934
F-1.95
s((I2
I4
I4
I0
I1
tp935
I1
tp936
F-1.0
s((I0
I1
I1
I1
I4
tp937
I3
tp938
F60.86415188388104
s((I1
I0
I4
I4
I1
tp939
I2
tp940
F49.6774710563836
s((I1
I4
I2
I4
I0
tp941
I2
tp942
F13.437625
s((I0
I1
I2
I4
I1
tp943
I1
tp944
F19.0
s((I3
I1
I1
I4
I4
tp945
I2
tp946
F44.50383208829213
s((I0
I4
I4
I2
I1
tp947
I3
tp948
F76.98496440897871
s((I1
I0
I0
I1
I0
tp949
I1
tp950
F-1.0
s((I0
I4
I4
I0
I1
tp951
I3
tp952
F-13.709875000000004
s((I3
I1
I4
I1
I3
tp953
I1
tp954
F-1.0
s((I1
I4
I0
I4
I4
tp955
I2
tp956
F68.578253770848
s((I1
I1
I0
I4
I4
tp957
I1
tp958
F67.54524577388786
s((I0
I4
I1
I1
I4
tp959
I2
tp960
F37.178368171472236
s((I1
I4
I4
I0
I1
tp961
I1
tp962
F47.89877061925488
s((I1
I0
I1
I3
I1
tp963
I2
tp964
F68.578253770848
s((I3
I0
I1
I4
I4
tp965
I1
tp966
F-1.95
s((I1
I4
I0
I4
I1
tp967
I2
tp968
F72.11679720502933
s((I1
I3
I3
I1
I1
tp969
I2
tp970
F59.19378407261103
s((I1
I0
I4
I1
I1
tp971
I2
tp972
F67.13992216714071
s((I2
I4
I1
I1
I1
tp973
I2
tp974
F57.67955883955854
s((I1
I2
I4
I4
I1
tp975
I3
tp976
F63.87102691068766
s((I2
I4
I4
I1
I4
tp977
I1
tp978
F63.96044803209962
s((I2
I1
I4
I4
I4
tp979
I1
tp980
F-1.0
s((I0
I0
I1
I1
I4
tp981
I0
tp982
F-11.95
s((I0
I4
I2
I4
I4
tp983
I1
tp984
F84.37930886888361
s((I1
I4
I1
I1
I1
tp985
I2
tp986
F74.94946516342092
s((I3
I3
I0
I4
I4
tp987
I0
tp988
F45.11752047827862
s((I2
I2
I4
I1
I4
tp989
I1
tp990
F96.46855676909874
s((I2
I1
I2
I2
I0
tp991
I1
tp992
F-1.0
s((I0
I0
I4
I4
I0
tp993
I0
tp994
F18.05
s((I1
I3
I3
I1
I1
tp995
I3
tp996
F53.37140239144347
s((I0
I4
I4
I1
I4
tp997
I3
tp998
F52.66578259844542
s((I3
I1
I1
I0
I1
tp999
I1
tp1000
F-9.733158334409895
s((I1
I0
I4
I1
I4
tp1001
I0
tp1002
F10.849005335390721
s((I1
I3
I4
I3
I1
tp1003
I2
tp1004
F18.79227020369584
s((I1
I4
I2
I1
I4
tp1005
I1
tp1006
F48.19470813388105
s((I1
I1
I4
I4
I0
tp1007
I0
tp1008
F63.66957819374629
s((I1
I1
I3
I3
I3
tp1009
I3
tp1010
F-1.95
s((I1
I4
I4
I1
I2
tp1011
I2
tp1012
F55.51179431985602
s((I3
I1
I4
I1
I0
tp1013
I0
tp1014
F-1.95
s((I3
I1
I4
I1
I1
tp1015
I1
tp1016
F63.13540947753897
s((I0
I0
I1
I0
I1
tp1017
I0
tp1018
F19.0
s((I1
I4
I0
I1
I4
tp1019
I0
tp1020
F81.63571618852977
s((I1
I1
I3
I1
I0
tp1021
I3
tp1022
F-2.8525
s((I1
I1
I0
I3
I4
tp1023
I1
tp1024
F-1.0
s((I0
I2
I4
I4
I2
tp1025
I1
tp1026
F-11.0
s((I1
I1
I0
I4
I1
tp1027
I2
tp1028
F55.944780326780794
s((I2
I1
I0
I4
I1
tp1029
I2
tp1030
F17.05
s((I3
I4
I4
I1
I4
tp1031
I3
tp1032
F-1.0
s((I1
I4
I2
I1
I4
tp1033
I2
tp1034
F35.83013412006412
s((I1
I1
I0
I3
I2
tp1035
I3
tp1036
F15.010023858835496
s((I0
I1
I4
I0
I4
tp1037
I3
tp1038
F44.554511435067184
s((I1
I1
I4
I4
I3
tp1039
I1
tp1040
F65.57679240874002
s((I1
I2
I4
I4
I4
tp1041
I0
tp1042
F-4.524381249999999
s((I1
I3
I1
I1
I4
tp1043
I0
tp1044
F65.57679240874002
s((I1
I4
I0
I0
I1
tp1045
I3
tp1046
F31.534206427684026
s((I1
I0
I1
I0
I4
tp1047
I3
tp1048
F46.79544175064809
s((I2
I1
I1
I1
I1
tp1049
I2
tp1050
F8.744027375781247
s((I1
I4
I0
I1
I1
tp1051
I2
tp1052
F63.60149030737715
s((I1
I2
I1
I1
I3
tp1053
I2
tp1054
F38.76856223164644
s((I0
I3
I4
I4
I3
tp1055
I3
tp1056
F76.83263772646572
s((I3
I0
I4
I3
I4
tp1057
I1
tp1058
F43.27048617206317
s((I2
I1
I2
I1
I3
tp1059
I2
tp1060
F44.68691085441072
s((I0
I4
I4
I4
I4
tp1061
I3
tp1062
F25.873396820273435
s((I1
I4
I4
I4
I3
tp1063
I2
tp1064
F-4.524381250000001
s((I2
I2
I4
I0
I2
tp1065
I2
tp1066
F-1.0
s((I2
I4
I4
I4
I1
tp1067
I1
tp1068
F52.93188577361513
s((I1
I1
I1
I4
I4
tp1069
I2
tp1070
F59.406430379103284
s((I1
I2
I4
I2
I0
tp1071
I1
tp1072
F-1.0
s((I1
I4
I4
I4
I0
tp1073
I0
tp1074
F55.43610886014812
s((I1
I3
I2
I3
I1
tp1075
I0
tp1076
F-1.95
s((I1
I4
I4
I3
I1
tp1077
I3
tp1078
F74.94946516342092
s((I1
I4
I4
I1
I1
tp1079
I3
tp1080
F58.97863900366202
s((I1
I1
I1
I2
I3
tp1081
I1
tp1082
F24.55451143506718
s((I1
I2
I1
I4
I0
tp1083
I3
tp1084
F76.68683424095705
s((I1
I4
I1
I1
I1
tp1085
I1
tp1086
F75.04358891665898
s((I0
I1
I1
I4
I4
tp1087
I1
tp1088
F49.97945083829212
s((I0
I4
I4
I4
I2
tp1089
I0
tp1090
F67.52002239169454
s((I2
I0
I4
I0
I1
tp1091
I0
tp1092
F9.448328598781936
s((I2
I1
I0
I1
I4
tp1093
I0
tp1094
F-1.0
s((I1
I4
I4
I2
I0
tp1095
I0
tp1096
F94.64925448530103
s((I3
I4
I1
I1
I1
tp1097
I3
tp1098
F49.702832271871294
s((I1
I0
I4
I4
I4
tp1099
I3
tp1100
F77.49026527310662
s((I3
I4
I1
I2
I0
tp1101
I1
tp1102
F-1.0
s((I1
I2
I4
I4
I4
tp1103
I1
tp1104
F32.77200129457739
s((I0
I4
I0
I4
I4
tp1105
I1
tp1106
F88.45364984061773
s((I3
I1
I1
I1
I2
tp1107
I3
tp1108
F-1.95
s((I1
I4
I3
I2
I1
tp1109
I0
tp1110
F33.85566771523109
s((I1
I0
I0
I0
I1
tp1111
I3
tp1112
F-1.0
s((I3
I2
I1
I1
I1
tp1113
I3
tp1114
F-4.524381249999999
s((I2
I1
I0
I1
I1
tp1115
I2
tp1116
F41.861644454364686
s((I1
I4
I4
I0
I4
tp1117
I3
tp1118
F59.94187402819031
s((I1
I1
I3
I4
I0
tp1119
I0
tp1120
F59.48609928405897
s((I1
I1
I4
I0
I4
tp1121
I0
tp1122
F34.24653308177266
s((I1
I1
I1
I4
I3
tp1123
I3
tp1124
F-2.852499999999999
s((I3
I1
I1
I1
I3
tp1125
I3
tp1126
F-1.0
s((I1
I4
I1
I0
I4
tp1127
I1
tp1128
F40.81716366005015
s((I1
I1
I2
I0
I0
tp1129
I0
tp1130
F9.306555068621185
s((I0
I3
I4
I4
I4
tp1131
I2
tp1132
F63.10910509538709
s((I1
I3
I4
I1
I4
tp1133
I2
tp1134
F35.21889578539273
s((I1
I1
I1
I3
I4
tp1135
I0
tp1136
F61.03064170104996
s((I3
I1
I2
I1
I1
tp1137
I1
tp1138
F-2.8525
s((I1
I1
I1
I2
I1
tp1139
I1
tp1140
F37.88997919807909
s((I2
I1
I4
I1
I1
tp1141
I3
tp1142
F74.55992989789105
s((I1
I1
I0
I1
I3
tp1143
I3
tp1144
F63.673924450983854
s((I2
I0
I2
I2
I4
tp1145
I3
tp1146
F-1.0
s((I1
I4
I0
I1
I1
tp1147
I3
tp1148
F-1.95
s((I1
I1
I2
I4
I4
tp1149
I2
tp1150
F12.121929370277261
s((I1
I1
I1
I4
I0
tp1151
I1
tp1152
F-1.0
s((I1
I0
I1
I0
I4
tp1153
I2
tp1154
F-1.0
s((I1
I1
I1
I1
I1
tp1155
I2
tp1156
F60.89543531606442
s((I1
I3
I1
I4
I1
tp1157
I2
tp1158
F43.09181701057909
s((I1
I4
I1
I1
I3
tp1159
I3
tp1160
F78.11010914389628
s((I1
I1
I1
I0
I4
tp1161
I1
tp1162
F47.04725603214861
s((I1
I1
I2
I2
I2
tp1163
I2
tp1164
F-1.95
s((I0
I1
I4
I4
I1
tp1165
I3
tp1166
F110.16679720502933
s((I1
I1
I4
I1
I4
tp1167
I1
tp1168
F61.487997047420485
s((I1
I4
I1
I1
I4
tp1169
I1
tp1170
F65.69189230998737
s((I1
I3
I3
I1
I2
tp1171
I3
tp1172
F-3.709875
s((I1
I1
I3
I4
I1
tp1173
I3
tp1174
F59.94187402819031
s((I1
I4
I1
I1
I2
tp1175
I3
tp1176
F55.4476289306438
s((I1
I0
I4
I4
I0
tp1177
I2
tp1178
F39.601469953123654
s((I2
I4
I1
I1
I4
tp1179
I1
tp1180
F47.178368171472236
s((I1
I4
I1
I4
I4
tp1181
I2
tp1182
F67.13992216714071
s((I1
I0
I4
I1
I1
tp1183
I3
tp1184
F44.15054063113543
s((I1
I1
I4
I0
I1
tp1185
I3
tp1186
F55.45034500240787
s((I2
I1
I1
I0
I4
tp1187
I1
tp1188
F-1.0
s((I1
I0
I1
I3
I4
tp1189
I2
tp1190
F-3.709875
s((I0
I1
I0
I4
I4
tp1191
I3
tp1192
F5.197500000000002
s((I1
I0
I1
I1
I4
tp1193
I2
tp1194
F31.100810301059404
s((I3
I4
I1
I1
I4
tp1195
I2
tp1196
F-1.0
s((I3
I4
I1
I3
I4
tp1197
I2
tp1198
F-1.0
s((I1
I1
I2
I1
I1
tp1199
I3
tp1200
F5.3426102155988
s((I2
I4
I1
I1
I4
tp1201
I2
tp1202
F-1.0
s((I0
I4
I0
I0
I4
tp1203
I2
tp1204
F19.0
s((I3
I0
I4
I1
I1
tp1205
I0
tp1206
F-1.0
s((I1
I4
I3
I1
I4
tp1207
I2
tp1208
F74.00415285944524
s((I1
I0
I1
I0
I0
tp1209
I1
tp1210
F16.289928029558684
s((I1
I1
I3
I4
I2
tp1211
I1
tp1212
F29.835053446316937
s((I1
I1
I1
I1
I4
tp1213
I2
tp1214
F59.94187402819031
s((I1
I0
I2
I0
I1
tp1215
I2
tp1216
F-1.0
s((I1
I1
I1
I4
I2
tp1217
I1
tp1218
F22.32678586331382
s((I2
I1
I2
I4
I4
tp1219
I0
tp1220
F-1.0
s((I1
I1
I4
I1
I3
tp1221
I0
tp1222
F64.1493410823056
s((I1
I1
I1
I3
I1
tp1223
I0
tp1224
F54.711590768052254
s((I2
I4
I4
I1
I1
tp1225
I0
tp1226
F-1.0
s((I1
I1
I1
I3
I0
tp1227
I1
tp1228
F87.44049827091918
s((I1
I1
I4
I4
I1
tp1229
I2
tp1230
F50.44187402819031
s((I0
I3
I0
I4
I4
tp1231
I0
tp1232
F-6.019009959978618
s((I0
I1
I4
I4
I4
tp1233
I0
tp1234
F48.566194167760564
s((I1
I3
I1
I1
I3
tp1235
I3
tp1236
F68.61989012553144
s((I1
I4
I2
I4
I1
tp1237
I2
tp1238
F56.77040607748961
s((I1
I4
I2
I1
I1
tp1239
I0
tp1240
F-1.9500000000000028
s((I0
I4
I1
I0
I4
tp1241
I3
tp1242
F-21.877499999999998
s((I0
I4
I1
I4
I1
tp1243
I1
tp1244
F36.371482083704336
s((I1
I0
I1
I4
I4
tp1245
I0
tp1246
F53.37140239144345
s((I3
I4
I4
I1
I0
tp1247
I0
tp1248
F59.970623502366394
s((I1
I0
I4
I0
I1
tp1249
I1
tp1250
F54.81442924287484
s((I0
I4
I4
I0
I4
tp1251
I0
tp1252
F63.24026712720841
s((I3
I1
I1
I4
I4
tp1253
I0
tp1254
F38.198305581965705
s((I1
I1
I4
I1
I0
tp1255
I2
tp1256
F53.54291733529698
s((I1
I3
I2
I1
I1
tp1257
I2
tp1258
F15.685601693841466
s((I1
I0
I1
I4
I4
tp1259
I2
tp1260
F47.89877061925488
s((I0
I4
I4
I0
I1
tp1261
I1
tp1262
F52.77200129457739
s((I3
I1
I4
I4
I4
tp1263
I3
tp1264
F-1.0
s((I1
I0
I1
I3
I1
tp1265
I0
tp1266
F74.20232625416745
s((I2
I4
I4
I1
I2
tp1267
I1
tp1268
F-1.0
s((I1
I0
I1
I4
I1
tp1269
I2
tp1270
F76.55393037910328
s((I2
I4
I4
I1
I3
tp1271
I0
tp1272
F85.31330896156197
s((I1
I1
I4
I2
I2
tp1273
I1
tp1274
F-1.95
s((I1
I3
I4
I3
I4
tp1275
I3
tp1276
F15.98076143506718
s((I3
I4
I1
I4
I4
tp1277
I3
tp1278
F48.38630967494534
s((I1
I2
I4
I4
I1
tp1279
I1
tp1280
F68.578253770848
s((I0
I4
I0
I4
I4
tp1281
I2
tp1282
F48.643779755844484
s((I1
I4
I4
I4
I4
tp1283
I0
tp1284
F59.76864448163816
s((I1
I2
I1
I1
I4
tp1285
I0
tp1286
F69.8319334029965
s((I0
I4
I1
I4
I1
tp1287
I0
tp1288
F19.0
s((I3
I1
I1
I4
I1
tp1289
I2
tp1290
F47.534196043357866
s((I1
I4
I3
I4
I4
tp1291
I3
tp1292
F43.44685127317447
s((I0
I4
I4
I4
I0
tp1293
I3
tp1294
F120.63571618852977
s((I1
I3
I4
I4
I3
tp1295
I3
tp1296
F75.04215578197352
s((I1
I4
I4
I1
I0
tp1297
I1
tp1298
F-1.9499999999999993
s((I2
I3
I3
I4
I1
tp1299
I3
tp1300
F-1.95
s((I1
I4
I2
I1
I3
tp1301
I0
tp1302
F44.79017354940788
s((I0
I4
I4
I1
I4
tp1303
I1
tp1304
F73.03096734858684
s((I0
I0
I4
I4
I4
tp1305
I0
tp1306
F19.0
s((I1
I0
I4
I1
I4
tp1307
I2
tp1308
F57.413597195049455
s((I1
I1
I4
I1
I1
tp1309
I3
tp1310
F-11.449999999999996
s((I2
I0
I4
I3
I0
tp1311
I2
tp1312
F-1.0
s((I3
I4
I4
I1
I2
tp1313
I0
tp1314
F-1.0
s((I1
I4
I2
I4
I1
tp1315
I0
tp1316
F72.65521536446319
s((I1
I1
I4
I0
I1
tp1317
I0
tp1318
F68.07324020394347
s((I0
I1
I4
I1
I1
tp1319
I0
tp1320
F49.91129708588565
s((I1
I4
I1
I4
I1
tp1321
I3
tp1322
F81.63571618852977
s((I3
I1
I4
I1
I1
tp1323
I3
tp1324
F-2.852499999999999
s((I1
I0
I4
I3
I1
tp1325
I3
tp1326
F82.72429240874003
s((I1
I4
I0
I1
I4
tp1327
I2
tp1328
F-1.0
s((I0
I4
I2
I0
I4
tp1329
I3
tp1330
F19.0
s((I1
I1
I4
I2
I1
tp1331
I3
tp1332
F67.98496440897871
s((I1
I1
I4
I2
I1
tp1333
I0
tp1334
F67.0166132615215
s((I2
I1
I0
I4
I1
tp1335
I1
tp1336
F1.0740434188428396
s((I1
I2
I1
I0
I4
tp1337
I2
tp1338
F12.035103898105373
s((I2
I1
I1
I3
I3
tp1339
I3
tp1340
F-4.524381249999999
s((I3
I3
I1
I4
I3
tp1341
I2
tp1342
F-1.0
s((I1
I3
I1
I1
I1
tp1343
I2
tp1344
F63.66957819374629
s((I1
I1
I0
I4
I0
tp1345
I2
tp1346
F45.856221970826034
s((I1
I3
I3
I1
I2
tp1347
I1
tp1348
F47.52002239169453
s((I1
I2
I4
I4
I4
tp1349
I2
tp1350
F71.54242201803288
s((I1
I3
I1
I1
I4
tp1351
I2
tp1352
F48.46555879647223
s((I1
I4
I0
I2
I1
tp1353
I3
tp1354
F71.60335829095604
s((I1
I4
I0
I1
I1
tp1355
I0
tp1356
F86.98496440897871
s((I1
I4
I0
I1
I0
tp1357
I1
tp1358
F49.86471798284667
s((I1
I4
I3
I3
I4
tp1359
I3
tp1360
F38.47313162834061
s((I1
I1
I1
I4
I2
tp1361
I3
tp1362
F68.578253770848
s((I1
I4
I3
I4
I1
tp1363
I0
tp1364
F81.49189475028024
s((I1
I4
I4
I4
I3
tp1365
I0
tp1366
F63.361877971169505
s((I1
I4
I4
I4
I0
tp1367
I3
tp1368
F53.63540947753897
s((I1
I1
I4
I3
I4
tp1369
I0
tp1370
F34.24653308177266
s((I3
I1
I4
I4
I3
tp1371
I0
tp1372
F-4.524381249999999
s((I1
I2
I1
I1
I1
tp1373
I2
tp1374
F32.24570622626638
s((I1
I4
I4
I1
I1
tp1375
I1
tp1376
F62.70125701869533
s((I1
I2
I1
I4
I1
tp1377
I0
tp1378
F-1.0
s((I1
I4
I4
I1
I0
tp1379
I0
tp1380
F67.13992216714071
s((I1
I1
I2
I4
I4
tp1381
I3
tp1382
F27.86736124118998
s((I1
I1
I0
I3
I1
tp1383
I1
tp1384
F35.549475046923575
s((I1
I1
I0
I4
I2
tp1385
I2
tp1386
F100.5050343361182
s((I1
I3
I1
I0
I1
tp1387
I2
tp1388
F94.47458767469057
s((I1
I1
I4
I4
I3
tp1389
I0
tp1390
F64.1493410823056
s((I0
I4
I4
I4
I1
tp1391
I1
tp1392
F83.66775861682424
s((I3
I4
I1
I1
I1
tp1393
I1
tp1394
F93.09526133780966
s((I1
I0
I4
I4
I4
tp1395
I1
tp1396
F78.95173985204762
s((I3
I1
I0
I1
I1
tp1397
I0
tp1398
F-1.95
s((I2
I4
I0
I0
I4
tp1399
I0
tp1400
F34.1975
s((I0
I4
I0
I4
I4
tp1401
I3
tp1402
F17.1475
s((I1
I4
I3
I0
I4
tp1403
I0
tp1404
F71.74295667321951
s((I1
I1
I0
I1
I4
tp1405
I1
tp1406
F113.46645554813531
s((I1
I4
I3
I1
I1
tp1407
I1
tp1408
F46.48515215168389
s((I3
I1
I1
I1
I1
tp1409
I2
tp1410
F-1.0
s((I2
I1
I4
I0
I0
tp1411
I3
tp1412
F68.07132485981501
s((I1
I0
I4
I0
I1
tp1413
I2
tp1414
F37.694557441626294
s((I1
I4
I3
I3
I1
tp1415
I0
tp1416
F55.23409486898048
s((I1
I4
I4
I0
I4
tp1417
I1
tp1418
F58.20749620522441
s((I1
I3
I3
I4
I1
tp1419
I1
tp1420
F59.94187402819031
s((I1
I1
I3
I0
I3
tp1421
I2
tp1422
F-1.0
s((I3
I1
I0
I0
I4
tp1423
I0
tp1424
F-2.8525
s((I1
I0
I1
I1
I0
tp1425
I2
tp1426
F46.37248289510551
s((I1
I0
I3
I0
I4
tp1427
I2
tp1428
F15.197500000000002
s((I1
I4
I1
I0
I4
tp1429
I3
tp1430
F58.566194167760564
s((I1
I4
I4
I4
I1
tp1431
I0
tp1432
F59.49022822843467
s((I2
I1
I4
I4
I3
tp1433
I0
tp1434
F-1.0
s((I3
I1
I4
I0
I4
tp1435
I3
tp1436
F59.67747556515327
s((I1
I1
I1
I3
I4
tp1437
I2
tp1438
F72.71348969638102
s((I1
I0
I0
I4
I1
tp1439
I1
tp1440
F72.70867389888787
s((I1
I2
I1
I4
I3
tp1441
I0
tp1442
F-1.0
s((I1
I1
I1
I4
I1
tp1443
I3
tp1444
F43.44685127317447
s((I2
I4
I2
I4
I4
tp1445
I3
tp1446
F-1.0
s((I1
I4
I1
I2
I4
tp1447
I3
tp1448
F47.43950347244437
s((I3
I0
I1
I1
I1
tp1449
I2
tp1450
F3.980990040021384
s((I1
I2
I1
I1
I1
tp1451
I3
tp1452
F-1.0
s((I3
I1
I1
I0
I4
tp1453
I2
tp1454
F-1.0
s((I1
I4
I1
I0
I1
tp1455
I3
tp1456
F29.36787970644563
s((I1
I1
I1
I0
I0
tp1457
I1
tp1458
F20.992526855465474
s((I1
I4
I4
I4
I4
tp1459
I2
tp1460
F55.43610886014812
s((I1
I4
I2
I4
I4
tp1461
I2
tp1462
F68.578253770848
s((I1
I1
I1
I4
I0
tp1463
I3
tp1464
F65.5456554893024
s((I2
I2
I2
I2
I1
tp1465
I3
tp1466
F-2.8525
s((I1
I1
I4
I1
I2
tp1467
I1
tp1468
F8.668583734374996
s((I1
I1
I0
I1
I4
tp1469
I0
tp1470
F54.00128447082603
s((I1
I4
I1
I1
I3
tp1471
I1
tp1472
F15.010023858835496
s((I1
I1
I1
I0
I4
tp1473
I3
tp1474
F58.97863900366202
s((I1
I4
I1
I1
I0
tp1475
I2
tp1476
F73.20460368670146
s((I1
I1
I1
I2
I4
tp1477
I3
tp1478
F42.79974630098482
s((I1
I4
I3
I1
I1
tp1479
I2
tp1480
F67.13992216714071
s((I1
I2
I3
I4
I4
tp1481
I2
tp1482
F37.73846250110918
s((I3
I1
I1
I1
I0
tp1483
I1
tp1484
F-1.0
s((I2
I4
I0
I1
I4
tp1485
I1
tp1486
F49.67311874999999
s((I1
I4
I4
I0
I4
tp1487
I2
tp1488
F61.03064170104996
s((I1
I1
I1
I2
I2
tp1489
I1
tp1490
F29.835053446316937
s((I1
I2
I1
I1
I3
tp1491
I1
tp1492
F15.010023858835496
s((I2
I3
I4
I1
I4
tp1493
I0
tp1494
F-1.95
s((I1
I0
I4
I4
I1
tp1495
I1
tp1496
F63.66957819374629
s((I0
I4
I4
I2
I4
tp1497
I1
tp1498
F78.76003484458889
s((I1
I0
I4
I1
I1
tp1499
I1
tp1500
F71.6357418489699
s((I1
I4
I1
I1
I0
tp1501
I1
tp1502
F16.289928029558684
s((I2
I4
I1
I3
I0
tp1503
I2
tp1504
F-4.524381249999999
s((I1
I2
I1
I0
I1
tp1505
I0
tp1506
F-1.95
s((I0
I4
I0
I1
I4
tp1507
I3
tp1508
F19.0
s((I1
I0
I1
I1
I4
tp1509
I0
tp1510
F59.92817770394347
s((I0
I1
I0
I0
I0
tp1511
I2
tp1512
F19.0
s((I0
I4
I1
I1
I4
tp1513
I1
tp1514
F89.04764351348386
s((I1
I1
I0
I1
I1
tp1515
I1
tp1516
F45.6517854604181
s((I0
I1
I1
I2
I4
tp1517
I2
tp1518
F19.0
s((I2
I4
I1
I4
I1
tp1519
I3
tp1520
F57.413597195049455
s((I1
I1
I1
I1
I3
tp1521
I3
tp1522
F67.0166132615215
s((I2
I0
I2
I2
I1
tp1523
I2
tp1524
F-1.0
s((I2
I0
I1
I2
I4
tp1525
I1
tp1526
F-3.709875
s((I3
I3
I1
I4
I1
tp1527
I3
tp1528
F63.60149030737715
s((I2
I1
I1
I0
I1
tp1529
I3
tp1530
F8.668583734374998
s((I1
I0
I1
I3
I1
tp1531
I3
tp1532
F61.407297694487994
s((I1
I1
I1
I1
I4
tp1533
I0
tp1534
F53.54291733529698
s((I2
I1
I4
I4
I4
tp1535
I2
tp1536
F18.473328598781936
s((I1
I1
I1
I0
I1
tp1537
I1
tp1538
F62.78292605878367
s((I1
I1
I4
I1
I3
tp1539
I2
tp1540
F51.088627414060916
s((I1
I4
I0
I4
I4
tp1541
I0
tp1542
F63.384579981191635
s((I2
I4
I4
I3
I0
tp1543
I3
tp1544
F-1.0
s((I1
I2
I1
I1
I0
tp1545
I1
tp1546
F28.957496106299825
s((I2
I1
I1
I1
I2
tp1547
I0
tp1548
F-2.852499999999999
s((I1
I1
I2
I4
I1
tp1549
I2
tp1550
F57.233055148887864
s((I2
I4
I1
I2
I4
tp1551
I3
tp1552
F5.873396820273436
s((I0
I4
I4
I3
I4
tp1553
I0
tp1554
F87.15580883955853
s((I0
I1
I4
I4
I4
tp1555
I2
tp1556
F19.0
s((I1
I1
I1
I1
I0
tp1557
I1
tp1558
F-1.95
s((I1
I4
I1
I3
I1
tp1559
I1
tp1560
F43.45566966311568
s((I0
I0
I4
I4
I1
tp1561
I1
tp1562
F32.94356491406092
s((I0
I4
I4
I1
I0
tp1563
I1
tp1564
F-11.0
s((I1
I3
I4
I4
I1
tp1565
I1
tp1566
F43.92748746994604
s((I0
I4
I4
I1
I1
tp1567
I0
tp1568
F82.66505857558249
s((I1
I0
I4
I1
I0
tp1569
I2
tp1570
F3.412189947744923
s((I1
I1
I4
I4
I0
tp1571
I3
tp1572
F62.78292605878367
s((I2
I3
I4
I1
I1
tp1573
I3
tp1574
F-1.0
s((I1
I4
I4
I1
I1
tp1575
I2
tp1576
F58.566194167760564
s((I1
I3
I1
I1
I0
tp1577
I0
tp1578
F-4.524381249999999
s((I3
I4
I4
I1
I1
tp1579
I3
tp1580
F76.55393037910328
s((I0
I4
I4
I0
I4
tp1581
I2
tp1582
F19.0
s((I0
I4
I0
I1
I1
tp1583
I0
tp1584
F1.1140770443428778
s((I1
I1
I3
I1
I1
tp1585
I3
tp1586
F58.97863900366202
s((I3
I2
I1
I1
I4
tp1587
I0
tp1588
F-1.0
s((I0
I1
I1
I1
I1
tp1589
I2
tp1590
F-14.524381249999998
s((I0
I1
I1
I4
I1
tp1591
I0
tp1592
F17.1475
s((I1
I4
I1
I4
I3
tp1593
I1
tp1594
F22.983124879441373
s((I1
I4
I1
I4
I2
tp1595
I0
tp1596
F68.578253770848
s((I1
I1
I0
I3
I2
tp1597
I0
tp1598
F34.99548023817513
s((I1
I4
I4
I4
I4
tp1599
I3
tp1600
F74.94946516342092
s((I1
I1
I4
I2
I3
tp1601
I0
tp1602
F28.54576978600643
s((I1
I1
I4
I4
I1
tp1603
I1
tp1604
F74.94946516342092
s((I0
I1
I1
I0
I4
tp1605
I0
tp1606
F77.89608891665898
s((I2
I1
I2
I3
I2
tp1607
I1
tp1608
F-3.709875
s((I1
I0
I1
I4
I1
tp1609
I0
tp1610
F-1.95
s((I1
I3
I1
I1
I3
tp1611
I0
tp1612
F51.99120164467843
s((I1
I3
I4
I4
I1
tp1613
I2
tp1614
F13.437625
s((I1
I0
I0
I4
I2
tp1615
I1
tp1616
F17.97341879670611
s((I1
I0
I0
I1
I4
tp1617
I0
tp1618
F13.901321609149392
s((I1
I2
I1
I1
I4
tp1619
I2
tp1620
F20.210446570148132
s((I3
I1
I3
I4
I4
tp1621
I3
tp1622
F-1.95
s((I1
I2
I1
I3
I4
tp1623
I2
tp1624
F24.370579532519443
s((I1
I4
I4
I0
I0
tp1625
I3
tp1626
F36.069324185505664
s((I1
I4
I3
I4
I4
tp1627
I1
tp1628
F70.20199190524987
s((I1
I4
I0
I0
I4
tp1629
I3
tp1630
F41.86164445436468
s((I2
I1
I2
I1
I1
tp1631
I2
tp1632
F34.99548023817513
s((I1
I4
I4
I3
I1
tp1633
I0
tp1634
F51.07370778073109
s((I1
I1
I0
I1
I1
tp1635
I2
tp1636
F65.2954123168947
s((I1
I4
I4
I1
I4
tp1637
I0
tp1638
F72.37140239144347
s((I1
I1
I3
I3
I2
tp1639
I2
tp1640
F13.901321609149392
s((I3
I0
I4
I0
I4
tp1641
I2
tp1642
F-1.0
s((I1
I3
I4
I4
I4
tp1643
I1
tp1644
F59.406430379103284
s((I1
I4
I0
I3
I4
tp1645
I3
tp1646
F1.196178271911048
s((I1
I4
I1
I4
I1
tp1647
I1
tp1648
F63.66957819374629
s((I1
I1
I0
I3
I0
tp1649
I0
tp1650
F-1.95
s((I0
I4
I0
I1
I1
tp1651
I2
tp1652
F-11.0
s((I0
I4
I2
I4
I4
tp1653
I0
tp1654
F60.048058409792006
s((I1
I2
I4
I1
I4
tp1655
I1
tp1656
F65.5456554893024
s((I3
I4
I0
I1
I1
tp1657
I0
tp1658
F-1.95
s((I1
I2
I4
I4
I3
tp1659
I3
tp1660
F44.1440212721098
s((I3
I1
I2
I4
I4
tp1661
I0
tp1662
F44.97628447082603
s((I1
I4
I4
I2
I4
tp1663
I0
tp1664
F-1.95
s((I3
I4
I1
I4
I1
tp1665
I2
tp1666
F-1.0
s((I2
I2
I3
I1
I0
tp1667
I0
tp1668
F-1.95
s((I1
I1
I1
I2
I1
tp1669
I0
tp1670
F70.29140947082603
s((I0
I1
I3
I4
I4
tp1671
I2
tp1672
F-4.657252232595804
s((I1
I4
I4
I0
I1
tp1673
I0
tp1674
F68.578253770848
s((I1
I4
I0
I1
I0
tp1675
I3
tp1676
F41.550664871937485
s((I1
I4
I3
I4
I1
tp1677
I2
tp1678
F65.69189230998737
s((I2
I0
I4
I2
I4
tp1679
I2
tp1680
F-6.033254078124999
s((I2
I2
I0
I4
I2
tp1681
I1
tp1682
F-3.709875
s((I1
I4
I4
I4
I0
tp1683
I1
tp1684
F31.487624999999994
s((I3
I1
I4
I4
I4
tp1685
I1
tp1686
F61.48676831356954
s((I2
I1
I1
I4
I4
tp1687
I0
tp1688
F88.75085829095603
s((I1
I2
I1
I1
I1
tp1689
I0
tp1690
F-1.9500000000000028
s((I1
I2
I1
I4
I1
tp1691
I2
tp1692
F61.767956673219516
s((I2
I4
I4
I0
I0
tp1693
I0
tp1694
F25.421082388327395
s((I2
I1
I1
I4
I1
tp1695
I1
tp1696
F11.76574375
s((I1
I4
I4
I0
I2
tp1697
I0
tp1698
F61.719248270919195
s((I3
I1
I4
I2
I3
tp1699
I1
tp1700
F-6.033254078124999
s((I1
I3
I1
I4
I1
tp1701
I1
tp1702
F64.1493410823056
s((I1
I4
I4
I3
I4
tp1703
I2
tp1704
F-1.95
s((I1
I0
I1
I0
I3
tp1705
I2
tp1706
F-1.0
s((I2
I1
I2
I4
I4
tp1707
I1
tp1708
F-1.0
s((I0
I2
I4
I4
I4
tp1709
I0
tp1710
F-11.0
s((I1
I4
I1
I1
I4
tp1711
I2
tp1712
F67.0539547565214
s((I3
I1
I0
I1
I1
tp1713
I2
tp1714
F-1.0
s((I3
I1
I1
I1
I4
tp1715
I1
tp1716
F72.70867389888787
s((I1
I1
I4
I3
I0
tp1717
I3
tp1718
F68.07324020394347
s((I1
I1
I1
I3
I3
tp1719
I2
tp1720
F-3.709875
s((I0
I4
I2
I2
I4
tp1721
I2
tp1722
F19.0
s((I1
I4
I1
I1
I1
tp1723
I0
tp1724
F70.29140947082603
s((I1
I1
I2
I4
I0
tp1725
I2
tp1726
F35.21889578539273
s((I1
I4
I1
I4
I4
tp1727
I1
tp1728
F60.81048153601599
s((I3
I1
I1
I1
I1
tp1729
I0
tp1730
F19.540832901763398
s((I1
I3
I4
I1
I3
tp1731
I0
tp1732
F-4.524381249999999
s((I3
I1
I4
I4
I0
tp1733
I1
tp1734
F-1.0
s((I2
I4
I1
I4
I1
tp1735
I0
tp1736
F73.82203310235944
s((I0
I1
I0
I4
I4
tp1737
I0
tp1738
F-11.0
s((I2
I4
I1
I4
I4
tp1739
I1
tp1740
F-1.0
s((I0
I3
I4
I4
I1
tp1741
I3
tp1742
F53.58571618852977
s((I1
I1
I4
I2
I4
tp1743
I0
tp1744
F7.235154547656249
s((I1
I0
I1
I1
I1
tp1745
I1
tp1746
F75.04358891665898
s((I0
I0
I1
I4
I4
tp1747
I3
tp1748
F23.08634328359483
s((I1
I4
I4
I4
I1
tp1749
I2
tp1750
F50.83268037910329
s((I2
I2
I0
I4
I0
tp1751
I1
tp1752
F-1.0
s((I1
I1
I1
I1
I2
tp1753
I3
tp1754
F13.901321609149392
s((I1
I1
I1
I2
I1
tp1755
I3
tp1756
F71.6357418489699
s((I1
I1
I1
I2
I0
tp1757
I1
tp1758
F-1.9499999999999993
s((I0
I4
I1
I4
I4
tp1759
I3
tp1760
F79.94187402819031
s((I1
I3
I1
I4
I3
tp1761
I1
tp1762
F65.57679240874002
s((I3
I0
I1
I1
I1
tp1763
I3
tp1764
F59.49022822843466
s((I1
I2
I1
I4
I2
tp1765
I3
tp1766
F-2.8525
s((I1
I1
I1
I4
I2
tp1767
I2
tp1768
F41.550664871937485
s((I2
I2
I4
I1
I4
tp1769
I0
tp1770
F-5.298162187499999
s((I3
I0
I1
I1
I1
tp1771
I0
tp1772
F-1.0
s((I1
I4
I1
I3
I1
tp1773
I2
tp1774
F38.16983549441508
s((I3
I1
I1
I0
I4
tp1775
I0
tp1776
F76.55393037910328
s((I1
I4
I1
I0
I1
tp1777
I1
tp1778
F55.944780326780794
s((I1
I4
I1
I0
I0
tp1779
I0
tp1780
F55.86211500994153
s((I2
I0
I1
I1
I1
tp1781
I2
tp1782
F-1.0
s((I1
I4
I4
I4
I2
tp1783
I0
tp1784
F64.11715482724806
s((I1
I2
I1
I3
I1
tp1785
I1
tp1786
F12.751660046676713
s((I3
I1
I0
I4
I4
tp1787
I0
tp1788
F14.18172336331382
s((I1
I4
I0
I4
I4
tp1789
I3
tp1790
F41.54572409082765
s((I1
I1
I4
I4
I4
tp1791
I0
tp1792
F32.77200129457739
s((I2
I2
I2
I2
I1
tp1793
I2
tp1794
F-1.0
s((I1
I1
I4
I3
I1
tp1795
I0
tp1796
F24.55451143506718
s((I1
I0
I3
I1
I1
tp1797
I0
tp1798
F-1.95
s((I1
I0
I1
I4
I0
tp1799
I3
tp1800
F27.626731168356095
s((I0
I1
I4
I4
I0
tp1801
I2
tp1802
F63.45566966311568
s((I1
I1
I1
I2
I4
tp1803
I1
tp1804
F63.66957819374629
s((I1
I4
I2
I2
I1
tp1805
I1
tp1806
F37.10161377028701
s((I1
I1
I3
I4
I4
tp1807
I1
tp1808
F72.11679720502933
s((I1
I2
I0
I1
I1
tp1809
I2
tp1810
F70.048058409792
s((I1
I4
I3
I3
I1
tp1811
I1
tp1812
F59.41855676909874
s((I1
I1
I0
I4
I3
tp1813
I0
tp1814
F64.11715482724806
s((I1
I1
I1
I2
I2
tp1815
I3
tp1816
F17.100332109938293
s((I2
I4
I4
I0
I1
tp1817
I0
tp1818
F49.79164839300895
s((I0
I1
I1
I1
I4
tp1819
I2
tp1820
F24.24653308177266
s((I0
I4
I4
I1
I2
tp1821
I3
tp1822
F62.615752009451285
s((I1
I4
I4
I1
I0
tp1823
I2
tp1824
F67.13992216714071
s((I1
I0
I4
I4
I1
tp1825
I3
tp1826
F55.23409486898048
s((I3
I4
I4
I1
I0
tp1827
I3
tp1828
F-1.95
s((I0
I4
I0
I1
I4
tp1829
I0
tp1830
F45.91573223159136
s((I1
I4
I1
I1
I3
tp1831
I2
tp1832
F71.5964350121279
s((I0
I4
I0
I1
I4
tp1833
I1
tp1834
F-11.0
s((I2
I1
I4
I2
I1
tp1835
I2
tp1836
F10.1774565625
s((I0
I4
I4
I2
I1
tp1837
I2
tp1838
F-11.0
s((I2
I2
I2
I0
I4
tp1839
I0
tp1840
F-1.0
s((I0
I4
I4
I0
I1
tp1841
I2
tp1842
F8.122499999999999
s((I1
I1
I0
I4
I4
tp1843
I2
tp1844
F45.032553506182374
s((I0
I4
I1
I1
I4
tp1845
I3
tp1846
F-14.52438125
s((I2
I4
I1
I4
I0
tp1847
I0
tp1848
F38.12515345830814
s((I3
I0
I1
I4
I4
tp1849
I2
tp1850
F54.64275861682425
s((I1
I4
I0
I4
I1
tp1851
I3
tp1852
F61.615188004733284
s((I1
I1
I1
I1
I3
tp1853
I1
tp1854
F68.07324020394347
s((I2
I4
I1
I1
I1
tp1855
I1
tp1856
F67.99840085218698
s((I2
I4
I4
I4
I0
tp1857
I0
tp1858
F17.05
s((I1
I3
I1
I1
I1
tp1859
I0
tp1860
F-1.0
s((I3
I3
I1
I4
I1
tp1861
I1
tp1862
F-2.8525000000000027
s((I2
I1
I1
I0
I1
tp1863
I1
tp1864
F25.473993179130478
s((I2
I4
I4
I1
I4
tp1865
I0
tp1866
F-1.95
s((I3
I4
I4
I1
I1
tp1867
I1
tp1868
F93.09526133780966
s((I0
I0
I1
I1
I4
tp1869
I1
tp1870
F2.75166004667671
s((I2
I4
I2
I4
I0
tp1871
I1
tp1872
F-1.0
s((I2
I2
I4
I0
I1
tp1873
I3
tp1874
F-2.8525
s((I0
I1
I4
I1
I4
tp1875
I1
tp1876
F38.4735272214425
s((I1
I3
I2
I3
I1
tp1877
I3
tp1878
F-1.95
s((I1
I1
I2
I4
I1
tp1879
I0
tp1880
F-4.524381249999999
s((I3
I4
I0
I0
I1
tp1881
I3
tp1882
F-1.0
s((I0
I4
I4
I3
I4
tp1883
I2
tp1884
F59.23080753560846
s((I2
I4
I3
I4
I4
tp1885
I1
tp1886
F59.41855676909874
s((I0
I4
I4
I1
I4
tp1887
I2
tp1888
F71.24987726125056
s((I1
I0
I4
I1
I4
tp1889
I1
tp1890
F57.204954079095415
s((I0
I4
I4
I1
I1
tp1891
I2
tp1892
F58.07324020394347
s((I0
I2
I1
I4
I4
tp1893
I1
tp1894
F35.290125
s((I1
I1
I4
I4
I0
tp1895
I1
tp1896
F10.1774565625
s((I1
I1
I3
I3
I3
tp1897
I2
tp1898
F-1.0
s((I1
I4
I2
I3
I1
tp1899
I0
tp1900
F52.15237726125055
s((I1
I4
I1
I3
I4
tp1901
I3
tp1902
F55.944780326780794
s((I0
I4
I1
I1
I1
tp1903
I0
tp1904
F58.6479123168947
s((I3
I1
I1
I4
I2
tp1905
I1
tp1906
F-2.8525
s((I3
I2
I4
I4
I1
tp1907
I3
tp1908
F33.47543162808075
s((I2
I0
I4
I4
I0
tp1909
I0
tp1910
F-1.0
s((I1
I4
I4
I1
I2
tp1911
I3
tp1912
F68.33617563049464
s((I3
I1
I4
I1
I0
tp1913
I3
tp1914
F-1.0
s((I1
I1
I2
I4
I1
tp1915
I1
tp1916
F43.80084764810536
s((I3
I4
I4
I3
I1
tp1917
I1
tp1918
F35.549475046923575
s((I1
I4
I0
I4
I1
tp1919
I1
tp1920
F67.0166132615215
s((I0
I3
I2
I4
I4
tp1921
I2
tp1922
F45.48302551159654
s((I1
I1
I3
I1
I1
tp1923
I1
tp1924
F65.2954123168947
s((I1
I4
I0
I1
I4
tp1925
I1
tp1926
F50.88093245652435
s((I1
I1
I3
I1
I0
tp1927
I0
tp1928
F-3.709875
s((I3
I1
I4
I1
I4
tp1929
I1
tp1930
F61.03064170104996
s((I1
I1
I0
I3
I3
tp1931
I1
tp1932
F-3.709875
s((I1
I1
I0
I4
I1
tp1933
I1
tp1934
F59.91129708588565
s((I2
I4
I3
I2
I4
tp1935
I2
tp1936
F34.99548023817513
s((I1
I4
I1
I4
I3
tp1937
I3
tp1938
F40.73111309644873
s((I0
I4
I0
I1
I0
tp1939
I1
tp1940
F19.0
s((I0
I4
I3
I4
I4
tp1941
I0
tp1942
F19.0
s((I1
I4
I0
I4
I1
tp1943
I0
tp1944
F76.41730001276622
s((I3
I3
I1
I1
I3
tp1945
I1
tp1946
F-1.0
s((I3
I1
I2
I1
I2
tp1947
I2
tp1948
F68.07781521156197
s((I1
I3
I1
I1
I4
tp1949
I1
tp1950
F63.66957819374629
s((I1
I0
I1
I1
I1
tp1951
I2
tp1952
F47.89877061925488
s((I1
I0
I4
I0
I4
tp1953
I1
tp1954
F57.02628362193747
s((I2
I1
I1
I1
I1
tp1955
I3
tp1956
F8.668583734375005
s((I1
I3
I4
I4
I1
tp1957
I0
tp1958
F8.080454532519447
s((I1
I1
I1
I1
I2
tp1959
I1
tp1960
F15.685601693841466
s((I3
I1
I4
I4
I1
tp1961
I2
tp1962
F40.73111309644873
s((I1
I4
I4
I0
I0
tp1963
I1
tp1964
F60.81095376577854
s((I1
I4
I4
I4
I3
tp1965
I3
tp1966
F81.63571618852977
s((I3
I0
I1
I4
I1
tp1967
I3
tp1968
F21.67248905437999
s((I1
I1
I1
I4
I4
tp1969
I1
tp1970
F59.94187402819031
s((I3
I0
I0
I4
I4
tp1971
I2
tp1972
F53.174969440840584
s((I1
I4
I0
I0
I4
tp1973
I1
tp1974
F74.82193064680335
s((I1
I4
I4
I3
I1
tp1975
I2
tp1976
F-1.0
s((I1
I3
I1
I1
I3
tp1977
I2
tp1978
F64.18889561925486
s((I1
I4
I3
I3
I1
tp1979
I3
tp1980
F53.37140239144347
s((I2
I0
I4
I4
I2
tp1981
I0
tp1982
F-1.0
s((I1
I1
I0
I1
I1
tp1983
I0
tp1984
F56.97910961599746
s((I0
I1
I1
I1
I2
tp1985
I0
tp1986
F71.78390329882217
s((I1
I4
I4
I1
I4
tp1987
I2
tp1988
F57.413597195049455
s((I1
I3
I1
I0
I1
tp1989
I1
tp1990
F64.1493410823056
s((I0
I1
I1
I4
I4
tp1991
I2
tp1992
F-22.3525
s((I2
I3
I4
I4
I4
tp1993
I2
tp1994
F72.77521160381647
s((I3
I4
I1
I0
I4
tp1995
I3
tp1996
F61.297952788303014
s((I0
I4
I1
I2
I4
tp1997
I1
tp1998
F87.96855676909874
s((I3
I1
I3
I1
I1
tp1999
I3
tp2000
F-6.731591374218749
s((I1
I0
I4
I4
I4
tp2001
I2
tp2002
F51.088627414060916
s((I1
I3
I1
I4
I4
tp2003
I0
tp2004
F10.1774565625
s((I1
I4
I1
I4
I0
tp2005
I2
tp2006
F42.993545764063995
s((I1
I3
I4
I1
I2
tp2007
I2
tp2008
F54.81442924287484
s((I3
I1
I4
I0
I1
tp2009
I3
tp2010
F20.498240630296774
s((I1
I1
I1
I1
I1
tp2011
I1
tp2012
F67.13992216714071
s((I3
I1
I4
I4
I1
tp2013
I0
tp2014
F-1.0
s((I2
I1
I2
I4
I1
tp2015
I2
tp2016
F35.549475046923575
s((I1
I2
I4
I1
I4
tp2017
I3
tp2018
F10.256870921874997
s((I3
I2
I1
I1
I1
tp2019
I0
tp2020
F-3.709875
s((I1
I4
I4
I2
I4
tp2021
I2
tp2022
F-1.95
s((I3
I1
I0
I0
I4
tp2023
I1
tp2024
F85.1128724841116
s((I1
I1
I3
I4
I0
tp2025
I3
tp2026
F52.14754131044175
s((I1
I1
I4
I0
I4
tp2027
I1
tp2028
F56.77040607748961
s((I1
I1
I1
I4
I3
tp2029
I0
tp2030
F76.41730001276622
s((I1
I1
I1
I0
I1
tp2031
I0
tp2032
F61.487997047420485
s((I1
I4
I4
I0
I1
tp2033
I2
tp2034
F63.66775861682426
s((I1
I1
I2
I0
I0
tp2035
I1
tp2036
F18.199924241640726
s((I3
I0
I0
I4
I1
tp2037
I2
tp2038
F-1.0
s((I2
I0
I2
I0
I2
tp2039
I2
tp2040
F-1.0
s((I1
I1
I2
I1
I0
tp2041
I3
tp2042
F47.52002239169453
s((I1
I4
I0
I4
I0
tp2043
I2
tp2044
F65.69189230998737
s((I3
I1
I2
I4
I1
tp2045
I0
tp2046
F-1.0
s((I0
I4
I0
I2
I4
tp2047
I2
tp2048
F31.114077044342874
s((I0
I0
I2
I1
I4
tp2049
I0
tp2050
F19.0
s((I2
I1
I1
I4
I4
tp2051
I2
tp2052
F66.96530091713123
s((I3
I4
I4
I4
I1
tp2053
I2
tp2054
F59.48609928405897
s((I0
I0
I4
I4
I4
tp2055
I2
tp2056
F64.00415285944524
s((I3
I1
I1
I1
I2
tp2057
I1
tp2058
F-2.8525
s((I1
I4
I1
I2
I1
tp2059
I2
tp2060
F-3.709874999999999
s((I1
I1
I1
I4
I0
tp2061
I0
tp2062
F73.24026712720841
s((I0
I1
I4
I1
I4
tp2063
I2
tp2064
F27.10161377028701
s((I1
I3
I4
I0
I4
tp2065
I2
tp2066
F7.970246438281247
s((I0
I2
I4
I4
I2
tp2067
I0
tp2068
F19.0
s((I1
I3
I1
I4
I1
tp2069
I3
tp2070
F76.96504968950455
s((I1
I4
I4
I3
I4
tp2071
I0
tp2072
F55.029707053478916
s((I1
I1
I1
I0
I4
tp2073
I0
tp2074
F61.297952788303014
s((I1
I1
I4
I1
I4
tp2075
I0
tp2076
F55.23409486898048
s((I1
I4
I1
I1
I4
tp2077
I0
tp2078
F59.196931125363825
s((I1
I0
I4
I1
I1
tp2079
I0
tp2080
F-1.9500000000000028
s((I2
I4
I0
I2
I4
tp2081
I3
tp2082
F-1.0
s.